

Microchip MPLAB XC8 Assembler V2.10 build 88905656 
                                                                                               Tue Jan 07 10:19:27 2020

Microchip MPLAB XC8 C Compiler v2.10 (Free license) build 20190730164152 Og9 
     1                           	processor	16F1454
     2                           	opt	pw 120
     3                           	opt	flic
     4                           	psect	idataBANK1,global,class=CODE,delta=2
     5                           	psect	idataBANK3,global,class=CODE,delta=2
     6                           	psect	idataBANK4,global,class=CODE,delta=2
     7                           	psect	stringtext1,global,class=STRCODE,delta=2
     8                           	psect	stringtext2,global,class=STRCODE,delta=2
     9                           	psect	stringtext3,global,class=STRCODE,delta=2
    10                           	psect	stringtext4,global,class=STRCODE,delta=2
    11                           	psect	stringtext5,global,class=STRCODE,delta=2
    12                           	psect	stringtext6,global,class=STRCODE,delta=2
    13                           	psect	stringtext7,global,class=STRCODE,delta=2
    14                           	psect	stringtext8,global,class=STRCODE,delta=2
    15                           	psect	stringtext9,global,class=STRCODE,delta=2
    16                           	psect	stringtext10,global,class=STRCODE,delta=2
    17                           	psect	stringtext11,global,class=STRCODE,delta=2
    18                           	psect	attribute@NVM_PRODUCT_SERIAL1_text,global,class=STRCODE,delta=2
    19                           	psect	attribute@NVM_PRODUCT_SERIAL0_text,global,class=STRCODE,delta=2
    20                           	psect	_NVM_PRODUCT_SERIAL1_text,global,class=STRCODE,delta=2
    21                           	psect	_NVM_PRODUCT_SERIAL0_text,global,class=STRCODE,delta=2
    22                           	psect	_NVM_HIGH_VOLTAGE_OFFSET_text,global,class=STRCODE,delta=2
    23                           	psect	_NVM_HIGH_VOLTAGE_SLOPE_text,global,class=STRCODE,delta=2
    24                           	psect	_NVM_LOW_VOLTAGE_OFFSET_text,global,class=STRCODE,delta=2
    25                           	psect	_NVM_LOW_VOLTAGE_SLOPE_text,global,class=STRCODE,delta=2
    26                           	psect	_NVM_HIGH_CURRENT_OFFSET_text,global,class=STRCODE,delta=2
    27                           	psect	_NVM_HIGH_CURRENT_SLOPE_text,global,class=STRCODE,delta=2
    28                           	psect	_NVM_LOW_CURRENT_OFFSET_text,global,class=STRCODE,delta=2
    29                           	psect	_NVM_LOW_CURRENT_SLOPE_text,global,class=STRCODE,delta=2
    30                           	psect	nvBANK4,global,class=BANK4,space=1,delta=1
    31                           	psect	cinit,global,class=CODE,merge=1,delta=2
    32                           	psect	bssBANK0,global,class=BANK0,space=1,delta=1
    33                           	psect	bssBANK1,global,class=BANK1,space=1,delta=1
    34                           	psect	dataBANK1,global,class=BANK1,space=1,delta=1
    35                           	psect	bssBANK3,global,class=BANK3,space=1,delta=1
    36                           	psect	dataBANK3,global,class=BANK3,space=1,delta=1
    37                           	psect	bssBANK4,global,class=BANK4,space=1,delta=1
    38                           	psect	dataBANK4,global,class=BANK4,space=1,delta=1
    39                           	psect	inittext,global,class=CODE,delta=2
    40                           	psect	cstackBANK4,global,class=BANK4,space=1,delta=1
    41                           	psect	cstackBANK3,global,class=BANK3,space=1,delta=1
    42                           	psect	cstackBANK1,global,class=BANK1,space=1,delta=1
    43                           	psect	cstackCOMMON,global,class=COMMON,space=1,delta=1
    44                           	psect	cstackBANK0,global,class=BANK0,space=1,delta=1
    45                           	psect	maintext,global,class=CODE,merge=1,split=1,delta=2
    46                           	psect	text1,local,class=CODE,merge=1,delta=2
    47                           	psect	text2,local,class=CODE,merge=1,delta=2
    48                           	psect	text3,local,class=CODE,merge=1,delta=2
    49                           	psect	text4,local,class=CODE,merge=1,delta=2
    50                           	psect	text5,local,class=CODE,merge=1,delta=2
    51                           	psect	text6,local,class=CODE,merge=1,delta=2
    52                           	psect	text7,local,class=CODE,merge=1,delta=2
    53                           	psect	text8,local,class=CODE,merge=1,delta=2,group=2
    54                           	psect	text9,local,class=CODE,merge=1,delta=2
    55                           	psect	text10,local,class=CODE,merge=1,delta=2
    56                           	psect	text11,local,class=CODE,merge=1,delta=2
    57                           	psect	text12,local,class=CODE,merge=1,delta=2
    58                           	psect	text13,local,class=CODE,merge=1,delta=2
    59                           	psect	text14,local,class=CODE,merge=1,delta=2,group=1
    60                           	psect	text15,local,class=CODE,merge=1,delta=2,group=2
    61                           	psect	text16,local,class=CODE,merge=1,delta=2
    62                           	psect	text17,local,class=CODE,merge=1,delta=2
    63                           	psect	text18,local,class=CODE,merge=1,delta=2
    64                           	psect	text19,local,class=CODE,merge=1,delta=2
    65                           	psect	text20,local,class=CODE,merge=1,delta=2
    66                           	psect	text21,local,class=CODE,merge=1,delta=2
    67                           	psect	text22,local,class=CODE,merge=1,delta=2
    68                           	psect	text23,local,class=CODE,merge=1,delta=2,group=1
    69                           	psect	text24,local,class=CODE,merge=1,delta=2,group=1
    70                           	psect	text25,local,class=CODE,merge=1,delta=2,group=1
    71                           	psect	text26,local,class=CODE,merge=1,delta=2,group=1
    72                           	psect	text27,local,class=CODE,merge=1,delta=2
    73                           	psect	text28,local,class=CODE,merge=1,delta=2
    74                           	psect	text29,local,class=CODE,merge=1,delta=2
    75                           	psect	text30,local,class=CODE,merge=1,delta=2
    76                           	psect	text31,local,class=CODE,merge=1,delta=2
    77                           	psect	text32,local,class=CODE,merge=1,delta=2
    78                           	psect	text33,local,class=CODE,merge=1,delta=2
    79                           	psect	text34,local,class=CODE,merge=1,delta=2
    80                           	psect	intentry,global,class=CODE,delta=2
    81                           	psect	text36,local,class=CODE,merge=1,delta=2
    82                           	psect	text37,local,class=CODE,merge=1,delta=2
    83                           	psect	text38,local,class=CODE,merge=1,delta=2
    84                           	psect	text39,local,class=CODE,merge=1,inline,delta=2
    85                           	psect	text40,local,class=CODE,merge=1,inline,delta=2
    86                           	psect	text41,local,class=CODE,merge=1,delta=2
    87                           	psect	text42,local,class=CODE,merge=1,delta=2
    88                           	psect	text43,local,class=CODE,merge=1,delta=2
    89                           	psect	text44,local,class=CODE,merge=1,delta=2
    90                           	psect	text45,local,class=CODE,merge=1,delta=2
    91                           	psect	text46,local,class=CODE,merge=1,delta=2
    92                           	psect	text47,local,class=CODE,merge=1,delta=2
    93                           	psect	text48,local,class=CODE,merge=1,delta=2
    94                           	psect	text49,local,class=CODE,merge=1,delta=2
    95                           	psect	text50,local,class=CODE,merge=1,delta=2
    96                           	psect	text51,local,class=CODE,merge=1,delta=2
    97                           	psect	text52,local,class=CODE,merge=1,delta=2
    98                           	psect	text53,local,class=CODE,merge=1,delta=2
    99                           	psect	text54,local,class=CODE,merge=1,delta=2
   100                           	psect	text55,local,class=CODE,merge=1,delta=2
   101                           	psect	text56,local,class=CODE,merge=1,delta=2
   102                           	psect	text57,local,class=CODE,merge=1,delta=2
   103                           	psect	text58,local,class=CODE,merge=1,delta=2
   104                           	psect	text59,local,class=CODE,merge=1,delta=2
   105                           	psect	text60,local,class=CODE,merge=1,delta=2
   106                           	psect	text61,local,class=CODE,merge=1,delta=2
   107                           	psect	text62,local,class=CODE,merge=1,delta=2
   108                           	psect	text63,local,class=CODE,merge=1,delta=2
   109                           	psect	text64,local,class=CODE,merge=1,delta=2
   110                           	psect	text65,local,class=CODE,merge=1,delta=2
   111                           	psect	text66,local,class=CODE,merge=1,delta=2
   112                           	psect	text67,local,class=CODE,merge=1,delta=2
   113                           	psect	text68,local,class=CODE,merge=1,inline,delta=2
   114                           	psect	text69,local,class=CODE,merge=1,delta=2
   115                           	psect	text70,local,class=CODE,merge=1,delta=2
   116                           	psect	text71,local,class=CODE,merge=1,inline,delta=2
   117                           	psect	text72,local,class=CODE,merge=1,delta=2
   118                           	psect	text73,local,class=CODE,merge=1,delta=2
   119                           	psect	text74,local,class=CODE,merge=1,delta=2
   120                           	psect	text75,local,class=CODE,merge=1,delta=2
   121                           	psect	text76,local,class=CODE,merge=1,delta=2
   122                           	psect	text77,local,class=CODE,merge=1,delta=2
   123                           	psect	text78,local,class=CODE,merge=1,delta=2
   124                           	psect	text79,local,class=CODE,merge=1,delta=2
   125                           	psect	text80,local,class=CODE,merge=1,delta=2
   126                           	dabs	1,0x1A0,32
   127                           	dabs	1,0x120,80
   128                           	dabs	1,0xD0,32
   129                           	dabs	1,0x20,16,_bds
   130                           	dabs	1,0x7E,2
   131  0000                     
   132                           ; Version 2.10
   133                           ; Generated 31/07/2019 GMT
   134                           ; 
   135                           ; Copyright © 2019, Microchip Technology Inc. and its subsidiaries ("Microchip")
   136                           ; All rights reserved.
   137                           ; 
   138                           ; This software is developed by Microchip Technology Inc. and its subsidiaries ("Microch
      +                          ip").
   139                           ; 
   140                           ; Redistribution and use in source and binary forms, with or without modification, are
   141                           ; permitted provided that the following conditions are met:
   142                           ; 
   143                           ;     1. Redistributions of source code must retain the above copyright notice, this lis
      +                          t of
   144                           ;        conditions and the following disclaimer.
   145                           ; 
   146                           ;     2. Redistributions in binary form must reproduce the above copyright notice, this 
      +                          list
   147                           ;        of conditions and the following disclaimer in the documentation and/or other
   148                           ;        materials provided with the distribution.
   149                           ; 
   150                           ;     3. Microchip's name may not be used to endorse or promote products derived from th
      +                          is
   151                           ;        software without specific prior written permission.
   152                           ; 
   153                           ; THIS SOFTWARE IS PROVIDED BY MICROCHIP "AS IS" AND ANY EXPRESS OR IMPLIED WARRANTIES,
   154                           ; INCLUDING, BUT NOT LIMITED TO, THE IMPLIED WARRANTIES OF MERCHANTABILITY AND FITNESS F
      +                          OR
   155                           ; PURPOSE ARE DISCLAIMED.  IN NO EVENT SHALL MICROCHIP BE LIABLE FOR ANY DIRECT, INDIREC
      +                          T,
   156                           ; INCIDENTAL, SPECIAL, EXEMPLARY, OR CONSEQUENTIAL DAMAGES (INCLUDING BUT NOT LIMITED TO
   157                           ; PROCUREMENT OF SUBSTITUTE GOODS OR SERVICES; LOSS OF USE, DATA OR PROFITS; OR BUSINESS
   158                           ; INTERRUPTION) HOWSOEVER CAUSED AND ON ANY THEORY OF LIABILITY, WHETHER IN CONTRACT, ST
      +                          RICT
   159                           ; LIABILITY, OR TORT (INCLUDING NEGLIGENCE OR OTHERWISE) ARISING IN ANY WAY OUT OF THE U
      +                          SE OF
   160                           ; THIS SOFTWARE, EVEN IF ADVISED OF THE POSSIBILITY OF SUCH DAMAGE.
   161                           ; 
   162                           ; 
   163                           ; Code-generator required, PIC16F1454 Definitions
   164                           ; 
   165                           ; SFR Addresses
   166  0000                     	;# 
   167  0001                     	;# 
   168  0002                     	;# 
   169  0003                     	;# 
   170  0004                     	;# 
   171  0005                     	;# 
   172  0006                     	;# 
   173  0007                     	;# 
   174  0008                     	;# 
   175  0009                     	;# 
   176  000A                     	;# 
   177  000B                     	;# 
   178  000C                     	;# 
   179  000E                     	;# 
   180  0011                     	;# 
   181  0012                     	;# 
   182  0015                     	;# 
   183  0016                     	;# 
   184  0016                     	;# 
   185  0017                     	;# 
   186  0018                     	;# 
   187  0019                     	;# 
   188  001A                     	;# 
   189  001B                     	;# 
   190  001C                     	;# 
   191  008C                     	;# 
   192  008E                     	;# 
   193  0091                     	;# 
   194  0092                     	;# 
   195  0095                     	;# 
   196  0096                     	;# 
   197  0097                     	;# 
   198  0098                     	;# 
   199  0099                     	;# 
   200  009A                     	;# 
   201  010C                     	;# 
   202  010E                     	;# 
   203  0116                     	;# 
   204  0117                     	;# 
   205  011D                     	;# 
   206  018C                     	;# 
   207  018E                     	;# 
   208  0191                     	;# 
   209  0191                     	;# 
   210  0192                     	;# 
   211  0193                     	;# 
   212  0193                     	;# 
   213  0194                     	;# 
   214  0195                     	;# 
   215  0196                     	;# 
   216  0197                     	;# 
   217  0199                     	;# 
   218  019A                     	;# 
   219  019B                     	;# 
   220  019B                     	;# 
   221  019C                     	;# 
   222  019D                     	;# 
   223  019E                     	;# 
   224  019F                     	;# 
   225  020C                     	;# 
   226  0211                     	;# 
   227  0211                     	;# 
   228  0212                     	;# 
   229  0212                     	;# 
   230  0213                     	;# 
   231  0213                     	;# 
   232  0214                     	;# 
   233  0214                     	;# 
   234  0215                     	;# 
   235  0215                     	;# 
   236  0215                     	;# 
   237  0216                     	;# 
   238  0216                     	;# 
   239  0217                     	;# 
   240  0217                     	;# 
   241  0391                     	;# 
   242  0392                     	;# 
   243  0393                     	;# 
   244  039A                     	;# 
   245  039B                     	;# 
   246  0611                     	;# 
   247  0612                     	;# 
   248  0613                     	;# 
   249  0613                     	;# 
   250  0614                     	;# 
   251  0615                     	;# 
   252  0616                     	;# 
   253  0616                     	;# 
   254  0E8E                     	;# 
   255  0E8F                     	;# 
   256  0E90                     	;# 
   257  0E91                     	;# 
   258  0E92                     	;# 
   259  0E93                     	;# 
   260  0E94                     	;# 
   261  0E94                     	;# 
   262  0E95                     	;# 
   263  0E96                     	;# 
   264  0E97                     	;# 
   265  0E98                     	;# 
   266  0E99                     	;# 
   267  0E9A                     	;# 
   268  0E9B                     	;# 
   269  0E9C                     	;# 
   270  0E9D                     	;# 
   271  0E9E                     	;# 
   272  0E9F                     	;# 
   273  0FE4                     	;# 
   274  0FE5                     	;# 
   275  0FE6                     	;# 
   276  0FE7                     	;# 
   277  0FE8                     	;# 
   278  0FE9                     	;# 
   279  0FEA                     	;# 
   280  0FEB                     	;# 
   281  0FED                     	;# 
   282  0FEE                     	;# 
   283  0FEF                     	;# 
   284  0000                     	;# 
   285  0001                     	;# 
   286  0002                     	;# 
   287  0003                     	;# 
   288  0004                     	;# 
   289  0005                     	;# 
   290  0006                     	;# 
   291  0007                     	;# 
   292  0008                     	;# 
   293  0009                     	;# 
   294  000A                     	;# 
   295  000B                     	;# 
   296  000C                     	;# 
   297  000E                     	;# 
   298  0011                     	;# 
   299  0012                     	;# 
   300  0015                     	;# 
   301  0016                     	;# 
   302  0016                     	;# 
   303  0017                     	;# 
   304  0018                     	;# 
   305  0019                     	;# 
   306  001A                     	;# 
   307  001B                     	;# 
   308  001C                     	;# 
   309  008C                     	;# 
   310  008E                     	;# 
   311  0091                     	;# 
   312  0092                     	;# 
   313  0095                     	;# 
   314  0096                     	;# 
   315  0097                     	;# 
   316  0098                     	;# 
   317  0099                     	;# 
   318  009A                     	;# 
   319  010C                     	;# 
   320  010E                     	;# 
   321  0116                     	;# 
   322  0117                     	;# 
   323  011D                     	;# 
   324  018C                     	;# 
   325  018E                     	;# 
   326  0191                     	;# 
   327  0191                     	;# 
   328  0192                     	;# 
   329  0193                     	;# 
   330  0193                     	;# 
   331  0194                     	;# 
   332  0195                     	;# 
   333  0196                     	;# 
   334  0197                     	;# 
   335  0199                     	;# 
   336  019A                     	;# 
   337  019B                     	;# 
   338  019B                     	;# 
   339  019C                     	;# 
   340  019D                     	;# 
   341  019E                     	;# 
   342  019F                     	;# 
   343  020C                     	;# 
   344  0211                     	;# 
   345  0211                     	;# 
   346  0212                     	;# 
   347  0212                     	;# 
   348  0213                     	;# 
   349  0213                     	;# 
   350  0214                     	;# 
   351  0214                     	;# 
   352  0215                     	;# 
   353  0215                     	;# 
   354  0215                     	;# 
   355  0216                     	;# 
   356  0216                     	;# 
   357  0217                     	;# 
   358  0217                     	;# 
   359  0391                     	;# 
   360  0392                     	;# 
   361  0393                     	;# 
   362  039A                     	;# 
   363  039B                     	;# 
   364  0611                     	;# 
   365  0612                     	;# 
   366  0613                     	;# 
   367  0613                     	;# 
   368  0614                     	;# 
   369  0615                     	;# 
   370  0616                     	;# 
   371  0616                     	;# 
   372  0E8E                     	;# 
   373  0E8F                     	;# 
   374  0E90                     	;# 
   375  0E91                     	;# 
   376  0E92                     	;# 
   377  0E93                     	;# 
   378  0E94                     	;# 
   379  0E94                     	;# 
   380  0E95                     	;# 
   381  0E96                     	;# 
   382  0E97                     	;# 
   383  0E98                     	;# 
   384  0E99                     	;# 
   385  0E9A                     	;# 
   386  0E9B                     	;# 
   387  0E9C                     	;# 
   388  0E9D                     	;# 
   389  0E9E                     	;# 
   390  0E9F                     	;# 
   391  0FE4                     	;# 
   392  0FE5                     	;# 
   393  0FE6                     	;# 
   394  0FE7                     	;# 
   395  0FE8                     	;# 
   396  0FE9                     	;# 
   397  0FEA                     	;# 
   398  0FEB                     	;# 
   399  0FED                     	;# 
   400  0FEE                     	;# 
   401  0FEF                     	;# 
   402  0000                     	;# 
   403  0001                     	;# 
   404  0002                     	;# 
   405  0003                     	;# 
   406  0004                     	;# 
   407  0005                     	;# 
   408  0006                     	;# 
   409  0007                     	;# 
   410  0008                     	;# 
   411  0009                     	;# 
   412  000A                     	;# 
   413  000B                     	;# 
   414  000C                     	;# 
   415  000E                     	;# 
   416  0011                     	;# 
   417  0012                     	;# 
   418  0015                     	;# 
   419  0016                     	;# 
   420  0016                     	;# 
   421  0017                     	;# 
   422  0018                     	;# 
   423  0019                     	;# 
   424  001A                     	;# 
   425  001B                     	;# 
   426  001C                     	;# 
   427  008C                     	;# 
   428  008E                     	;# 
   429  0091                     	;# 
   430  0092                     	;# 
   431  0095                     	;# 
   432  0096                     	;# 
   433  0097                     	;# 
   434  0098                     	;# 
   435  0099                     	;# 
   436  009A                     	;# 
   437  010C                     	;# 
   438  010E                     	;# 
   439  0116                     	;# 
   440  0117                     	;# 
   441  011D                     	;# 
   442  018C                     	;# 
   443  018E                     	;# 
   444  0191                     	;# 
   445  0191                     	;# 
   446  0192                     	;# 
   447  0193                     	;# 
   448  0193                     	;# 
   449  0194                     	;# 
   450  0195                     	;# 
   451  0196                     	;# 
   452  0197                     	;# 
   453  0199                     	;# 
   454  019A                     	;# 
   455  019B                     	;# 
   456  019B                     	;# 
   457  019C                     	;# 
   458  019D                     	;# 
   459  019E                     	;# 
   460  019F                     	;# 
   461  020C                     	;# 
   462  0211                     	;# 
   463  0211                     	;# 
   464  0212                     	;# 
   465  0212                     	;# 
   466  0213                     	;# 
   467  0213                     	;# 
   468  0214                     	;# 
   469  0214                     	;# 
   470  0215                     	;# 
   471  0215                     	;# 
   472  0215                     	;# 
   473  0216                     	;# 
   474  0216                     	;# 
   475  0217                     	;# 
   476  0217                     	;# 
   477  0391                     	;# 
   478  0392                     	;# 
   479  0393                     	;# 
   480  039A                     	;# 
   481  039B                     	;# 
   482  0611                     	;# 
   483  0612                     	;# 
   484  0613                     	;# 
   485  0613                     	;# 
   486  0614                     	;# 
   487  0615                     	;# 
   488  0616                     	;# 
   489  0616                     	;# 
   490  0E8E                     	;# 
   491  0E8F                     	;# 
   492  0E90                     	;# 
   493  0E91                     	;# 
   494  0E92                     	;# 
   495  0E93                     	;# 
   496  0E94                     	;# 
   497  0E94                     	;# 
   498  0E95                     	;# 
   499  0E96                     	;# 
   500  0E97                     	;# 
   501  0E98                     	;# 
   502  0E99                     	;# 
   503  0E9A                     	;# 
   504  0E9B                     	;# 
   505  0E9C                     	;# 
   506  0E9D                     	;# 
   507  0E9E                     	;# 
   508  0E9F                     	;# 
   509  0FE4                     	;# 
   510  0FE5                     	;# 
   511  0FE6                     	;# 
   512  0FE7                     	;# 
   513  0FE8                     	;# 
   514  0FE9                     	;# 
   515  0FEA                     	;# 
   516  0FEB                     	;# 
   517  0FED                     	;# 
   518  0FEE                     	;# 
   519  0FEF                     	;# 
   520  0000                     	;# 
   521  0001                     	;# 
   522  0002                     	;# 
   523  0003                     	;# 
   524  0004                     	;# 
   525  0005                     	;# 
   526  0006                     	;# 
   527  0007                     	;# 
   528  0008                     	;# 
   529  0009                     	;# 
   530  000A                     	;# 
   531  000B                     	;# 
   532  000C                     	;# 
   533  000E                     	;# 
   534  0011                     	;# 
   535  0012                     	;# 
   536  0015                     	;# 
   537  0016                     	;# 
   538  0016                     	;# 
   539  0017                     	;# 
   540  0018                     	;# 
   541  0019                     	;# 
   542  001A                     	;# 
   543  001B                     	;# 
   544  001C                     	;# 
   545  008C                     	;# 
   546  008E                     	;# 
   547  0091                     	;# 
   548  0092                     	;# 
   549  0095                     	;# 
   550  0096                     	;# 
   551  0097                     	;# 
   552  0098                     	;# 
   553  0099                     	;# 
   554  009A                     	;# 
   555  010C                     	;# 
   556  010E                     	;# 
   557  0116                     	;# 
   558  0117                     	;# 
   559  011D                     	;# 
   560  018C                     	;# 
   561  018E                     	;# 
   562  0191                     	;# 
   563  0191                     	;# 
   564  0192                     	;# 
   565  0193                     	;# 
   566  0193                     	;# 
   567  0194                     	;# 
   568  0195                     	;# 
   569  0196                     	;# 
   570  0197                     	;# 
   571  0199                     	;# 
   572  019A                     	;# 
   573  019B                     	;# 
   574  019B                     	;# 
   575  019C                     	;# 
   576  019D                     	;# 
   577  019E                     	;# 
   578  019F                     	;# 
   579  020C                     	;# 
   580  0211                     	;# 
   581  0211                     	;# 
   582  0212                     	;# 
   583  0212                     	;# 
   584  0213                     	;# 
   585  0213                     	;# 
   586  0214                     	;# 
   587  0214                     	;# 
   588  0215                     	;# 
   589  0215                     	;# 
   590  0215                     	;# 
   591  0216                     	;# 
   592  0216                     	;# 
   593  0217                     	;# 
   594  0217                     	;# 
   595  0391                     	;# 
   596  0392                     	;# 
   597  0393                     	;# 
   598  039A                     	;# 
   599  039B                     	;# 
   600  0611                     	;# 
   601  0612                     	;# 
   602  0613                     	;# 
   603  0613                     	;# 
   604  0614                     	;# 
   605  0615                     	;# 
   606  0616                     	;# 
   607  0616                     	;# 
   608  0E8E                     	;# 
   609  0E8F                     	;# 
   610  0E90                     	;# 
   611  0E91                     	;# 
   612  0E92                     	;# 
   613  0E93                     	;# 
   614  0E94                     	;# 
   615  0E94                     	;# 
   616  0E95                     	;# 
   617  0E96                     	;# 
   618  0E97                     	;# 
   619  0E98                     	;# 
   620  0E99                     	;# 
   621  0E9A                     	;# 
   622  0E9B                     	;# 
   623  0E9C                     	;# 
   624  0E9D                     	;# 
   625  0E9E                     	;# 
   626  0E9F                     	;# 
   627  0FE4                     	;# 
   628  0FE5                     	;# 
   629  0FE6                     	;# 
   630  0FE7                     	;# 
   631  0FE8                     	;# 
   632  0FE9                     	;# 
   633  0FEA                     	;# 
   634  0FEB                     	;# 
   635  0FED                     	;# 
   636  0FEE                     	;# 
   637  0FEF                     	;# 
   638  0000                     	;# 
   639  0001                     	;# 
   640  0002                     	;# 
   641  0003                     	;# 
   642  0004                     	;# 
   643  0005                     	;# 
   644  0006                     	;# 
   645  0007                     	;# 
   646  0008                     	;# 
   647  0009                     	;# 
   648  000A                     	;# 
   649  000B                     	;# 
   650  000C                     	;# 
   651  000E                     	;# 
   652  0011                     	;# 
   653  0012                     	;# 
   654  0015                     	;# 
   655  0016                     	;# 
   656  0016                     	;# 
   657  0017                     	;# 
   658  0018                     	;# 
   659  0019                     	;# 
   660  001A                     	;# 
   661  001B                     	;# 
   662  001C                     	;# 
   663  008C                     	;# 
   664  008E                     	;# 
   665  0091                     	;# 
   666  0092                     	;# 
   667  0095                     	;# 
   668  0096                     	;# 
   669  0097                     	;# 
   670  0098                     	;# 
   671  0099                     	;# 
   672  009A                     	;# 
   673  010C                     	;# 
   674  010E                     	;# 
   675  0116                     	;# 
   676  0117                     	;# 
   677  011D                     	;# 
   678  018C                     	;# 
   679  018E                     	;# 
   680  0191                     	;# 
   681  0191                     	;# 
   682  0192                     	;# 
   683  0193                     	;# 
   684  0193                     	;# 
   685  0194                     	;# 
   686  0195                     	;# 
   687  0196                     	;# 
   688  0197                     	;# 
   689  0199                     	;# 
   690  019A                     	;# 
   691  019B                     	;# 
   692  019B                     	;# 
   693  019C                     	;# 
   694  019D                     	;# 
   695  019E                     	;# 
   696  019F                     	;# 
   697  020C                     	;# 
   698  0211                     	;# 
   699  0211                     	;# 
   700  0212                     	;# 
   701  0212                     	;# 
   702  0213                     	;# 
   703  0213                     	;# 
   704  0214                     	;# 
   705  0214                     	;# 
   706  0215                     	;# 
   707  0215                     	;# 
   708  0215                     	;# 
   709  0216                     	;# 
   710  0216                     	;# 
   711  0217                     	;# 
   712  0217                     	;# 
   713  0391                     	;# 
   714  0392                     	;# 
   715  0393                     	;# 
   716  039A                     	;# 
   717  039B                     	;# 
   718  0611                     	;# 
   719  0612                     	;# 
   720  0613                     	;# 
   721  0613                     	;# 
   722  0614                     	;# 
   723  0615                     	;# 
   724  0616                     	;# 
   725  0616                     	;# 
   726  0E8E                     	;# 
   727  0E8F                     	;# 
   728  0E90                     	;# 
   729  0E91                     	;# 
   730  0E92                     	;# 
   731  0E93                     	;# 
   732  0E94                     	;# 
   733  0E94                     	;# 
   734  0E95                     	;# 
   735  0E96                     	;# 
   736  0E97                     	;# 
   737  0E98                     	;# 
   738  0E99                     	;# 
   739  0E9A                     	;# 
   740  0E9B                     	;# 
   741  0E9C                     	;# 
   742  0E9D                     	;# 
   743  0E9E                     	;# 
   744  0E9F                     	;# 
   745  0FE4                     	;# 
   746  0FE5                     	;# 
   747  0FE6                     	;# 
   748  0FE7                     	;# 
   749  0FE8                     	;# 
   750  0FE9                     	;# 
   751  0FEA                     	;# 
   752  0FEB                     	;# 
   753  0FED                     	;# 
   754  0FEE                     	;# 
   755  0FEF                     	;# 
   756  0000                     	;# 
   757  0001                     	;# 
   758  0002                     	;# 
   759  0003                     	;# 
   760  0004                     	;# 
   761  0005                     	;# 
   762  0006                     	;# 
   763  0007                     	;# 
   764  0008                     	;# 
   765  0009                     	;# 
   766  000A                     	;# 
   767  000B                     	;# 
   768  000C                     	;# 
   769  000E                     	;# 
   770  0011                     	;# 
   771  0012                     	;# 
   772  0015                     	;# 
   773  0016                     	;# 
   774  0016                     	;# 
   775  0017                     	;# 
   776  0018                     	;# 
   777  0019                     	;# 
   778  001A                     	;# 
   779  001B                     	;# 
   780  001C                     	;# 
   781  008C                     	;# 
   782  008E                     	;# 
   783  0091                     	;# 
   784  0092                     	;# 
   785  0095                     	;# 
   786  0096                     	;# 
   787  0097                     	;# 
   788  0098                     	;# 
   789  0099                     	;# 
   790  009A                     	;# 
   791  010C                     	;# 
   792  010E                     	;# 
   793  0116                     	;# 
   794  0117                     	;# 
   795  011D                     	;# 
   796  018C                     	;# 
   797  018E                     	;# 
   798  0191                     	;# 
   799  0191                     	;# 
   800  0192                     	;# 
   801  0193                     	;# 
   802  0193                     	;# 
   803  0194                     	;# 
   804  0195                     	;# 
   805  0196                     	;# 
   806  0197                     	;# 
   807  0199                     	;# 
   808  019A                     	;# 
   809  019B                     	;# 
   810  019B                     	;# 
   811  019C                     	;# 
   812  019D                     	;# 
   813  019E                     	;# 
   814  019F                     	;# 
   815  020C                     	;# 
   816  0211                     	;# 
   817  0211                     	;# 
   818  0212                     	;# 
   819  0212                     	;# 
   820  0213                     	;# 
   821  0213                     	;# 
   822  0214                     	;# 
   823  0214                     	;# 
   824  0215                     	;# 
   825  0215                     	;# 
   826  0215                     	;# 
   827  0216                     	;# 
   828  0216                     	;# 
   829  0217                     	;# 
   830  0217                     	;# 
   831  0391                     	;# 
   832  0392                     	;# 
   833  0393                     	;# 
   834  039A                     	;# 
   835  039B                     	;# 
   836  0611                     	;# 
   837  0612                     	;# 
   838  0613                     	;# 
   839  0613                     	;# 
   840  0614                     	;# 
   841  0615                     	;# 
   842  0616                     	;# 
   843  0616                     	;# 
   844  0E8E                     	;# 
   845  0E8F                     	;# 
   846  0E90                     	;# 
   847  0E91                     	;# 
   848  0E92                     	;# 
   849  0E93                     	;# 
   850  0E94                     	;# 
   851  0E94                     	;# 
   852  0E95                     	;# 
   853  0E96                     	;# 
   854  0E97                     	;# 
   855  0E98                     	;# 
   856  0E99                     	;# 
   857  0E9A                     	;# 
   858  0E9B                     	;# 
   859  0E9C                     	;# 
   860  0E9D                     	;# 
   861  0E9E                     	;# 
   862  0E9F                     	;# 
   863  0FE4                     	;# 
   864  0FE5                     	;# 
   865  0FE6                     	;# 
   866  0FE7                     	;# 
   867  0FE8                     	;# 
   868  0FE9                     	;# 
   869  0FEA                     	;# 
   870  0FEB                     	;# 
   871  0FED                     	;# 
   872  0FEE                     	;# 
   873  0FEF                     	;_ep_buffers
   874                           
   875                           	psect	idataBANK1
   876  1D5B                     __pidataBANK1:	
   877                           
   878                           ;initializer for _usb_application_config_descs
   879  1D5B  3400               	retlw	low (_configuration_1| (0+32768))
   880  1D5C  3498               	retlw	high (_configuration_1| (0+32768))
   881                           
   882                           	psect	idataBANK3
   883  1D72                     __pidataBANK3:	
   884                           
   885                           ;initializer for _ep0_buf
   886  1D72  3480               	retlw	128
   887  1D73  3420               	retlw	32
   888  1D74  3488               	retlw	136
   889  1D75  3420               	retlw	32
   890  1D76  3400               	retlw	0
   891                           
   892                           	psect	idataBANK4
   893  1DF0                     __pidataBANK4:	
   894                           
   895                           ;initializer for _ep_buf
   896  1DF0  3400               	retlw	0
   897  1DF1  3400               	retlw	0
   898  1DF2  3400               	retlw	0
   899  1DF3  3400               	retlw	0
   900  1DF4  3400               	retlw	0
   901  1DF5  3400               	retlw	0
   902  1DF6  3400               	retlw	0
   903  1DF7  3490               	retlw	144
   904  1DF8  3420               	retlw	32
   905  1DF9  34D0               	retlw	208
   906  1DFA  3420               	retlw	32
   907  1DFB  3440               	retlw	64
   908  1DFC  3440               	retlw	64
   909  1DFD  3400               	retlw	0
   910                           
   911                           	psect	stringtext1
   912  1845                     __pstringtext1:	
   913  1845                     _interface_string:	
   914  1845  3418               	retlw	24
   915  1846  3403               	retlw	3
   916  1847  3449               	retlw	73
   917  1848  3400               	retlw	0
   918  1849  346E               	retlw	110
   919  184A  3400               	retlw	0
   920  184B  3474               	retlw	116
   921  184C  3400               	retlw	0
   922  184D  3465               	retlw	101
   923  184E  3400               	retlw	0
   924  184F  3472               	retlw	114
   925  1850  3400               	retlw	0
   926  1851  3466               	retlw	102
   927  1852  3400               	retlw	0
   928  1853  3461               	retlw	97
   929  1854  3400               	retlw	0
   930  1855  3463               	retlw	99
   931  1856  3400               	retlw	0
   932  1857  3465               	retlw	101
   933  1858  3400               	retlw	0
   934  1859  3420               	retlw	32
   935  185A  3400               	retlw	0
   936  185B  3431               	retlw	49
   937  185C  3400               	retlw	0
   938  185D                     __end_of_interface_string:	
   939                           
   940                           	psect	stringtext2
   941  189F                     __pstringtext2:	
   942  189F                     attribute@PRODUCT_NAME:	
   943  189F  344C               	retlw	76
   944  18A0  3475               	retlw	117
   945  18A1  346B               	retlw	107
   946  18A2  3465               	retlw	101
   947  18A3  3400               	retlw	0
   948  18A4                     __end_ofattribute@PRODUCT_NAME:	
   949  1FFC                     attribute@NVM_PRODUCT_SERIAL1_absaddr	set	8188
   950  1FF8                     attribute@NVM_PRODUCT_SERIAL0_absaddr	set	8184
   951                           
   952                           	psect	stringtext3
   953  18A9                     __pstringtext3:	
   954  18A9                     attribute@FIRM_VERSION:	
   955  18A9  3430               	retlw	48
   956  18AA  342E               	retlw	46
   957  18AB  3431               	retlw	49
   958  18AC  3400               	retlw	0
   959  18AD                     __end_ofattribute@FIRM_VERSION:	
   960  1FFC                     _NVM_PRODUCT_SERIAL1_absaddr	set	8188
   961  1FF8                     _NVM_PRODUCT_SERIAL0_absaddr	set	8184
   962  1F95                     _NVM_HIGH_VOLTAGE_OFFSET_absaddr	set	8085
   963  1F92                     _NVM_HIGH_VOLTAGE_SLOPE_absaddr	set	8082
   964  1F8F                     _NVM_LOW_VOLTAGE_OFFSET_absaddr	set	8079
   965  1F8C                     _NVM_LOW_VOLTAGE_SLOPE_absaddr	set	8076
   966  1F89                     _NVM_HIGH_CURRENT_OFFSET_absaddr	set	8073
   967  1F86                     _NVM_HIGH_CURRENT_SLOPE_absaddr	set	8070
   968  1F83                     _NVM_LOW_CURRENT_OFFSET_absaddr	set	8067
   969  1F80                     _NVM_LOW_CURRENT_SLOPE_absaddr	set	8064
   970                           
   971                           	psect	stringtext4
   972  1800                     __pstringtext4:	
   973  1800                     _configuration_1:	
   974  1800  3409               	retlw	9
   975  1801  3402               	retlw	2
   976  1802  3429               	retlw	41
   977  1803  3400               	retlw	0
   978  1804  3401               	retlw	1
   979  1805  3401               	retlw	1
   980  1806  3400               	retlw	0
   981  1807  3480               	retlw	128
   982  1808  3432               	retlw	50
   983  1809  3409               	retlw	9
   984  180A  3404               	retlw	4
   985  180B  3400               	retlw	0
   986  180C  3400               	retlw	0
   987  180D  3402               	retlw	2
   988  180E  3403               	retlw	3
   989  180F  3400               	retlw	0
   990  1810  3400               	retlw	0
   991  1811  3400               	retlw	0
   992  1812  3409               	retlw	9
   993  1813  3421               	retlw	33
   994  1814  3401               	retlw	1
   995  1815  3401               	retlw	1
   996  1816  3400               	retlw	0
   997  1817  3401               	retlw	1
   998  1818  3422               	retlw	34
   999  1819  341C               	retlw	28
  1000  181A  3400               	retlw	0
  1001  181B  3407               	retlw	7
  1002  181C  3405               	retlw	5
  1003  181D  3481               	retlw	129
  1004  181E  3403               	retlw	3
  1005  181F  3440               	retlw	64
  1006  1820  3400               	retlw	0
  1007  1821  3401               	retlw	1
  1008  1822  3407               	retlw	7
  1009  1823  3405               	retlw	5
  1010  1824  3401               	retlw	1
  1011  1825  3403               	retlw	3
  1012  1826  3440               	retlw	64
  1013  1827  3400               	retlw	0
  1014  1828  3401               	retlw	1
  1015  1829                     __end_of_configuration_1:	
  1016                           
  1017                           	psect	stringtext5
  1018  1829                     __pstringtext5:	
  1019  1829                     _custom_report_descriptor:	
  1020  1829  3406               	retlw	6
  1021  182A  3400               	retlw	0
  1022  182B  34FF               	retlw	255
  1023  182C  3409               	retlw	9
  1024  182D  3401               	retlw	1
  1025  182E  34A1               	retlw	161
  1026  182F  3401               	retlw	1
  1027  1830  3419               	retlw	25
  1028  1831  3401               	retlw	1
  1029  1832  3429               	retlw	41
  1030  1833  3440               	retlw	64
  1031  1834  3415               	retlw	21
  1032  1835  3401               	retlw	1
  1033  1836  3425               	retlw	37
  1034  1837  3440               	retlw	64
  1035  1838  3475               	retlw	117
  1036  1839  3408               	retlw	8
  1037  183A  3495               	retlw	149
  1038  183B  3440               	retlw	64
  1039  183C  3481               	retlw	129
  1040  183D  3400               	retlw	0
  1041  183E  3419               	retlw	25
  1042  183F  3401               	retlw	1
  1043  1840  3429               	retlw	41
  1044  1841  3440               	retlw	64
  1045  1842  3491               	retlw	145
  1046  1843  3400               	retlw	0
  1047  1844  34C0               	retlw	192
  1048  1845                     __end_of_custom_report_descriptor:	
  1049                           
  1050                           	psect	stringtext6
  1051  185D                     __pstringtext6:	
  1052  185D                     _product_string:	
  1053  185D  3418               	retlw	24
  1054  185E  3403               	retlw	3
  1055  185F  344C               	retlw	76
  1056  1860  3400               	retlw	0
  1057  1861  3475               	retlw	117
  1058  1862  3400               	retlw	0
  1059  1863  346B               	retlw	107
  1060  1864  3400               	retlw	0
  1061  1865  3465               	retlw	101
  1062  1866  3400               	retlw	0
  1063  1867  3400               	retlw	0
  1064  1868  3400               	retlw	0
  1065  1869  3400               	retlw	0
  1066  186A  3400               	retlw	0
  1067  186B  3400               	retlw	0
  1068  186C  3400               	retlw	0
  1069  186D  3400               	retlw	0
  1070  186E  3400               	retlw	0
  1071  186F  3400               	retlw	0
  1072  1870  3400               	retlw	0
  1073  1871  3400               	retlw	0
  1074  1872  3400               	retlw	0
  1075  1873  3400               	retlw	0
  1076  1874  3400               	retlw	0
  1077  1875                     __end_of_product_string:	
  1078                           
  1079                           	psect	stringtext7
  1080  1875                     __pstringtext7:	
  1081  1875                     _vendor_string:	
  1082  1875  3418               	retlw	24
  1083  1876  3403               	retlw	3
  1084  1877  3474               	retlw	116
  1085  1878  3400               	retlw	0
  1086  1879  346F               	retlw	111
  1087  187A  3400               	retlw	0
  1088  187B  346F               	retlw	111
  1089  187C  3400               	retlw	0
  1090  187D  346C               	retlw	108
  1091  187E  3400               	retlw	0
  1092  187F  3462               	retlw	98
  1093  1880  3400               	retlw	0
  1094  1881  3469               	retlw	105
  1095  1882  3400               	retlw	0
  1096  1883  3474               	retlw	116
  1097  1884  3400               	retlw	0
  1098  1885  342E               	retlw	46
  1099  1886  3400               	retlw	0
  1100  1887  346F               	retlw	111
  1101  1888  3400               	retlw	0
  1102  1889  3472               	retlw	114
  1103  188A  3400               	retlw	0
  1104  188B  3467               	retlw	103
  1105  188C  3400               	retlw	0
  1106  188D                     __end_of_vendor_string:	
  1107                           
  1108                           	psect	stringtext8
  1109  188D                     __pstringtext8:	
  1110  188D                     _this_device_descriptor:	
  1111  188D  3412               	retlw	18
  1112  188E  3401               	retlw	1
  1113  188F  3400               	retlw	0
  1114  1890  3402               	retlw	2
  1115  1891  3400               	retlw	0
  1116  1892  3400               	retlw	0
  1117  1893  3400               	retlw	0
  1118  1894  3408               	retlw	8
  1119  1895  34D8               	retlw	216
  1120  1896  3404               	retlw	4
  1121  1897  34C0               	retlw	192
  1122  1898  340E               	retlw	14
  1123  1899  3403               	retlw	3
  1124  189A  3400               	retlw	0
  1125  189B  3401               	retlw	1
  1126  189C  3402               	retlw	2
  1127  189D  3400               	retlw	0
  1128  189E  3401               	retlw	1
  1129  189F                     __end_of_this_device_descriptor:	
  1130                           
  1131                           	psect	stringtext9
  1132  18A4                     __pstringtext9:	
  1133  18A4                     _PRODUCT_NAME:	
  1134  18A4  344C               	retlw	76
  1135  18A5  3475               	retlw	117
  1136  18A6  346B               	retlw	107
  1137  18A7  3465               	retlw	101
  1138  18A8  3400               	retlw	0
  1139  18A9                     __end_of_PRODUCT_NAME:	
  1140                           
  1141                           	psect	stringtext10
  1142  18AD                     __pstringtext10:	
  1143  18AD                     _FIRM_VERSION:	
  1144  18AD  3430               	retlw	48
  1145  18AE  342E               	retlw	46
  1146  18AF  3431               	retlw	49
  1147  18B0  3400               	retlw	0
  1148  18B1                     __end_of_FIRM_VERSION:	
  1149                           
  1150                           	psect	stringtext11
  1151  18B1                     __pstringtext11:	
  1152  18B1                     _str00:	
  1153  18B1  3404               	retlw	4
  1154  18B2  3403               	retlw	3
  1155  18B3  3409               	retlw	9
  1156  18B4  3404               	retlw	4
  1157  18B5                     __end_of_str00:	
  1158  1FFC                     attribute@NVM_PRODUCT_SERIAL1_absaddr	set	8188
  1159                           
  1160                           	psect	attribute@NVM_PRODUCT_SERIAL1_text
  1161  18B5                     __pattribute@NVM_PRODUCT_SERIAL1_text:	
  1162  18B5                     attribute@NVM_PRODUCT_SERIAL1:	
  1163  18B5  3400               	retlw	0
  1164  18B6  3400               	retlw	0
  1165  18B7  3400               	retlw	0
  1166  18B8  3400               	retlw	0
  1167  18B9                     __end_ofattribute@NVM_PRODUCT_SERIAL1:	
  1168  1FF8                     attribute@NVM_PRODUCT_SERIAL0_absaddr	set	8184
  1169                           
  1170                           	psect	attribute@NVM_PRODUCT_SERIAL0_text
  1171  18B9                     __pattribute@NVM_PRODUCT_SERIAL0_text:	
  1172  18B9                     attribute@NVM_PRODUCT_SERIAL0:	
  1173  18B9  3401               	retlw	1
  1174  18BA  3400               	retlw	0
  1175  18BB  3400               	retlw	0
  1176  18BC  3400               	retlw	0
  1177  18BD                     __end_ofattribute@NVM_PRODUCT_SERIAL0:	
  1178  1FFC                     _NVM_PRODUCT_SERIAL1_absaddr	set	8188
  1179                           
  1180                           	psect	_NVM_PRODUCT_SERIAL1_text
  1181  1FFC                     __p_NVM_PRODUCT_SERIAL1_text:	
  1182  1FFC                     _NVM_PRODUCT_SERIAL1:	
  1183  1FFC  3400               	retlw	0
  1184  1FFD  3400               	retlw	0
  1185  1FFE  3400               	retlw	0
  1186  1FFF  3400               	retlw	0
  1187  2000                     __end_of_NVM_PRODUCT_SERIAL1:	
  1188  1FF8                     _NVM_PRODUCT_SERIAL0_absaddr	set	8184
  1189                           
  1190                           	psect	_NVM_PRODUCT_SERIAL0_text
  1191  1FF8                     __p_NVM_PRODUCT_SERIAL0_text:	
  1192  1FF8                     _NVM_PRODUCT_SERIAL0:	
  1193  1FF8  3401               	retlw	1
  1194  1FF9  3400               	retlw	0
  1195  1FFA  3400               	retlw	0
  1196  1FFB  3400               	retlw	0
  1197  1FFC                     __end_of_NVM_PRODUCT_SERIAL0:	
  1198  1F95                     _NVM_HIGH_VOLTAGE_OFFSET_absaddr	set	8085
  1199                           
  1200                           	psect	_NVM_HIGH_VOLTAGE_OFFSET_text
  1201  1F95                     __p_NVM_HIGH_VOLTAGE_OFFSET_text:	
  1202  1F95                     _NVM_HIGH_VOLTAGE_OFFSET:	
  1203  1F95  3485               	retlw	133
  1204  1F96  3479               	retlw	121
  1205  1F97  34C2               	retlw	194
  1206  1F98                     __end_of_NVM_HIGH_VOLTAGE_OFFSET:	
  1207  1F92                     _NVM_HIGH_VOLTAGE_SLOPE_absaddr	set	8082
  1208                           
  1209                           	psect	_NVM_HIGH_VOLTAGE_SLOPE_text
  1210  1F92                     __p_NVM_HIGH_VOLTAGE_SLOPE_text:	
  1211  1F92                     _NVM_HIGH_VOLTAGE_SLOPE:	
  1212  1F92  34CD               	retlw	205
  1213  1F93  349B               	retlw	155
  1214  1F94  343E               	retlw	62
  1215  1F95                     __end_of_NVM_HIGH_VOLTAGE_SLOPE:	
  1216  1F8F                     _NVM_LOW_VOLTAGE_OFFSET_absaddr	set	8079
  1217                           
  1218                           	psect	_NVM_LOW_VOLTAGE_OFFSET_text
  1219  1F8F                     __p_NVM_LOW_VOLTAGE_OFFSET_text:	
  1220  1F8F                     _NVM_LOW_VOLTAGE_OFFSET:	
  1221  1F8F  3465               	retlw	101
  1222  1F90  34C7               	retlw	199
  1223  1F91  34BC               	retlw	188
  1224  1F92                     __end_of_NVM_LOW_VOLTAGE_OFFSET:	
  1225  1F8C                     _NVM_LOW_VOLTAGE_SLOPE_absaddr	set	8076
  1226                           
  1227                           	psect	_NVM_LOW_VOLTAGE_SLOPE_text
  1228  1F8C                     __p_NVM_LOW_VOLTAGE_SLOPE_text:	
  1229  1F8C                     _NVM_LOW_VOLTAGE_SLOPE:	
  1230  1F8C  346A               	retlw	106
  1231  1F8D  34C7               	retlw	199
  1232  1F8E  34BA               	retlw	186
  1233  1F8F                     __end_of_NVM_LOW_VOLTAGE_SLOPE:	
  1234  1F89                     _NVM_HIGH_CURRENT_OFFSET_absaddr	set	8073
  1235                           
  1236                           	psect	_NVM_HIGH_CURRENT_OFFSET_text
  1237  1F89                     __p_NVM_HIGH_CURRENT_OFFSET_text:	
  1238  1F89                     _NVM_HIGH_CURRENT_OFFSET:	
  1239  1F89  3400               	retlw	0
  1240  1F8A  3400               	retlw	0
  1241  1F8B  3400               	retlw	0
  1242  1F8C                     __end_of_NVM_HIGH_CURRENT_OFFSET:	
  1243  1F86                     _NVM_HIGH_CURRENT_SLOPE_absaddr	set	8070
  1244                           
  1245                           	psect	_NVM_HIGH_CURRENT_SLOPE_text
  1246  1F86                     __p_NVM_HIGH_CURRENT_SLOPE_text:	
  1247  1F86                     _NVM_HIGH_CURRENT_SLOPE:	
  1248  1F86  3412               	retlw	18
  1249  1F87  3483               	retlw	131
  1250  1F88  343A               	retlw	58
  1251  1F89                     __end_of_NVM_HIGH_CURRENT_SLOPE:	
  1252  1F83                     _NVM_LOW_CURRENT_OFFSET_absaddr	set	8067
  1253                           
  1254                           	psect	_NVM_LOW_CURRENT_OFFSET_text
  1255  1F83                     __p_NVM_LOW_CURRENT_OFFSET_text:	
  1256  1F83                     _NVM_LOW_CURRENT_OFFSET:	
  1257  1F83  34C6               	retlw	198
  1258  1F84  3427               	retlw	39
  1259  1F85  34B8               	retlw	184
  1260  1F86                     __end_of_NVM_LOW_CURRENT_OFFSET:	
  1261  1F80                     _NVM_LOW_CURRENT_SLOPE_absaddr	set	8064
  1262                           
  1263                           	psect	_NVM_LOW_CURRENT_SLOPE_text
  1264  1F80                     __p_NVM_LOW_CURRENT_SLOPE_text:	
  1265  1F80                     _NVM_LOW_CURRENT_SLOPE:	
  1266  1F80  34C6               	retlw	198
  1267  1F81  3427               	retlw	39
  1268  1F82  3438               	retlw	56
  1269  1F83                     __end_of_NVM_LOW_CURRENT_SLOPE:	
  1270                           
  1271                           	psect	nvBANK4
  1272  0240                     __pnvBANK4:	
  1273  0240                     _highVoltageOffset:	
  1274  0240                     	ds	3
  1275  0243                     _highVoltageSlope:	
  1276  0243                     	ds	3
  1277  0246                     _lowVoltageOffset:	
  1278  0246                     	ds	3
  1279  0249                     _lowVoltageSlope:	
  1280  0249                     	ds	3
  1281  024C                     _highCurrentOffset:	
  1282  024C                     	ds	3
  1283  024F                     _highCurrentSlope:	
  1284  024F                     	ds	3
  1285  0252                     _lowCurrentOffset:	
  1286  0252                     	ds	3
  1287  0255                     _lowCurrentSlope:	
  1288  0255                     	ds	3
  1289  2080                     _ep_buffers	set	8320
  1290  000E                     _PORTC	set	14
  1291  000E                     _PORTCbits	set	14
  1292  0012                     _PIR2bits	set	18
  1293  000B                     _INTCONbits	set	11
  1294  0095                     _OPTION_REGbits	set	149
  1295  008E                     _TRISC	set	142
  1296  0099                     _OSCCONbits	set	153
  1297  0092                     _PIE2bits	set	146
  1298  010E                     _LATC	set	270
  1299  018E                     _ANSELC	set	398
  1300  020C                     _WPUA	set	524
  1301  0211                     _SSP1BUF	set	529
  1302  0214                     _SSP1STATbits	set	532
  1303  0216                     _SSP1CON2	set	534
  1304  0216                     _SSP1CON2bits	set	534
  1305  0215                     _SSP1CON1	set	533
  1306  0212                     _SSP1ADD	set	530
  1307  0214                     _SSP1STAT	set	532
  1308  039B                     _ACTCONbits	set	923
  1309  0E8F                     _USTATbits	set	3727
  1310  0E96                     _UADDR	set	3734
  1311  0E92                     _UIEbits	set	3730
  1312  0E90                     _UIR	set	3728
  1313  0E90                     _UIRbits	set	3728
  1314  0E97                     _UEIE	set	3735
  1315  0E92                     _UIE	set	3730
  1316  0E91                     _UCFGbits	set	3729
  1317  0E8E                     _UCONbits	set	3726
  1318  0E98                     _UEP0	set	3736
  1319                           
  1320                           ; #config settings
  1321  0000                     
  1322                           	psect	cinit
  1323  020C                     start_initialization:	
  1324  020C                     __initialization:	
  1325                           
  1326                           ; Initialize objects allocated to BANK1
  1327  020C  0021               	movlb	1	; select bank1
  1328  020D  319D  255B  3182   	fcall	__pidataBANK1	;fetch initializer
  1329  0210  00C1               	movwf	__pdataBANK1& (0+127)
  1330  0211  319D  255C  3182   	fcall	__pidataBANK1+1	;fetch initializer
  1331  0214  00C2               	movwf	(__pdataBANK1+1)& (0+127)
  1332                           
  1333                           ; Initialize objects allocated to BANK3
  1334  0215  3072               	movlw	low __pidataBANK3
  1335  0216  0084               	movwf	4
  1336  0217  309D               	movlw	(high __pidataBANK3)| (0+128)
  1337  0218  0085               	movwf	5
  1338  0219  30EA               	movlw	low __pdataBANK3
  1339  021A  0086               	movwf	6
  1340  021B  3001               	movlw	high __pdataBANK3
  1341  021C  0087               	movwf	7
  1342  021D  3000               	movlw	0
  1343  021E  00FF               	movwf	btemp+1
  1344  021F  3005               	movlw	5
  1345  0220  319D  25D7  3182   	fcall	init_ram
  1346                           
  1347                           ; Initialize objects allocated to BANK4
  1348  0223  30F0               	movlw	low __pidataBANK4
  1349  0224  0084               	movwf	4
  1350  0225  309D               	movlw	(high __pidataBANK4)| (0+128)
  1351  0226  0085               	movwf	5
  1352  0227  3058               	movlw	low __pdataBANK4
  1353  0228  0086               	movwf	6
  1354  0229  3002               	movlw	high __pdataBANK4
  1355  022A  0087               	movwf	7
  1356  022B  3000               	movlw	0
  1357  022C  00FF               	movwf	btemp+1
  1358  022D  300E               	movlw	14
  1359  022E  319D  25D7         	fcall	init_ram
  1360                           
  1361                           ; Clear objects allocated to BANK0
  1362  0230  0020               	movlb	0	; select bank0
  1363  0231  01EE               	clrf	__pbssBANK0& (0+127)
  1364  0232  01EF               	clrf	(__pbssBANK0+1)& (0+127)
  1365                           
  1366                           ; Clear objects allocated to BANK1
  1367  0233  0021               	movlb	1	; select bank1
  1368  0234  01B6               	clrf	__pbssBANK1& (0+127)
  1369  0235  01B7               	clrf	(__pbssBANK1+1)& (0+127)
  1370  0236  01B8               	clrf	(__pbssBANK1+2)& (0+127)
  1371  0237  01B9               	clrf	(__pbssBANK1+3)& (0+127)
  1372  0238  01BA               	clrf	(__pbssBANK1+4)& (0+127)
  1373  0239  01BB               	clrf	(__pbssBANK1+5)& (0+127)
  1374  023A  01BC               	clrf	(__pbssBANK1+6)& (0+127)
  1375  023B  01BD               	clrf	(__pbssBANK1+7)& (0+127)
  1376  023C  01BE               	clrf	(__pbssBANK1+8)& (0+127)
  1377  023D  01BF               	clrf	(__pbssBANK1+9)& (0+127)
  1378  023E  01C0               	clrf	(__pbssBANK1+10)& (0+127)
  1379                           
  1380                           ; Clear objects allocated to BANK3
  1381  023F  0023               	movlb	3	; select bank3
  1382  0240  01EF               	clrf	__pbssBANK3& (0+127)
  1383                           
  1384                           ; Clear objects allocated to BANK4
  1385  0241  0024               	movlb	4	; select bank4
  1386  0242  01E6               	clrf	__pbssBANK4& (0+127)
  1387  0243  01E7               	clrf	(__pbssBANK4+1)& (0+127)
  1388  0244  01E8               	clrf	(__pbssBANK4+2)& (0+127)
  1389  0245                     end_of_initialization:	
  1390                           ;End of C runtime variable initialization code
  1391                           
  1392  0245                     __end_of__initialization:	
  1393  0245  107E               	bcf	int$flags,0	;clear compiler interrupt flag (level 1)
  1394  0246  0020               	movlb	0
  1395  0247  3185  2D8D         	ljmp	_main	;jump to C main() function
  1396                           
  1397                           	psect	bssBANK0
  1398  006E                     __pbssBANK0:	
  1399  006E                     _ep0_data_stage_out_buffer:	
  1400  006E                     	ds	1
  1401  006F                     _g_configuration:	
  1402  006F                     	ds	1
  1403                           
  1404                           	psect	bssBANK1
  1405  00B6                     __pbssBANK1:	
  1406  00B6                     _ep0_data_stage_buf_remaining:	
  1407  00B6                     	ds	2
  1408  00B8                     _ep0_data_stage_in_buffer:	
  1409  00B8                     	ds	2
  1410  00BA                     _ep0_data_stage_callback:	
  1411  00BA                     	ds	2
  1412  00BC                     _ep0_data_stage_direc:	
  1413  00BC                     	ds	1
  1414  00BD                     _ep0_data_stage_context:	
  1415  00BD                     	ds	1
  1416  00BE                     _returning_short:	
  1417  00BE                     	ds	1
  1418  00BF                     _control_need_zlp:	
  1419  00BF                     	ds	1
  1420  00C0                     _addr:	
  1421  00C0                     	ds	1
  1422                           
  1423                           	psect	dataBANK1
  1424  00C1                     __pdataBANK1:	
  1425  00C1                     _usb_application_config_descs:	
  1426  00C1                     	ds	2
  1427                           
  1428                           	psect	bssBANK3
  1429  01EF                     __pbssBANK3:	
  1430  01EF                     _addr_pending:	
  1431  01EF                     	ds	1
  1432                           
  1433                           	psect	dataBANK3
  1434  01EA                     __pdataBANK3:	
  1435  01EA                     _ep0_buf:	
  1436  01EA                     	ds	5
  1437                           
  1438                           	psect	bssBANK4
  1439  0266                     __pbssBANK4:	
  1440  0266                     _report_buf:	
  1441  0266                     	ds	3
  1442                           
  1443                           	psect	dataBANK4
  1444  0258                     __pdataBANK4:	
  1445  0258                     _ep_buf:	
  1446  0258                     	ds	14
  1447                           
  1448                           	psect	inittext
  1449  1DD7                     init_ram:	
  1450  1DD7  00FE               	movwf	126
  1451  1DD8                     initloop:	
  1452  1DD8  0012               	moviw fsr0++
  1453  1DD9  001E               	movwi fsr1++
  1454  1DDA  3001               	movlw	1
  1455  1DDB  02FE               	subwf	126,f
  1456  1DDC  3000               	movlw	0
  1457  1DDD  3BFF               	subwfb	127,f
  1458  1DDE  087F               	movf	127,w
  1459  1DDF  047E               	iorwf	126,w
  1460  1DE0  1903               	btfsc	3,2
  1461  1DE1  3400               	retlw	0
  1462  1DE2  2DD8               	goto	initloop
  1463                           
  1464                           	psect	cstackBANK4
  1465  0220                     __pcstackBANK4:	
  1466  0220                     ___ftadd@sign:	
  1467                           
  1468                           ; 1 bytes @ 0x0
  1469  0220                     	ds	1
  1470  0221                     ___ftadd@exp2:	
  1471                           
  1472                           ; 1 bytes @ 0x1
  1473  0221                     	ds	1
  1474  0222                     ___ftadd@exp1:	
  1475                           
  1476                           ; 1 bytes @ 0x2
  1477  0222                     	ds	1
  1478  0223                     ?_get_voltage:	
  1479  0223                     ?_get_current:	
  1480                           ; 3 bytes @ 0x3
  1481                           
  1482                           
  1483                           ; 3 bytes @ 0x3
  1484  0223                     	ds	3
  1485  0226                     get_voltage@val:	
  1486  0226                     get_current@val:	
  1487                           ; 2 bytes @ 0x6
  1488                           
  1489                           
  1490                           ; 2 bytes @ 0x6
  1491  0226                     	ds	2
  1492  0228                     ??_main:	
  1493                           
  1494                           ; 1 bytes @ 0x8
  1495  0228                     	ds	5
  1496  022D                     main@volt:	
  1497                           
  1498                           ; 3 bytes @ 0xD
  1499  022D                     	ds	3
  1500  0230                     main@curr:	
  1501                           
  1502                           ; 3 bytes @ 0x10
  1503  0230                     	ds	3
  1504  0233                     main@pcktVer:	
  1505                           
  1506                           ; 1 bytes @ 0x13
  1507  0233                     	ds	1
  1508  0234                     main@pcktLen:	
  1509                           
  1510                           ; 1 bytes @ 0x14
  1511  0234                     	ds	1
  1512  0235                     main@id:	
  1513                           
  1514                           ; 2 bytes @ 0x15
  1515  0235                     	ds	2
  1516  0237                     main@opcode:	
  1517                           
  1518                           ; 1 bytes @ 0x17
  1519  0237                     	ds	1
  1520  0238                     main@dat:	
  1521                           
  1522                           ; 2 bytes @ 0x18
  1523  0238                     	ds	2
  1524  023A                     main@regAddr:	
  1525                           
  1526                           ; 1 bytes @ 0x1A
  1527  023A                     	ds	1
  1528  023B                     main@len:	
  1529                           
  1530                           ; 1 bytes @ 0x1B
  1531  023B                     	ds	1
  1532  023C                     main@RxDataBuffer:	
  1533                           
  1534                           ; 2 bytes @ 0x1C
  1535  023C                     	ds	2
  1536  023E                     main@TxDataBuffer:	
  1537                           
  1538                           ; 2 bytes @ 0x1E
  1539  023E                     	ds	2
  1540                           
  1541                           	psect	cstackBANK3
  1542  01C0                     __pcstackBANK3:	
  1543  01C0                     ??_usb_in_endpoint_halted:	
  1544  01C0                     ??_usb_get_in_buffer:	
  1545                           ; 1 bytes @ 0x0
  1546                           
  1547  01C0                     ??_pic16_linear_addr:	
  1548                           ; 1 bytes @ 0x0
  1549                           
  1550  01C0                     ??_usb_get_out_buffer:	
  1551                           ; 1 bytes @ 0x0
  1552                           
  1553  01C0                     ??_usb_arm_out_endpoint:	
  1554                           ; 1 bytes @ 0x0
  1555                           
  1556  01C0                     i2c_reg_read@regAddr:	
  1557                           ; 1 bytes @ 0x0
  1558                           
  1559                           
  1560                           ; 1 bytes @ 0x0
  1561  01C0                     	ds	1
  1562  01C1                     i2c_reg_read@dat:	
  1563                           
  1564                           ; 2 bytes @ 0x1
  1565  01C1                     	ds	2
  1566  01C3                     ?_get_shunt_voltage:	
  1567                           
  1568                           ; 2 bytes @ 0x3
  1569  01C3                     	ds	1
  1570  01C4                     ??_usb_send_in_buffer:	
  1571                           
  1572                           ; 1 bytes @ 0x4
  1573  01C4                     	ds	1
  1574  01C5                     ??_get_shunt_voltage:	
  1575                           
  1576                           ; 1 bytes @ 0x5
  1577  01C5                     	ds	2
  1578  01C7                     get_shunt_voltage@regAddr:	
  1579                           
  1580                           ; 1 bytes @ 0x7
  1581  01C7                     	ds	1
  1582  01C8                     get_shunt_voltage@vshunt:	
  1583                           
  1584                           ; 2 bytes @ 0x8
  1585  01C8                     	ds	1
  1586  01C9                     usb_send_in_buffer@pid:	
  1587                           
  1588                           ; 1 bytes @ 0x9
  1589  01C9                     	ds	1
  1590  01CA                     ?___awtoft:	
  1591  01CA                     usb_send_in_buffer@endpoint:	
  1592                           ; 3 bytes @ 0xA
  1593                           
  1594  01CA                     ___awtoft@c:	
  1595                           ; 1 bytes @ 0xA
  1596                           
  1597                           
  1598                           ; 2 bytes @ 0xA
  1599  01CA                     	ds	1
  1600  01CB                     usb_send_in_buffer@bd:	
  1601                           
  1602                           ; 1 bytes @ 0xB
  1603  01CB                     	ds	1
  1604  01CC                     pic16_linear_addr@high:	
  1605                           
  1606                           ; 1 bytes @ 0xC
  1607  01CC                     	ds	1
  1608  01CD                     ??___awtoft:	
  1609  01CD                     pic16_linear_addr@low:	
  1610                           ; 1 bytes @ 0xD
  1611                           
  1612                           
  1613                           ; 1 bytes @ 0xD
  1614  01CD                     	ds	1
  1615  01CE                     pic16_linear_addr@addr:	
  1616                           
  1617                           ; 2 bytes @ 0xE
  1618  01CE                     	ds	1
  1619  01CF                     ?___ftmul:	
  1620  01CF                     ___ftmul@f1:	
  1621                           ; 3 bytes @ 0xF
  1622                           
  1623                           
  1624                           ; 3 bytes @ 0xF
  1625  01CF                     	ds	1
  1626  01D0                     ??_init_endpoints:	
  1627                           
  1628                           ; 1 bytes @ 0x10
  1629  01D0                     	ds	2
  1630  01D2                     ___ftmul@f2:	
  1631                           
  1632                           ; 3 bytes @ 0x12
  1633  01D2                     	ds	3
  1634  01D5                     ??___ftmul:	
  1635                           
  1636                           ; 1 bytes @ 0x15
  1637  01D5                     	ds	1
  1638  01D6                     _init_endpoints$2053:	
  1639                           
  1640                           ; 2 bytes @ 0x16
  1641  01D6                     	ds	2
  1642  01D8                     init_endpoints@i:	
  1643                           
  1644                           ; 1 bytes @ 0x18
  1645  01D8                     	ds	1
  1646  01D9                     ??_usb_init:	
  1647  01D9                     ___ftmul@exp:	
  1648                           ; 1 bytes @ 0x19
  1649                           
  1650                           
  1651                           ; 1 bytes @ 0x19
  1652  01D9                     	ds	1
  1653  01DA                     ___ftmul@f3_as_product:	
  1654                           
  1655                           ; 3 bytes @ 0x1A
  1656  01DA                     	ds	1
  1657  01DB                     usb_init@i:	
  1658                           
  1659                           ; 1 bytes @ 0x1B
  1660  01DB                     	ds	1
  1661  01DC                     usb_init@ep:	
  1662                           
  1663                           ; 2 bytes @ 0x1C
  1664  01DC                     	ds	1
  1665  01DD                     ___ftmul@cntr:	
  1666                           
  1667                           ; 1 bytes @ 0x1D
  1668  01DD                     	ds	1
  1669  01DE                     ___ftmul@sign:	
  1670                           
  1671                           ; 1 bytes @ 0x1E
  1672  01DE                     	ds	1
  1673  01DF                     ?___ftadd:	
  1674  01DF                     ___ftadd@f1:	
  1675                           ; 3 bytes @ 0x1F
  1676                           
  1677                           
  1678                           ; 3 bytes @ 0x1F
  1679  01DF                     	ds	3
  1680  01E2                     ___ftadd@f2:	
  1681                           
  1682                           ; 3 bytes @ 0x22
  1683  01E2                     	ds	3
  1684  01E5                     ??___ftadd:	
  1685                           
  1686                           ; 1 bytes @ 0x25
  1687  01E5                     	ds	4
  1688  01E9                     ??_get_voltage:	
  1689  01E9                     ??_get_current:	
  1690                           ; 1 bytes @ 0x29
  1691                           
  1692                           
  1693                           ; 1 bytes @ 0x29
  1694  01E9                     	ds	1
  1695                           
  1696                           	psect	cstackBANK1
  1697  00A0                     __pcstackBANK1:	
  1698  00A0                     handle_ep0_setup@res:	
  1699                           
  1700                           ; 1 bytes @ 0x0
  1701  00A0                     	ds	1
  1702  00A1                     handle_ep0_setup@setup:	
  1703                           
  1704                           ; 2 bytes @ 0x1
  1705  00A1                     	ds	2
  1706  00A3                     ??_usb_service:	
  1707                           
  1708                           ; 1 bytes @ 0x3
  1709  00A3                     	ds	3
  1710  00A6                     ?_usb_get_in_buffer:	
  1711                           
  1712                           ; 2 bytes @ 0x6
  1713  00A6                     	ds	2
  1714  00A8                     usb_service@ep:	
  1715                           
  1716                           ; 2 bytes @ 0x8
  1717  00A8                     	ds	2
  1718  00AA                     usb_service@i:	
  1719                           
  1720                           ; 2 bytes @ 0xA
  1721  00AA                     	ds	2
  1722  00AC                     usb_service@pid:	
  1723                           
  1724                           ; 1 bytes @ 0xC
  1725  00AC                     	ds	1
  1726  00AD                     ??_i2c_wait:	
  1727  00AD                     ??_i2c_enable:	
  1728                           ; 1 bytes @ 0xD
  1729                           
  1730  00AD                     ??_i2c_start:	
  1731                           ; 1 bytes @ 0xD
  1732                           
  1733  00AD                     ??_i2c_repeat_start:	
  1734                           ; 1 bytes @ 0xD
  1735                           
  1736  00AD                     ??_i2c_stop:	
  1737                           ; 1 bytes @ 0xD
  1738                           
  1739  00AD                     ??_i2c_send_byte:	
  1740                           ; 1 bytes @ 0xD
  1741                           
  1742  00AD                     ??_i2c_read_byte:	
  1743                           ; 1 bytes @ 0xD
  1744                           
  1745  00AD                     ??_reset_ep0_data_stage:	
  1746                           ; 1 bytes @ 0xD
  1747                           
  1748  00AD                     ??_usb_get_configuration:	
  1749                           ; 1 bytes @ 0xD
  1750                           
  1751  00AD                     ??_usb_in_endpoint_busy:	
  1752                           ; 1 bytes @ 0xD
  1753                           
  1754  00AD                     ??_usb_out_endpoint_has_data:	
  1755                           ; 1 bytes @ 0xD
  1756                           
  1757  00AD                     ??_hardware_init:	
  1758                           ; 1 bytes @ 0xD
  1759                           
  1760  00AD                     ?_memset:	
  1761                           ; 1 bytes @ 0xD
  1762                           
  1763  00AD                     ?_strlen:	
  1764                           ; 2 bytes @ 0xD
  1765                           
  1766  00AD                     ?___wmul:	
  1767                           ; 2 bytes @ 0xD
  1768                           
  1769  00AD                     ?___ftpack:	
  1770                           ; 2 bytes @ 0xD
  1771                           
  1772  00AD                     i2c_send_byte@data:	
  1773                           ; 3 bytes @ 0xD
  1774                           
  1775  00AD                     ___wmul@multiplier:	
  1776                           ; 1 bytes @ 0xD
  1777                           
  1778  00AD                     memset@p1:	
  1779                           ; 2 bytes @ 0xD
  1780                           
  1781  00AD                     strlen@s:	
  1782                           ; 2 bytes @ 0xD
  1783                           
  1784  00AD                     ___ftpack@arg:	
  1785                           ; 2 bytes @ 0xD
  1786                           
  1787                           
  1788                           ; 3 bytes @ 0xD
  1789  00AD                     	ds	1
  1790  00AE                     ?_i2c_reg_write:	
  1791  00AE                     i2c_read_byte@ack:	
  1792                           ; 1 bytes @ 0xE
  1793                           
  1794  00AE                     usb_in_endpoint_busy@endpoint:	
  1795                           ; 1 bytes @ 0xE
  1796                           
  1797  00AE                     usb_out_endpoint_has_data@endpoint:	
  1798                           ; 1 bytes @ 0xE
  1799                           
  1800  00AE                     i2c_reg_write@dat0:	
  1801                           ; 1 bytes @ 0xE
  1802                           
  1803                           
  1804                           ; 1 bytes @ 0xE
  1805  00AE                     	ds	1
  1806  00AF                     ??_strlen:	
  1807  00AF                     i2c_read_byte@data:	
  1808                           ; 1 bytes @ 0xF
  1809                           
  1810  00AF                     i2c_reg_write@dat1:	
  1811                           ; 1 bytes @ 0xF
  1812                           
  1813  00AF                     ___wmul@multiplicand:	
  1814                           ; 1 bytes @ 0xF
  1815                           
  1816  00AF                     memset@c:	
  1817                           ; 2 bytes @ 0xF
  1818                           
  1819                           
  1820                           ; 2 bytes @ 0xF
  1821  00AF                     	ds	1
  1822  00B0                     ??_i2c_reg_write:	
  1823  00B0                     ?_i2c_reg_read:	
  1824                           ; 1 bytes @ 0x10
  1825                           
  1826  00B0                     i2c_reg_write@regAddr:	
  1827                           ; 2 bytes @ 0x10
  1828                           
  1829  00B0                     ___ftpack@exp:	
  1830                           ; 1 bytes @ 0x10
  1831                           
  1832  00B0                     strlen@cp:	
  1833                           ; 1 bytes @ 0x10
  1834                           
  1835                           
  1836                           ; 2 bytes @ 0x10
  1837  00B0                     	ds	1
  1838  00B1                     ??_set_autorange_threshould:	
  1839  00B1                     ??___wmul:	
  1840                           ; 1 bytes @ 0x11
  1841                           
  1842  00B1                     ___ftpack@sign:	
  1843                           ; 1 bytes @ 0x11
  1844                           
  1845  00B1                     ___wmul@product:	
  1846                           ; 1 bytes @ 0x11
  1847                           
  1848  00B1                     memset@n:	
  1849                           ; 2 bytes @ 0x11
  1850                           
  1851                           
  1852                           ; 2 bytes @ 0x11
  1853  00B1                     	ds	1
  1854  00B2                     ??_i2c_reg_read:	
  1855  00B2                     ??___ftpack:	
  1856                           ; 1 bytes @ 0x12
  1857                           
  1858                           
  1859                           ; 1 bytes @ 0x12
  1860  00B2                     	ds	1
  1861  00B3                     ??_memset:	
  1862  00B3                     ??_dmm_init:	
  1863                           ; 1 bytes @ 0x13
  1864                           
  1865  00B3                     ?_usb_get_out_buffer:	
  1866                           ; 1 bytes @ 0x13
  1867                           
  1868  00B3                     ?_pic16_linear_addr:	
  1869                           ; 1 bytes @ 0x13
  1870                           
  1871  00B3                     usb_get_in_buffer@endpoint:	
  1872                           ; 2 bytes @ 0x13
  1873                           
  1874  00B3                     usb_in_endpoint_halted@endpoint:	
  1875                           ; 1 bytes @ 0x13
  1876                           
  1877  00B3                     usb_get_out_buffer@buf:	
  1878                           ; 1 bytes @ 0x13
  1879                           
  1880  00B3                     usb_arm_out_endpoint@pid:	
  1881                           ; 1 bytes @ 0x13
  1882                           
  1883  00B3                     pic16_linear_addr@ptr:	
  1884                           ; 1 bytes @ 0x13
  1885                           
  1886  00B3                     memset@p:	
  1887                           ; 2 bytes @ 0x13
  1888                           
  1889                           
  1890                           ; 2 bytes @ 0x13
  1891  00B3                     	ds	1
  1892  00B4                     ?_usb_send_in_buffer:	
  1893  00B4                     usb_get_out_buffer@endpoint:	
  1894                           ; 1 bytes @ 0x14
  1895                           
  1896  00B4                     usb_arm_out_endpoint@endpoint:	
  1897                           ; 1 bytes @ 0x14
  1898                           
  1899  00B4                     usb_send_in_buffer@len:	
  1900                           ; 1 bytes @ 0x14
  1901                           
  1902                           
  1903                           ; 2 bytes @ 0x14
  1904  00B4                     	ds	1
  1905  00B5                     ___awtoft@sign:	
  1906                           
  1907                           ; 1 bytes @ 0x15
  1908  00B5                     	ds	1
  1909                           
  1910                           	psect	cstackCOMMON
  1911  0070                     __pcstackCOMMON:	
  1912  0070                     ?_i2c_wait:	
  1913  0070                     ?_usb_in_endpoint_halted:	
  1914                           ; 1 bytes @ 0x0
  1915                           
  1916  0070                     ?_app_set_configuration_callback:	
  1917                           ; 1 bytes @ 0x0
  1918                           
  1919  0070                     ??_app_set_configuration_callback:	
  1920                           ; 1 bytes @ 0x0
  1921                           
  1922  0070                     ?_app_set_interface_callback:	
  1923                           ; 1 bytes @ 0x0
  1924                           
  1925  0070                     ?_app_get_interface_callback:	
  1926                           ; 1 bytes @ 0x0
  1927                           
  1928  0070                     ??_app_get_interface_callback:	
  1929                           ; 1 bytes @ 0x0
  1930                           
  1931  0070                     ?_usb_halt_ep_in:	
  1932                           ; 1 bytes @ 0x0
  1933                           
  1934  0070                     ?_usb_halt_ep_out:	
  1935                           ; 1 bytes @ 0x0
  1936                           
  1937  0070                     ?_app_endpoint_halt_callback:	
  1938                           ; 1 bytes @ 0x0
  1939                           
  1940  0070                     ?_app_usb_reset_callback:	
  1941                           ; 1 bytes @ 0x0
  1942                           
  1943  0070                     ??_app_usb_reset_callback:	
  1944                           ; 1 bytes @ 0x0
  1945                           
  1946  0070                     ?_app_in_transaction_complete_callback:	
  1947                           ; 1 bytes @ 0x0
  1948                           
  1949  0070                     ??_app_in_transaction_complete_callback:	
  1950                           ; 1 bytes @ 0x0
  1951                           
  1952  0070                     ?_app_out_transaction_callback:	
  1953                           ; 1 bytes @ 0x0
  1954                           
  1955  0070                     ??_app_out_transaction_callback:	
  1956                           ; 1 bytes @ 0x0
  1957                           
  1958  0070                     ?_app_start_of_frame_callback:	
  1959                           ; 1 bytes @ 0x0
  1960                           
  1961  0070                     ??_app_start_of_frame_callback:	
  1962                           ; 1 bytes @ 0x0
  1963                           
  1964  0070                     ?_app_set_report_callback:	
  1965                           ; 1 bytes @ 0x0
  1966                           
  1967  0070                     ?_app_get_idle_callback:	
  1968                           ; 1 bytes @ 0x0
  1969                           
  1970  0070                     ?_app_set_idle_callback:	
  1971                           ; 1 bytes @ 0x0
  1972                           
  1973  0070                     ?_app_get_protocol_callback:	
  1974                           ; 1 bytes @ 0x0
  1975                           
  1976  0070                     ??_app_get_protocol_callback:	
  1977                           ; 1 bytes @ 0x0
  1978                           
  1979  0070                     ?_app_set_protocol_callback:	
  1980                           ; 1 bytes @ 0x0
  1981                           
  1982  0070                     ?_dmm_init:	
  1983                           ; 1 bytes @ 0x0
  1984                           
  1985  0070                     ?_set_autorange_threshould:	
  1986                           ; 1 bytes @ 0x0
  1987                           
  1988  0070                     ?_i2c_enable:	
  1989                           ; 1 bytes @ 0x0
  1990                           
  1991  0070                     ?_i2c_start:	
  1992                           ; 1 bytes @ 0x0
  1993                           
  1994  0070                     ?_i2c_repeat_start:	
  1995                           ; 1 bytes @ 0x0
  1996                           
  1997  0070                     ?_i2c_stop:	
  1998                           ; 1 bytes @ 0x0
  1999                           
  2000  0070                     ?_i2c_send_byte:	
  2001                           ; 1 bytes @ 0x0
  2002                           
  2003  0070                     ?_i2c_read_byte:	
  2004                           ; 1 bytes @ 0x0
  2005                           
  2006  0070                     ?_reset_ep0_data_stage:	
  2007                           ; 1 bytes @ 0x0
  2008                           
  2009  0070                     ?_init_endpoints:	
  2010                           ; 1 bytes @ 0x0
  2011                           
  2012  0070                     ?_usb_init:	
  2013                           ; 1 bytes @ 0x0
  2014                           
  2015  0070                     ?_reset_bd0_out:	
  2016                           ; 1 bytes @ 0x0
  2017                           
  2018  0070                     ??_reset_bd0_out:	
  2019                           ; 1 bytes @ 0x0
  2020                           
  2021  0070                     ?_stall_ep0:	
  2022                           ; 1 bytes @ 0x0
  2023                           
  2024  0070                     ??_stall_ep0:	
  2025                           ; 1 bytes @ 0x0
  2026                           
  2027  0070                     ?_clear_ep0_stall:	
  2028                           ; 1 bytes @ 0x0
  2029                           
  2030  0070                     ??_clear_ep0_stall:	
  2031                           ; 1 bytes @ 0x0
  2032                           
  2033  0070                     ?_stall_ep_in:	
  2034                           ; 1 bytes @ 0x0
  2035                           
  2036  0070                     ?_stall_ep_out:	
  2037                           ; 1 bytes @ 0x0
  2038                           
  2039  0070                     ??_stall_ep_out:	
  2040                           ; 1 bytes @ 0x0
  2041                           
  2042  0070                     ?_send_zero_length_packet_ep0:	
  2043                           ; 1 bytes @ 0x0
  2044                           
  2045  0070                     ??_send_zero_length_packet_ep0:	
  2046                           ; 1 bytes @ 0x0
  2047                           
  2048  0070                     ?_handle_standard_control_request:	
  2049                           ; 1 bytes @ 0x0
  2050                           
  2051  0070                     ?_handle_ep0_setup:	
  2052                           ; 1 bytes @ 0x0
  2053                           
  2054  0070                     ?_handle_ep0_out:	
  2055                           ; 1 bytes @ 0x0
  2056                           
  2057  0070                     ?_handle_ep0_in:	
  2058                           ; 1 bytes @ 0x0
  2059                           
  2060  0070                     ?_usb_service:	
  2061                           ; 1 bytes @ 0x0
  2062                           
  2063  0070                     ?_usb_get_configuration:	
  2064                           ; 1 bytes @ 0x0
  2065                           
  2066  0070                     ?_usb_in_endpoint_busy:	
  2067                           ; 1 bytes @ 0x0
  2068                           
  2069  0070                     ?_usb_out_endpoint_has_data:	
  2070                           ; 1 bytes @ 0x0
  2071                           
  2072  0070                     ?_usb_arm_out_endpoint:	
  2073                           ; 1 bytes @ 0x0
  2074                           
  2075  0070                     ?_hardware_init:	
  2076                           ; 1 bytes @ 0x0
  2077                           
  2078  0070                     ?_get_report_callback:	
  2079                           ; 1 bytes @ 0x0
  2080                           
  2081  0070                     ?_isr:	
  2082                           ; 1 bytes @ 0x0
  2083                           
  2084  0070                     ?i1_reset_ep0_data_stage:	
  2085                           ; 1 bytes @ 0x0
  2086                           
  2087  0070                     ??i1_reset_ep0_data_stage:	
  2088                           ; 1 bytes @ 0x0
  2089                           
  2090  0070                     ?i1_init_endpoints:	
  2091                           ; 1 bytes @ 0x0
  2092                           
  2093  0070                     ?i1_usb_init:	
  2094                           ; 1 bytes @ 0x0
  2095                           
  2096  0070                     ?i1_usb_in_endpoint_halted:	
  2097                           ; 1 bytes @ 0x0
  2098                           
  2099  0070                     ?_usb_application_get_string:	
  2100                           ; 1 bytes @ 0x0
  2101                           
  2102  0070                     ?_app_unknown_get_descriptor_callback:	
  2103                           ; 2 bytes @ 0x0
  2104                           
  2105  0070                     ?_app_get_device_status_callback:	
  2106                           ; 2 bytes @ 0x0
  2107                           
  2108  0070                     ?_usb_application_get_hid_descriptor:	
  2109                           ; 2 bytes @ 0x0
  2110                           
  2111  0070                     ?_usb_application_get_hid_report_descriptor:	
  2112                           ; 2 bytes @ 0x0
  2113                           
  2114  0070                     ?_app_get_report_callback:	
  2115                           ; 2 bytes @ 0x0
  2116                           
  2117  0070                     ?_main:	
  2118                           ; 2 bytes @ 0x0
  2119                           
  2120  0070                     ?i1___wmul:	
  2121                           ; 2 bytes @ 0x0
  2122                           
  2123  0070                     ?i1_memset:	
  2124                           ; 2 bytes @ 0x0
  2125                           
  2126  0070                     usb_application_get_string@ptr:	
  2127                           ; 2 bytes @ 0x0
  2128                           
  2129  0070                     usb_application_get_hid_descriptor@interface:	
  2130                           ; 1 bytes @ 0x0
  2131                           
  2132  0070                     usb_application_get_hid_descriptor@ptr:	
  2133                           ; 1 bytes @ 0x0
  2134                           
  2135  0070                     usb_application_get_hid_report_descriptor@interface:	
  2136                           ; 1 bytes @ 0x0
  2137                           
  2138  0070                     usb_application_get_hid_report_descriptor@ptr:	
  2139                           ; 1 bytes @ 0x0
  2140                           
  2141  0070                     app_set_configuration_callback@configuration:	
  2142                           ; 1 bytes @ 0x0
  2143                           
  2144  0070                     app_endpoint_halt_callback@endpoint:	
  2145                           ; 1 bytes @ 0x0
  2146                           
  2147  0070                     app_endpoint_halt_callback@halted:	
  2148                           ; 1 bytes @ 0x0
  2149                           
  2150  0070                     app_set_interface_callback@interface:	
  2151                           ; 1 bytes @ 0x0
  2152                           
  2153  0070                     app_set_interface_callback@alt_setting:	
  2154                           ; 1 bytes @ 0x0
  2155                           
  2156  0070                     app_get_interface_callback@interface:	
  2157                           ; 1 bytes @ 0x0
  2158                           
  2159  0070                     app_out_transaction_callback@endpoint:	
  2160                           ; 1 bytes @ 0x0
  2161                           
  2162  0070                     app_in_transaction_complete_callback@endpoint:	
  2163                           ; 1 bytes @ 0x0
  2164                           
  2165  0070                     get_report_callback@transfer_ok:	
  2166                           ; 1 bytes @ 0x0
  2167                           
  2168  0070                     app_get_report_callback@interface:	
  2169                           ; 1 bytes @ 0x0
  2170                           
  2171  0070                     app_get_report_callback@report_type:	
  2172                           ; 1 bytes @ 0x0
  2173                           
  2174  0070                     app_set_report_callback@interface:	
  2175                           ; 1 bytes @ 0x0
  2176                           
  2177  0070                     app_set_report_callback@report_type:	
  2178                           ; 1 bytes @ 0x0
  2179                           
  2180  0070                     app_get_idle_callback@interface:	
  2181                           ; 1 bytes @ 0x0
  2182                           
  2183  0070                     app_get_idle_callback@report_id:	
  2184                           ; 1 bytes @ 0x0
  2185                           
  2186  0070                     app_set_idle_callback@interface:	
  2187                           ; 1 bytes @ 0x0
  2188                           
  2189  0070                     app_set_idle_callback@report_id:	
  2190                           ; 1 bytes @ 0x0
  2191                           
  2192  0070                     app_get_protocol_callback@interface:	
  2193                           ; 1 bytes @ 0x0
  2194                           
  2195  0070                     app_set_protocol_callback@interface:	
  2196                           ; 1 bytes @ 0x0
  2197                           
  2198  0070                     app_set_protocol_callback@report_id:	
  2199                           ; 1 bytes @ 0x0
  2200                           
  2201  0070                     app_unknown_get_descriptor_callback@pkt:	
  2202                           ; 1 bytes @ 0x0
  2203                           
  2204  0070                     i1___wmul@multiplier:	
  2205                           ; 2 bytes @ 0x0
  2206                           
  2207  0070                     i1memset@p1:	
  2208                           ; 2 bytes @ 0x0
  2209                           
  2210                           
  2211                           ; 2 bytes @ 0x0
  2212  0070                     	ds	1
  2213  0071                     ??_app_set_interface_callback:	
  2214  0071                     ??_app_endpoint_halt_callback:	
  2215                           ; 1 bytes @ 0x1
  2216                           
  2217  0071                     ??_app_get_idle_callback:	
  2218                           ; 1 bytes @ 0x1
  2219                           
  2220  0071                     ??_app_set_protocol_callback:	
  2221                           ; 1 bytes @ 0x1
  2222                           
  2223  0071                     get_report_callback@context:	
  2224                           ; 1 bytes @ 0x1
  2225                           
  2226  0071                     app_get_report_callback@report_id:	
  2227                           ; 1 bytes @ 0x1
  2228                           
  2229  0071                     app_set_report_callback@report_id:	
  2230                           ; 1 bytes @ 0x1
  2231                           
  2232  0071                     app_set_idle_callback@idle_rate:	
  2233                           ; 1 bytes @ 0x1
  2234                           
  2235                           
  2236                           ; 1 bytes @ 0x1
  2237  0071                     	ds	1
  2238  0072                     ??_app_get_device_status_callback:	
  2239  0072                     ??_app_set_report_callback:	
  2240                           ; 1 bytes @ 0x2
  2241                           
  2242  0072                     ??_app_set_idle_callback:	
  2243                           ; 1 bytes @ 0x2
  2244                           
  2245  0072                     ??_handle_ep0_out:	
  2246                           ; 1 bytes @ 0x2
  2247                           
  2248  0072                     ??_get_report_callback:	
  2249                           ; 1 bytes @ 0x2
  2250                           
  2251  0072                     stall_ep_out@ep:	
  2252                           ; 1 bytes @ 0x2
  2253                           
  2254  0072                     app_unknown_get_descriptor_callback@descriptor:	
  2255                           ; 1 bytes @ 0x2
  2256                           
  2257  0072                     app_get_report_callback@report:	
  2258                           ; 1 bytes @ 0x2
  2259                           
  2260  0072                     i1___wmul@multiplicand:	
  2261                           ; 1 bytes @ 0x2
  2262                           
  2263  0072                     i1memset@c:	
  2264                           ; 2 bytes @ 0x2
  2265                           
  2266                           
  2267                           ; 2 bytes @ 0x2
  2268  0072                     	ds	1
  2269  0073                     ??_usb_application_get_string:	
  2270  0073                     ??_app_unknown_get_descriptor_callback:	
  2271                           ; 1 bytes @ 0x3
  2272                           
  2273  0073                     ??_usb_application_get_hid_descriptor:	
  2274                           ; 1 bytes @ 0x3
  2275                           
  2276  0073                     ??_usb_application_get_hid_report_descriptor:	
  2277                           ; 1 bytes @ 0x3
  2278                           
  2279  0073                     usb_application_get_string@string_number:	
  2280                           ; 1 bytes @ 0x3
  2281                           
  2282  0073                     app_get_report_callback@callback:	
  2283                           ; 1 bytes @ 0x3
  2284                           
  2285  0073                     usb_application_get_hid_descriptor@p:	
  2286                           ; 1 bytes @ 0x3
  2287                           
  2288                           
  2289                           ; 2 bytes @ 0x3
  2290  0073                     	ds	1
  2291  0074                     ??i1___wmul:	
  2292  0074                     app_get_report_callback@context:	
  2293                           ; 1 bytes @ 0x4
  2294                           
  2295  0074                     _handle_ep0_out$808:	
  2296                           ; 1 bytes @ 0x4
  2297                           
  2298  0074                     i1___wmul@product:	
  2299                           ; 2 bytes @ 0x4
  2300                           
  2301  0074                     i1memset@n:	
  2302                           ; 2 bytes @ 0x4
  2303                           
  2304                           
  2305                           ; 2 bytes @ 0x4
  2306  0074                     	ds	1
  2307  0075                     ??_app_get_report_callback:	
  2308                           
  2309                           ; 1 bytes @ 0x5
  2310  0075                     	ds	1
  2311  0076                     ??_usb_halt_ep_out:	
  2312  0076                     ??_stall_ep_in:	
  2313                           ; 1 bytes @ 0x6
  2314                           
  2315  0076                     ??i1_usb_in_endpoint_halted:	
  2316                           ; 1 bytes @ 0x6
  2317                           
  2318  0076                     ??i1_memset:	
  2319                           ; 1 bytes @ 0x6
  2320                           
  2321  0076                     ?i1_pic16_linear_addr:	
  2322                           ; 1 bytes @ 0x6
  2323                           
  2324  0076                     handle_ep0_out@res:	
  2325                           ; 2 bytes @ 0x6
  2326                           
  2327  0076                     i1pic16_linear_addr@ptr:	
  2328                           ; 1 bytes @ 0x6
  2329                           
  2330  0076                     i1memset@p:	
  2331                           ; 2 bytes @ 0x6
  2332                           
  2333                           
  2334                           ; 2 bytes @ 0x6
  2335  0076                     	ds	1
  2336  0077                     handle_ep0_out@pkt_len:	
  2337                           
  2338                           ; 1 bytes @ 0x7
  2339  0077                     	ds	1
  2340  0078                     handle_ep0_out@bytes_to_copy:	
  2341  0078                     i1pic16_linear_addr@high:	
  2342                           ; 1 bytes @ 0x8
  2343                           
  2344                           
  2345                           ; 1 bytes @ 0x8
  2346  0078                     	ds	1
  2347  0079                     i1pic16_linear_addr@low:	
  2348                           
  2349                           ; 1 bytes @ 0x9
  2350  0079                     	ds	1
  2351  007A                     usb_halt_ep_out@ep:	
  2352  007A                     i1usb_in_endpoint_halted@endpoint:	
  2353                           ; 1 bytes @ 0xA
  2354                           
  2355  007A                     i1pic16_linear_addr@addr:	
  2356                           ; 1 bytes @ 0xA
  2357                           
  2358                           
  2359                           ; 2 bytes @ 0xA
  2360  007A                     	ds	1
  2361  007B                     ?_usb_send_in_buffer_0:	
  2362  007B                     usb_send_in_buffer_0@len:	
  2363                           ; 1 bytes @ 0xB
  2364                           
  2365                           
  2366                           ; 2 bytes @ 0xB
  2367  007B                     	ds	1
  2368  007C                     ??i1_usb_init:	
  2369  007C                     stall_ep_in@ep:	
  2370                           ; 1 bytes @ 0xC
  2371                           
  2372                           
  2373                           ; 1 bytes @ 0xC
  2374  007C                     	ds	1
  2375  007D                     ??_usb_send_in_buffer_0:	
  2376  007D                     usb_halt_ep_in@ep:	
  2377                           ; 1 bytes @ 0xD
  2378                           
  2379                           
  2380                           ; 1 bytes @ 0xD
  2381  007D                     	ds	1
  2382  007E                     ??_app_unknown_setup_request_callback:	
  2383  007E                     ??_isr:	
  2384                           ; 1 bytes @ 0xE
  2385                           
  2386                           
  2387                           	psect	cstackBANK0
  2388  0030                     __pcstackBANK0:	
  2389                           ; 1 bytes @ 0xE
  2390                           
  2391  0030                     ??_usb_halt_ep_in:	
  2392  0030                     ??i1_pic16_linear_addr:	
  2393                           ; 1 bytes @ 0x0
  2394                           
  2395  0030                     usb_send_in_buffer_0@pid:	
  2396                           ; 1 bytes @ 0x0
  2397                           
  2398                           
  2399                           ; 1 bytes @ 0x0
  2400  0030                     	ds	1
  2401  0031                     ?_start_control_return:	
  2402  0031                     ??_handle_ep0_in:	
  2403                           ; 1 bytes @ 0x1
  2404                           
  2405  0031                     start_control_return@ptr:	
  2406                           ; 1 bytes @ 0x1
  2407                           
  2408                           
  2409                           ; 2 bytes @ 0x1
  2410  0031                     	ds	2
  2411  0033                     start_control_return@len:	
  2412  0033                     _handle_ep0_in$813:	
  2413                           ; 2 bytes @ 0x3
  2414                           
  2415                           
  2416                           ; 2 bytes @ 0x3
  2417  0033                     	ds	2
  2418  0035                     handle_ep0_in@bytes_to_send:	
  2419  0035                     start_control_return@bytes_asked_for:	
  2420                           ; 1 bytes @ 0x5
  2421                           
  2422                           
  2423                           ; 2 bytes @ 0x5
  2424  0035                     	ds	2
  2425  0037                     ??_start_control_return:	
  2426                           
  2427                           ; 1 bytes @ 0x7
  2428  0037                     	ds	2
  2429  0039                     _start_control_return$730:	
  2430                           
  2431                           ; 2 bytes @ 0x9
  2432  0039                     	ds	2
  2433  003B                     _start_control_return$731:	
  2434                           
  2435                           ; 2 bytes @ 0xB
  2436  003B                     	ds	1
  2437  003C                     ??i1_init_endpoints:	
  2438                           
  2439                           ; 1 bytes @ 0xC
  2440  003C                     	ds	1
  2441  003D                     _start_control_return$732:	
  2442                           
  2443                           ; 2 bytes @ 0xD
  2444  003D                     	ds	2
  2445  003F                     start_control_return@bytes_to_send:	
  2446                           
  2447                           ; 1 bytes @ 0xF
  2448  003F                     	ds	1
  2449  0040                     ?_usb_send_data_stage:	
  2450  0040                     usb_send_data_stage@buffer:	
  2451                           ; 1 bytes @ 0x10
  2452                           
  2453                           
  2454                           ; 2 bytes @ 0x10
  2455  0040                     	ds	2
  2456  0042                     usb_send_data_stage@len:	
  2457  0042                     i1_init_endpoints$2120:	
  2458                           ; 2 bytes @ 0x12
  2459                           
  2460                           
  2461                           ; 2 bytes @ 0x12
  2462  0042                     	ds	2
  2463  0044                     i1init_endpoints@i:	
  2464  0044                     usb_send_data_stage@callback:	
  2465                           ; 1 bytes @ 0x14
  2466                           
  2467                           
  2468                           ; 2 bytes @ 0x14
  2469  0044                     	ds	1
  2470  0045                     ??_handle_standard_control_request:	
  2471  0045                     i1usb_init@i:	
  2472                           ; 1 bytes @ 0x15
  2473                           
  2474                           
  2475                           ; 1 bytes @ 0x15
  2476  0045                     	ds	1
  2477  0046                     usb_send_data_stage@context:	
  2478  0046                     i1usb_init@ep:	
  2479                           ; 1 bytes @ 0x16
  2480                           
  2481                           
  2482                           ; 2 bytes @ 0x16
  2483  0046                     	ds	1
  2484  0047                     ??_usb_send_data_stage:	
  2485                           
  2486                           ; 1 bytes @ 0x17
  2487  0047                     	ds	1
  2488  0048                     ?_process_hid_setup_request:	
  2489  0048                     process_hid_setup_request@setup:	
  2490                           ; 1 bytes @ 0x18
  2491                           
  2492                           
  2493                           ; 2 bytes @ 0x18
  2494  0048                     	ds	2
  2495  004A                     ??_process_hid_setup_request:	
  2496                           
  2497                           ; 1 bytes @ 0x1A
  2498  004A                     	ds	1
  2499  004B                     handle_standard_control_request@ret:	
  2500                           
  2501                           ; 2 bytes @ 0x1B
  2502  004B                     	ds	2
  2503  004D                     handle_standard_control_request@ret_773:	
  2504                           
  2505                           ; 2 bytes @ 0x1D
  2506  004D                     	ds	2
  2507  004F                     _handle_standard_control_request$774:	
  2508  004F                     _process_hid_setup_request$1018:	
  2509                           ; 2 bytes @ 0x1F
  2510                           
  2511                           
  2512                           ; 2 bytes @ 0x1F
  2513  004F                     	ds	2
  2514  0051                     handle_standard_control_request@res_775:	
  2515  0051                     _process_hid_setup_request$1030:	
  2516                           ; 1 bytes @ 0x21
  2517                           
  2518                           
  2519                           ; 2 bytes @ 0x21
  2520  0051                     	ds	1
  2521  0052                     handle_standard_control_request@res:	
  2522                           
  2523                           ; 1 bytes @ 0x22
  2524  0052                     	ds	1
  2525  0053                     handle_standard_control_request@stall:	
  2526  0053                     process_hid_setup_request@report_type:	
  2527                           ; 1 bytes @ 0x23
  2528                           
  2529                           
  2530                           ; 1 bytes @ 0x23
  2531  0053                     	ds	1
  2532  0054                     process_hid_setup_request@report_id:	
  2533  0054                     handle_standard_control_request@desc:	
  2534                           ; 1 bytes @ 0x24
  2535                           
  2536                           
  2537                           ; 2 bytes @ 0x24
  2538  0054                     	ds	1
  2539  0055                     process_hid_setup_request@report_type_1031:	
  2540                           
  2541                           ; 1 bytes @ 0x25
  2542  0055                     	ds	1
  2543  0056                     process_hid_setup_request@report_id_1032:	
  2544  0056                     handle_standard_control_request@len:	
  2545                           ; 1 bytes @ 0x26
  2546                           
  2547                           
  2548                           ; 2 bytes @ 0x26
  2549  0056                     	ds	1
  2550  0057                     process_hid_setup_request@res:	
  2551                           
  2552                           ; 1 bytes @ 0x27
  2553  0057                     	ds	1
  2554  0058                     process_hid_setup_request@report_id_1034:	
  2555  0058                     handle_standard_control_request@len_763:	
  2556                           ; 1 bytes @ 0x28
  2557                           
  2558                           
  2559                           ; 2 bytes @ 0x28
  2560  0058                     	ds	1
  2561  0059                     process_hid_setup_request@res_1035:	
  2562                           
  2563                           ; 1 bytes @ 0x29
  2564  0059                     	ds	1
  2565  005A                     handle_standard_control_request@desc_764:	
  2566  005A                     process_hid_setup_request@duration:	
  2567                           ; 1 bytes @ 0x2A
  2568                           
  2569                           
  2570                           ; 1 bytes @ 0x2A
  2571  005A                     	ds	1
  2572  005B                     handle_standard_control_request@req:	
  2573  005B                     process_hid_setup_request@report_id_1037:	
  2574                           ; 1 bytes @ 0x2B
  2575                           
  2576                           
  2577                           ; 1 bytes @ 0x2B
  2578  005B                     	ds	1
  2579  005C                     handle_standard_control_request@ep_num:	
  2580  005C                     process_hid_setup_request@res_1038:	
  2581                           ; 1 bytes @ 0x2C
  2582                           
  2583                           
  2584                           ; 1 bytes @ 0x2C
  2585  005C                     	ds	1
  2586  005D                     handle_standard_control_request@flags:	
  2587  005D                     process_hid_setup_request@res_1040:	
  2588                           ; 1 bytes @ 0x2D
  2589                           
  2590                           
  2591                           ; 1 bytes @ 0x2D
  2592  005D                     	ds	1
  2593  005E                     handle_standard_control_request@ret_776:	
  2594  005E                     process_hid_setup_request@callback:	
  2595                           ; 1 bytes @ 0x2E
  2596                           
  2597                           
  2598                           ; 2 bytes @ 0x2E
  2599  005E                     	ds	1
  2600  005F                     handle_standard_control_request@ep_dir:	
  2601                           
  2602                           ; 1 bytes @ 0x2F
  2603  005F                     	ds	1
  2604  0060                     process_hid_setup_request@descriptor:	
  2605  0060                     handle_standard_control_request@desc_761:	
  2606                           ; 1 bytes @ 0x30
  2607                           
  2608                           
  2609                           ; 2 bytes @ 0x30
  2610  0060                     	ds	1
  2611  0061                     process_hid_setup_request@res_1039:	
  2612                           
  2613                           ; 1 bytes @ 0x31
  2614  0061                     	ds	1
  2615  0062                     handle_standard_control_request@descriptor:	
  2616  0062                     process_hid_setup_request@desc_1019:	
  2617                           ; 1 bytes @ 0x32
  2618                           
  2619                           
  2620                           ; 1 bytes @ 0x32
  2621  0062                     	ds	1
  2622  0063                     handle_standard_control_request@descriptor_index:	
  2623  0063                     process_hid_setup_request@context:	
  2624                           ; 1 bytes @ 0x33
  2625                           
  2626                           
  2627                           ; 1 bytes @ 0x33
  2628  0063                     	ds	1
  2629  0064                     handle_standard_control_request@ep_num_778:	
  2630  0064                     process_hid_setup_request@len_1020:	
  2631                           ; 1 bytes @ 0x34
  2632                           
  2633                           
  2634                           ; 2 bytes @ 0x34
  2635  0064                     	ds	1
  2636  0065                     handle_standard_control_request@setup:	
  2637                           
  2638                           ; 2 bytes @ 0x35
  2639  0065                     	ds	1
  2640  0066                     process_hid_setup_request@len:	
  2641                           
  2642                           ; 2 bytes @ 0x36
  2643  0066                     	ds	2
  2644  0068                     process_hid_setup_request@desc:	
  2645                           
  2646                           ; 2 bytes @ 0x38
  2647  0068                     	ds	2
  2648  006A                     process_hid_setup_request@interface:	
  2649                           
  2650                           ; 1 bytes @ 0x3A
  2651  006A                     	ds	1
  2652  006B                     ?_app_unknown_setup_request_callback:	
  2653  006B                     app_unknown_setup_request_callback@setup:	
  2654                           ; 1 bytes @ 0x3B
  2655                           
  2656                           
  2657                           ; 2 bytes @ 0x3B
  2658  006B                     	ds	2
  2659  006D                     ??_handle_ep0_setup:	
  2660                           
  2661                           ; 1 bytes @ 0x3D
  2662  006D                     	ds	1
  2663                           
  2664                           	psect	maintext
  2665  058D                     __pmaintext:	
  2666 ;;
  2667 ;;Main: autosize = 0, tempsize = 5, incstack = 0, save=0
  2668 ;;
  2669 ;; *************** function _main *****************
  2670 ;; Defined at:
  2671 ;;		line 46 in file "../main.c"
  2672 ;; Parameters:    Size  Location     Type
  2673 ;;		None
  2674 ;; Auto vars:     Size  Location     Type
  2675 ;;  curr            3   16[BANK4 ] float 
  2676 ;;  volt            3   13[BANK4 ] float 
  2677 ;;  dat             2   24[BANK4 ] unsigned int 
  2678 ;;  id              2   21[BANK4 ] unsigned int 
  2679 ;;  len             1   27[BANK4 ] unsigned char 
  2680 ;;  opcode          1   23[BANK4 ] unsigned char 
  2681 ;;  pcktLen         1   20[BANK4 ] unsigned char 
  2682 ;;  pcktVer         1   19[BANK4 ] unsigned char 
  2683 ;;  TxDataBuffer    2   30[BANK4 ] PTR unsigned char 
  2684 ;;		 -> NULL(0), ep_buffers(144), 
  2685 ;;  RxDataBuffer    2   28[BANK4 ] PTR const unsigned char 
  2686 ;;		 -> NULL(0), ep_buffers(144), 
  2687 ;;  regAddr         1   26[BANK4 ] unsigned char 
  2688 ;; Return value:  Size  Location     Type
  2689 ;;                  2  600[None  ] int 
  2690 ;; Registers used:
  2691 ;;		wreg, fsr0l, fsr0h, fsr1l, fsr1h, status,2, status,0, pclath, cstack
  2692 ;; Tracked objects:
  2693 ;;		On entry : B1F/0
  2694 ;;		On exit  : 1F/3
  2695 ;;		Unchanged: 0/0
  2696 ;; Data sizes:     COMMON   BANK0   BANK1   BANK2   BANK3   BANK4   BANK5   BANK6   BANK7   BANK8   BANK9  BANK10  BANK1
      +1  BANK12
  2697 ;;      Params:         0       0       0       0       0       0       0       0       0       0       0       0       
      +0       0
  2698 ;;      Locals:         0       0       0       0       0      19       0       0       0       0       0       0       
      +0       0
  2699 ;;      Temps:          0       0       0       0       0       5       0       0       0       0       0       0       
      +0       0
  2700 ;;      Totals:         0       0       0       0       0      24       0       0       0       0       0       0       
      +0       0
  2701 ;;Total ram usage:       24 bytes
  2702 ;; Hardware stack levels required when called:   15
  2703 ;; This function calls:
  2704 ;;		_dmm_init
  2705 ;;		_get_current
  2706 ;;		_get_voltage
  2707 ;;		_hardware_init
  2708 ;;		_i2c_reg_read
  2709 ;;		_i2c_reg_write
  2710 ;;		_strlen
  2711 ;;		_usb_arm_out_endpoint
  2712 ;;		_usb_get_configuration
  2713 ;;		_usb_get_in_buffer
  2714 ;;		_usb_get_out_buffer
  2715 ;;		_usb_in_endpoint_busy
  2716 ;;		_usb_in_endpoint_halted
  2717 ;;		_usb_init
  2718 ;;		_usb_out_endpoint_has_data
  2719 ;;		_usb_send_in_buffer
  2720 ;; This function is called by:
  2721 ;;		Startup code after reset
  2722 ;; This function uses a non-reentrant model
  2723 ;;
  2724                           
  2725                           
  2726                           ;psect for function _main
  2727  058D                     _main:	
  2728                           
  2729                           ;main.c: 47: hardware_init();
  2730                           
  2731                           ;incstack = 0
  2732                           ; Regs used in _main: [wreg-fsr1h+status,2+status,0+pclath+cstack]
  2733  058D  3188  2000  3185   	fcall	_hardware_init
  2734                           
  2735                           ;main.c: 49: dmm_init();
  2736  0590  3188  2009  3185   	fcall	_dmm_init
  2737                           
  2738                           ;main.c: 54: usb_init();
  2739  0593  3193  2309  3185   	fcall	_usb_init
  2740                           
  2741                           ;main.c: 56: uint8_t regAddr = 0;
  2742  0596  0024               	movlb	4	; select bank4
  2743  0597  01BA               	clrf	main@regAddr^(0+512)
  2744  0598                     l5171:	
  2745                           
  2746                           ;main.c: 59: if ((usb_get_configuration() != 0) && usb_out_endpoint_has_data(1)) {
  2747  0598  319D  2560  3185   	fcall	_usb_get_configuration
  2748  059B  3A00               	xorlw	0
  2749  059C  1903               	skipnz
  2750  059D  2D98               	goto	l5171
  2751  059E  3001               	movlw	1
  2752  059F  319E  261F  3185   	fcall	_usb_out_endpoint_has_data
  2753  05A2  3A00               	xorlw	0
  2754  05A3  1903               	skipnz
  2755  05A4  2D98               	goto	l5171
  2756                           
  2757                           ;main.c: 61: const unsigned char *RxDataBuffer;;main.c: 62: unsigned char *TxDataBuffer 
      +                          = usb_get_in_buffer(1);
  2758  05A5  3001               	movlw	1
  2759  05A6  3190  204F  3185   	fcall	_usb_get_in_buffer
  2760  05A9  0827               	movf	(?_usb_get_in_buffer+1)^(0+128),w
  2761  05AA  0024               	movlb	4	; select bank4
  2762  05AB  00BF               	movwf	(main@TxDataBuffer+1)^(0+512)
  2763  05AC  0021               	movlb	1	; select bank1
  2764  05AD  0826               	movf	?_usb_get_in_buffer^(0+128),w
  2765  05AE  0024               	movlb	4	; select bank4
  2766  05AF  00BE               	movwf	main@TxDataBuffer^(0+512)
  2767                           
  2768                           ;main.c: 65: if (!usb_in_endpoint_halted(1)) {
  2769  05B0  3001               	movlw	1
  2770  05B1  3190  2004  3185   	fcall	_usb_in_endpoint_halted
  2771  05B4  3A00               	xorlw	0
  2772  05B5  1D03               	skipz
  2773  05B6  2FE2               	goto	l5279
  2774  05B7                     l5179:	
  2775  05B7  3001               	movlw	1
  2776  05B8  319E  260E  3185   	fcall	_usb_in_endpoint_busy
  2777  05BB  3A00               	xorlw	0
  2778  05BC  1D03               	skipz
  2779  05BD  2DB7               	goto	l5179
  2780                           
  2781                           ;main.c: 71: usb_get_out_buffer(1, &RxDataBuffer);
  2782  05BE  303C               	movlw	(low (main@RxDataBuffer| (0+512)))& (0+255)
  2783  05BF  0024               	movlb	4	; select bank4
  2784  05C0  00A8               	movwf	??_main^(0+512)
  2785  05C1  0828               	movf	??_main^(0+512),w
  2786  05C2  0021               	movlb	1	; select bank1
  2787  05C3  00B3               	movwf	usb_get_out_buffer@buf^(0+128)
  2788  05C4  3001               	movlw	1
  2789  05C5  3190  20A0  3185   	fcall	_usb_get_out_buffer
  2790                           
  2791                           ;main.c: 73: uint8_t pcktVer = RxDataBuffer[0] & 0xC0;
  2792  05C8  0024               	movlb	4	; select bank4
  2793  05C9  083C               	movf	main@RxDataBuffer^(0+512),w
  2794  05CA  0086               	movwf	6
  2795  05CB  083D               	movf	(main@RxDataBuffer+1)^(0+512),w
  2796  05CC  0087               	movwf	7
  2797  05CD  0801               	movf	1,w
  2798  05CE  39C0               	andlw	192
  2799  05CF  00A8               	movwf	??_main^(0+512)
  2800  05D0  0828               	movf	??_main^(0+512),w
  2801  05D1  00B3               	movwf	main@pcktVer^(0+512)
  2802                           
  2803                           ;main.c: 74: uint8_t pcktLen = RxDataBuffer[0] & 0x2F;
  2804  05D2  083C               	movf	main@RxDataBuffer^(0+512),w
  2805  05D3  0086               	movwf	6
  2806  05D4  083D               	movf	(main@RxDataBuffer+1)^(0+512),w
  2807  05D5  0087               	movwf	7
  2808  05D6  0801               	movf	1,w
  2809  05D7  392F               	andlw	47
  2810  05D8  00A8               	movwf	??_main^(0+512)
  2811  05D9  0828               	movf	??_main^(0+512),w
  2812  05DA  00B4               	movwf	main@pcktLen^(0+512)
  2813                           
  2814                           ;main.c: 76: if (pcktVer == 0x00 && pcktLen > 1) {
  2815  05DB  0833               	movf	main@pcktVer^(0+512),w
  2816  05DC  1D03               	btfss	3,2
  2817  05DD  2FE2               	goto	l5279
  2818  05DE  3002               	movlw	2
  2819  05DF  0234               	subwf	main@pcktLen^(0+512),w
  2820  05E0  1C03               	skipc
  2821  05E1  2FE2               	goto	l5279
  2822                           
  2823                           ;main.c: 78: uint8_t opcode = RxDataBuffer[1];
  2824  05E2  083C               	movf	main@RxDataBuffer^(0+512),w
  2825  05E3  0086               	movwf	6
  2826  05E4  083D               	movf	(main@RxDataBuffer+1)^(0+512),w
  2827  05E5  0087               	movwf	7
  2828  05E6  3141               	addfsr 1,1
  2829  05E7  0801               	movf	1,w
  2830  05E8  00A8               	movwf	??_main^(0+512)
  2831  05E9  0828               	movf	??_main^(0+512),w
  2832  05EA  00B7               	movwf	main@opcode^(0+512)
  2833                           
  2834                           ;main.c: 79: TxDataBuffer[1] = opcode;
  2835  05EB  083E               	movf	main@TxDataBuffer^(0+512),w
  2836  05EC  3E01               	addlw	1
  2837  05ED  00A8               	movwf	??_main^(0+512)
  2838  05EE  3000               	movlw	0
  2839  05EF  3D3F               	addwfc	(main@TxDataBuffer+1)^(0+512),w
  2840  05F0  00A9               	movwf	(??_main+1)^(0+512)
  2841  05F1  0828               	movf	??_main^(0+512),w
  2842  05F2  0086               	movwf	6
  2843  05F3  0829               	movf	(??_main+1)^(0+512),w
  2844  05F4  0087               	movwf	7
  2845  05F5  0837               	movf	main@opcode^(0+512),w
  2846  05F6  0081               	movwf	1
  2847                           
  2848                           ;main.c: 80: uint16_t id = (RxDataBuffer[2] << 8) + RxDataBuffer[3];
  2849  05F7  083C               	movf	main@RxDataBuffer^(0+512),w
  2850  05F8  0086               	movwf	6
  2851  05F9  083D               	movf	(main@RxDataBuffer+1)^(0+512),w
  2852  05FA  0087               	movwf	7
  2853  05FB  3143               	addfsr 1,3
  2854  05FC  0801               	movf	1,w
  2855  05FD  00A8               	movwf	??_main^(0+512)
  2856  05FE  01A9               	clrf	(??_main^(0+512)+1)
  2857  05FF  083C               	movf	main@RxDataBuffer^(0+512),w
  2858  0600  0086               	movwf	6
  2859  0601  083D               	movf	(main@RxDataBuffer+1)^(0+512),w
  2860  0602  0087               	movwf	7
  2861  0603  3142               	addfsr 1,2
  2862  0604  0801               	movf	1,w
  2863  0605  00AA               	movwf	(??_main+2)^(0+512)
  2864  0606  01AB               	clrf	((??_main+2)^(0+512)+1)
  2865  0607  082A               	movf	(??_main+2)^(0+512),w
  2866  0608  00AB               	movwf	((??_main+2)^(0+512)+1)
  2867  0609  01AA               	clrf	(??_main+2)^(0+512)
  2868  060A  0828               	movf	??_main^(0+512),w
  2869  060B  072A               	addwf	(??_main+2)^(0+512),w
  2870  060C  00B5               	movwf	main@id^(0+512)
  2871  060D  0829               	movf	(??_main+1)^(0+512),w
  2872  060E  3D2B               	addwfc	(??_main+3)^(0+512),w
  2873  060F  00B6               	movwf	(main@id+1)^(0+512)
  2874                           
  2875                           ;main.c: 81: uint8_t len;;main.c: 83: switch (opcode) {
  2876  0610  2FBB               	goto	l5273
  2877  0611                     l5197:	
  2878                           
  2879                           ;main.c: 85: TxDataBuffer[2] = RC_OK;
  2880  0611  083E               	movf	main@TxDataBuffer^(0+512),w
  2881  0612  3E02               	addlw	2
  2882  0613  00A8               	movwf	??_main^(0+512)
  2883  0614  3000               	movlw	0
  2884  0615  3D3F               	addwfc	(main@TxDataBuffer+1)^(0+512),w
  2885  0616  00A9               	movwf	(??_main+1)^(0+512)
  2886  0617  0828               	movf	??_main^(0+512),w
  2887  0618  0086               	movwf	6
  2888  0619  0829               	movf	(??_main+1)^(0+512),w
  2889  061A  0087               	movwf	7
  2890  061B  3001               	movlw	1
  2891  061C  0081               	movwf	1
  2892                           
  2893                           ;main.c: 86: TxDataBuffer[0] = 0x00;
  2894  061D  083E               	movf	main@TxDataBuffer^(0+512),w
  2895  061E  0086               	movwf	6
  2896  061F  083F               	movf	(main@TxDataBuffer+1)^(0+512),w
  2897  0620  0087               	movwf	7
  2898  0621  0181               	clrf	1
  2899                           
  2900                           ;main.c: 88: switch (id) {
  2901  0622  2F49               	goto	l5251
  2902  0623                     l5201:	
  2903                           
  2904                           ;main.c: 90: len = strlen(PRODUCT_NAME) + 1;
  2905  0623  30A4               	movlw	low (_PRODUCT_NAME| (0+32768))
  2906  0624  0021               	movlb	1	; select bank1
  2907  0625  00AD               	movwf	strlen@s^(0+128)
  2908  0626  3098               	movlw	high (_PRODUCT_NAME| (0+32768))
  2909  0627  00AE               	movwf	(strlen@s^(0+128)+1)
  2910  0628  319E  2649  3185   	fcall	_strlen
  2911  062B  082D               	movf	?_strlen^(0+128),w
  2912  062C  3E01               	addlw	1
  2913  062D  0024               	movlb	4	; select bank4
  2914  062E  00A8               	movwf	??_main^(0+512)
  2915  062F  0828               	movf	??_main^(0+512),w
  2916  0630  00BB               	movwf	main@len^(0+512)
  2917                           
  2918                           ;main.c: 91: TxDataBuffer[0] |= len + 3;
  2919  0631  083B               	movf	main@len^(0+512),w
  2920  0632  3E03               	addlw	3
  2921  0633  00A8               	movwf	??_main^(0+512)
  2922  0634  083E               	movf	main@TxDataBuffer^(0+512),w
  2923  0635  0086               	movwf	6
  2924  0636  083F               	movf	(main@TxDataBuffer+1)^(0+512),w
  2925  0637  0087               	movwf	7
  2926  0638  0828               	movf	??_main^(0+512),w
  2927  0639  0481               	iorwf	1,f
  2928                           
  2929                           ;main.c: 92: __builtin_memcpy(&TxDataBuffer[3],PRODUCT_NAME,len);
  2930  063A  083E               	movf	main@TxDataBuffer^(0+512),w
  2931  063B  0086               	movwf	6
  2932  063C  083F               	movf	(main@TxDataBuffer+1)^(0+512),w
  2933  063D  0087               	movwf	7
  2934  063E  3143               	addfsr 1,3
  2935  063F  30A4               	movlw	low (_PRODUCT_NAME| (0+32768))
  2936  0640  0084               	movwf	4
  2937  0641  3098               	movlw	high (_PRODUCT_NAME| (0+32768))
  2938  0642  0085               	movwf	5
  2939  0643  0024               	movlb	4	; select bank4
  2940  0644  083B               	movf	main@len^(0+512),w
  2941  0645  00A8               	movwf	??_main^(0+512)
  2942  0646  0828               	movf	??_main^(0+512),w
  2943  0647  1903               	skipnz
  2944  0648  2FC3               	goto	l5275
  2945  0649                     u573m0:	
  2946  0649  0012               	moviw fsr0++
  2947  064A  001E               	movwi fsr1++
  2948  064B  0BA8               	decfsz	??_main^(0+512),f
  2949  064C  2E49               	goto	u573m0
  2950  064D  2FC3               	goto	l5275
  2951  064E                     l5207:	
  2952                           ;main.c: 93: break;
  2953                           
  2954                           
  2955                           ;main.c: 96: TxDataBuffer[0] |= 2 + 3;
  2956  064E  3005               	movlw	5
  2957  064F  00A8               	movwf	??_main^(0+512)
  2958  0650  083E               	movf	main@TxDataBuffer^(0+512),w
  2959  0651  0086               	movwf	6
  2960  0652  083F               	movf	(main@TxDataBuffer+1)^(0+512),w
  2961  0653  0087               	movwf	7
  2962  0654  0828               	movf	??_main^(0+512),w
  2963  0655  0481               	iorwf	1,f
  2964                           
  2965                           ;main.c: 97: TxDataBuffer[3] = '0' + PORTCbits.RC2;
  2966  0656  0020               	movlb	0	; select bank0
  2967  0657  0C0E               	rrf	14,w	;volatile
  2968  0658  0C89               	rrf	9,f
  2969  0659  3901               	andlw	1
  2970  065A  3E30               	addlw	48
  2971  065B  0024               	movlb	4	; select bank4
  2972  065C  00A8               	movwf	??_main^(0+512)
  2973  065D  083E               	movf	main@TxDataBuffer^(0+512),w
  2974  065E  3E03               	addlw	3
  2975  065F  00A9               	movwf	(??_main+1)^(0+512)
  2976  0660  3000               	movlw	0
  2977  0661  3D3F               	addwfc	(main@TxDataBuffer+1)^(0+512),w
  2978  0662  00AA               	movwf	(??_main+2)^(0+512)
  2979  0663  0829               	movf	(??_main+1)^(0+512),w
  2980  0664  0086               	movwf	6
  2981  0665  082A               	movf	(??_main+2)^(0+512),w
  2982  0666  0087               	movwf	7
  2983  0667  0828               	movf	??_main^(0+512),w
  2984  0668  0081               	movwf	1
  2985                           
  2986                           ;main.c: 98: TxDataBuffer[4] = (0);
  2987  0669  083E               	movf	main@TxDataBuffer^(0+512),w
  2988  066A  0086               	movwf	6
  2989  066B  083F               	movf	(main@TxDataBuffer+1)^(0+512),w
  2990  066C  0087               	movwf	7
  2991  066D  3144               	addfsr 1,4
  2992  066E  2F47               	goto	L1
  2993  066F                     l5211:	
  2994                           ;main.c: 99: break;
  2995                           
  2996                           
  2997                           ;main.c: 107: TxDataBuffer[0] |= 8 + 3;
  2998  066F  300B               	movlw	11
  2999  0670  00A8               	movwf	??_main^(0+512)
  3000  0671  083E               	movf	main@TxDataBuffer^(0+512),w
  3001  0672  0086               	movwf	6
  3002  0673  083F               	movf	(main@TxDataBuffer+1)^(0+512),w
  3003  0674  0087               	movwf	7
  3004  0675  0828               	movf	??_main^(0+512),w
  3005  0676  0481               	iorwf	1,f
  3006                           
  3007                           ;main.c: 108: __builtin_memcpy(&TxDataBuffer[3],0x1FF8,8);
  3008  0677  083E               	movf	main@TxDataBuffer^(0+512),w
  3009  0678  0086               	movwf	6
  3010  0679  083F               	movf	(main@TxDataBuffer+1)^(0+512),w
  3011  067A  0087               	movwf	7
  3012  067B  3143               	addfsr 1,3
  3013  067C  30F8               	movlw	248
  3014  067D  0084               	movwf	4
  3015  067E  309F               	movlw	159
  3016  067F  0085               	movwf	5
  3017  0680  3008               	movlw	8
  3018  0681  0024               	movlb	4	; select bank4
  3019  0682  00A8               	movwf	??_main^(0+512)
  3020  0683  0828               	movf	??_main^(0+512),w
  3021  0684  1903               	skipnz
  3022  0685  2FC3               	goto	l5275
  3023  0686                     u574m0:	
  3024  0686  0012               	moviw fsr0++
  3025  0687  001E               	movwi fsr1++
  3026  0688  0BA8               	decfsz	??_main^(0+512),f
  3027  0689  2E86               	goto	u574m0
  3028  068A  2FC3               	goto	l5275
  3029  068B                     l5215:	
  3030                           ;main.c: 109: break;
  3031                           
  3032                           
  3033                           ;main.c: 112: len = strlen(FIRM_VERSION) + 1;
  3034  068B  30AD               	movlw	low (_FIRM_VERSION| (0+32768))
  3035  068C  0021               	movlb	1	; select bank1
  3036  068D  00AD               	movwf	strlen@s^(0+128)
  3037  068E  3098               	movlw	high (_FIRM_VERSION| (0+32768))
  3038  068F  00AE               	movwf	(strlen@s^(0+128)+1)
  3039  0690  319E  2649  3185   	fcall	_strlen
  3040  0693  082D               	movf	?_strlen^(0+128),w
  3041  0694  3E01               	addlw	1
  3042  0695  0024               	movlb	4	; select bank4
  3043  0696  00A8               	movwf	??_main^(0+512)
  3044  0697  0828               	movf	??_main^(0+512),w
  3045  0698  00BB               	movwf	main@len^(0+512)
  3046                           
  3047                           ;main.c: 113: TxDataBuffer[0] |= len + 3;
  3048  0699  083B               	movf	main@len^(0+512),w
  3049  069A  3E03               	addlw	3
  3050  069B  00A8               	movwf	??_main^(0+512)
  3051  069C  083E               	movf	main@TxDataBuffer^(0+512),w
  3052  069D  0086               	movwf	6
  3053  069E  083F               	movf	(main@TxDataBuffer+1)^(0+512),w
  3054  069F  0087               	movwf	7
  3055  06A0  0828               	movf	??_main^(0+512),w
  3056  06A1  0481               	iorwf	1,f
  3057                           
  3058                           ;main.c: 114: __builtin_memcpy(&TxDataBuffer[3],FIRM_VERSION,len);
  3059  06A2  083E               	movf	main@TxDataBuffer^(0+512),w
  3060  06A3  0086               	movwf	6
  3061  06A4  083F               	movf	(main@TxDataBuffer+1)^(0+512),w
  3062  06A5  0087               	movwf	7
  3063  06A6  3143               	addfsr 1,3
  3064  06A7  30AD               	movlw	low (_FIRM_VERSION| (0+32768))
  3065  06A8  0084               	movwf	4
  3066  06A9  3098               	movlw	high (_FIRM_VERSION| (0+32768))
  3067  06AA  0085               	movwf	5
  3068  06AB  0024               	movlb	4	; select bank4
  3069  06AC  083B               	movf	main@len^(0+512),w
  3070  06AD  00A8               	movwf	??_main^(0+512)
  3071  06AE  0828               	movf	??_main^(0+512),w
  3072  06AF  1903               	skipnz
  3073  06B0  2FC3               	goto	l5275
  3074  06B1                     u575m0:	
  3075  06B1  0012               	moviw fsr0++
  3076  06B2  001E               	movwi fsr1++
  3077  06B3  0BA8               	decfsz	??_main^(0+512),f
  3078  06B4  2EB1               	goto	u575m0
  3079  06B5  2FC3               	goto	l5275
  3080  06B6                     l5221:	
  3081                           ;main.c: 115: break;
  3082                           
  3083                           
  3084                           ;main.c: 118: TxDataBuffer[0] |= 2 + 3;
  3085  06B6  3005               	movlw	5
  3086  06B7  00A8               	movwf	??_main^(0+512)
  3087  06B8  083E               	movf	main@TxDataBuffer^(0+512),w
  3088  06B9  0086               	movwf	6
  3089  06BA  083F               	movf	(main@TxDataBuffer+1)^(0+512),w
  3090  06BB  0087               	movwf	7
  3091  06BC  0828               	movf	??_main^(0+512),w
  3092  06BD  0481               	iorwf	1,f
  3093                           
  3094                           ;main.c: 119: uint16_t dat = i2c_reg_read(regAddr);
  3095  06BE  083A               	movf	main@regAddr^(0+512),w
  3096  06BF  3191  2169  3185   	fcall	_i2c_reg_read
  3097  06C2  0831               	movf	(?_i2c_reg_read+1)^(0+128),w
  3098  06C3  0024               	movlb	4	; select bank4
  3099  06C4  00B9               	movwf	(main@dat+1)^(0+512)
  3100  06C5  0021               	movlb	1	; select bank1
  3101  06C6  0830               	movf	?_i2c_reg_read^(0+128),w
  3102  06C7  0024               	movlb	4	; select bank4
  3103  06C8  00B8               	movwf	main@dat^(0+512)
  3104                           
  3105                           ;main.c: 120: TxDataBuffer[4] = dat >> 8;
  3106  06C9  0839               	movf	(main@dat^(0+512)+1),w
  3107  06CA  00A8               	movwf	??_main^(0+512)
  3108  06CB  083E               	movf	main@TxDataBuffer^(0+512),w
  3109  06CC  3E04               	addlw	4
  3110  06CD  00A9               	movwf	(??_main+1)^(0+512)
  3111  06CE  3000               	movlw	0
  3112  06CF  3D3F               	addwfc	(main@TxDataBuffer+1)^(0+512),w
  3113  06D0  00AA               	movwf	(??_main+2)^(0+512)
  3114  06D1  0829               	movf	(??_main+1)^(0+512),w
  3115  06D2  0086               	movwf	6
  3116  06D3  082A               	movf	(??_main+2)^(0+512),w
  3117  06D4  0087               	movwf	7
  3118  06D5  0828               	movf	??_main^(0+512),w
  3119  06D6  0081               	movwf	1
  3120                           
  3121                           ;main.c: 121: TxDataBuffer[3] = dat;
  3122  06D7  083E               	movf	main@TxDataBuffer^(0+512),w
  3123  06D8  3E03               	addlw	3
  3124  06D9  00A8               	movwf	??_main^(0+512)
  3125  06DA  3000               	movlw	0
  3126  06DB  3D3F               	addwfc	(main@TxDataBuffer+1)^(0+512),w
  3127  06DC  00A9               	movwf	(??_main+1)^(0+512)
  3128  06DD  0828               	movf	??_main^(0+512),w
  3129  06DE  0086               	movwf	6
  3130  06DF  0829               	movf	(??_main+1)^(0+512),w
  3131  06E0  0087               	movwf	7
  3132  06E1  0838               	movf	main@dat^(0+512),w
  3133  06E2  0081               	movwf	1
  3134                           
  3135                           ;main.c: 122: break;
  3136  06E3  2FC3               	goto	l5275
  3137  06E4                     l5229:	
  3138                           
  3139                           ;main.c: 125: TxDataBuffer[0] |= 4 + 3;
  3140  06E4  3007               	movlw	7
  3141  06E5  00A8               	movwf	??_main^(0+512)
  3142  06E6  083E               	movf	main@TxDataBuffer^(0+512),w
  3143  06E7  0086               	movwf	6
  3144  06E8  083F               	movf	(main@TxDataBuffer+1)^(0+512),w
  3145  06E9  0087               	movwf	7
  3146  06EA  0828               	movf	??_main^(0+512),w
  3147  06EB  0481               	iorwf	1,f
  3148                           
  3149                           ;main.c: 126: float volt = get_voltage();
  3150  06EC  3197  2758  3185   	fcall	_get_voltage
  3151  06EF  0823               	movf	?_get_voltage^(0+512),w
  3152  06F0  00AD               	movwf	main@volt^(0+512)
  3153  06F1  0824               	movf	(?_get_voltage+1)^(0+512),w
  3154  06F2  00AE               	movwf	(main@volt+1)^(0+512)
  3155  06F3  0825               	movf	(?_get_voltage+2)^(0+512),w
  3156  06F4  00AF               	movwf	(main@volt+2)^(0+512)
  3157                           
  3158                           ;main.c: 127: TxDataBuffer[3] = 0x00;
  3159  06F5  083E               	movf	main@TxDataBuffer^(0+512),w
  3160  06F6  0086               	movwf	6
  3161  06F7  083F               	movf	(main@TxDataBuffer+1)^(0+512),w
  3162  06F8  0087               	movwf	7
  3163  06F9  3143               	addfsr 1,3
  3164  06FA  0181               	clrf	1
  3165                           
  3166                           ;main.c: 128: __builtin_memcpy(&TxDataBuffer[4],&volt,3);
  3167  06FB  083E               	movf	main@TxDataBuffer^(0+512),w
  3168  06FC  0086               	movwf	6
  3169  06FD  083F               	movf	(main@TxDataBuffer+1)^(0+512),w
  3170  06FE  0087               	movwf	7
  3171  06FF  3144               	addfsr 1,4
  3172  0700  302D               	movlw	low (main@volt| (0+512))
  3173  0701  0084               	movwf	4
  3174  0702  3002               	movlw	2	; select bank4/5
  3175  0703  0085               	movwf	5
  3176  0704  3003               	movlw	3
  3177  0705  0024               	movlb	4	; select bank4
  3178  0706  00A8               	movwf	??_main^(0+512)
  3179  0707  0828               	movf	??_main^(0+512),w
  3180  0708  1903               	skipnz
  3181  0709  2FC3               	goto	l5275
  3182  070A                     u576m0:	
  3183  070A  0012               	moviw fsr0++
  3184  070B  001E               	movwi fsr1++
  3185  070C  0BA8               	decfsz	??_main^(0+512),f
  3186  070D  2F0A               	goto	u576m0
  3187  070E  2FC3               	goto	l5275
  3188  070F                     l5237:	
  3189                           ;main.c: 129: break;
  3190                           
  3191                           
  3192                           ;main.c: 132: TxDataBuffer[0] |= 4 + 3;
  3193  070F  3007               	movlw	7
  3194  0710  00A8               	movwf	??_main^(0+512)
  3195  0711  083E               	movf	main@TxDataBuffer^(0+512),w
  3196  0712  0086               	movwf	6
  3197  0713  083F               	movf	(main@TxDataBuffer+1)^(0+512),w
  3198  0714  0087               	movwf	7
  3199  0715  0828               	movf	??_main^(0+512),w
  3200  0716  0481               	iorwf	1,f
  3201                           
  3202                           ;main.c: 133: float curr = get_current();
  3203  0717  3196  26B0  3185   	fcall	_get_current
  3204  071A  0823               	movf	?_get_current^(0+512),w
  3205  071B  00B0               	movwf	main@curr^(0+512)
  3206  071C  0824               	movf	(?_get_current+1)^(0+512),w
  3207  071D  00B1               	movwf	(main@curr+1)^(0+512)
  3208  071E  0825               	movf	(?_get_current+2)^(0+512),w
  3209  071F  00B2               	movwf	(main@curr+2)^(0+512)
  3210                           
  3211                           ;main.c: 134: TxDataBuffer[3] = 0x00;
  3212  0720  083E               	movf	main@TxDataBuffer^(0+512),w
  3213  0721  0086               	movwf	6
  3214  0722  083F               	movf	(main@TxDataBuffer+1)^(0+512),w
  3215  0723  0087               	movwf	7
  3216  0724  3143               	addfsr 1,3
  3217  0725  0181               	clrf	1
  3218                           
  3219                           ;main.c: 135: __builtin_memcpy(&TxDataBuffer[4],&curr,3);
  3220  0726  083E               	movf	main@TxDataBuffer^(0+512),w
  3221  0727  0086               	movwf	6
  3222  0728  083F               	movf	(main@TxDataBuffer+1)^(0+512),w
  3223  0729  0087               	movwf	7
  3224  072A  3144               	addfsr 1,4
  3225  072B  3030               	movlw	low (main@curr| (0+512))
  3226  072C  0084               	movwf	4
  3227  072D  3002               	movlw	2	; select bank4/5
  3228  072E  0085               	movwf	5
  3229  072F  3003               	movlw	3
  3230  0730  0024               	movlb	4	; select bank4
  3231  0731  00A8               	movwf	??_main^(0+512)
  3232  0732  0828               	movf	??_main^(0+512),w
  3233  0733  1903               	skipnz
  3234  0734  2FC3               	goto	l5275
  3235  0735                     u577m0:	
  3236  0735  0012               	moviw fsr0++
  3237  0736  001E               	movwi fsr1++
  3238  0737  0BA8               	decfsz	??_main^(0+512),f
  3239  0738  2F35               	goto	u577m0
  3240  0739  2FC3               	goto	l5275
  3241  073A                     l5245:	
  3242                           ;main.c: 136: break;
  3243                           
  3244                           
  3245                           ;main.c: 139: TxDataBuffer[0] |= 3;
  3246  073A  3003               	movlw	3
  3247  073B  00A8               	movwf	??_main^(0+512)
  3248  073C  083E               	movf	main@TxDataBuffer^(0+512),w
  3249  073D  0086               	movwf	6
  3250  073E  083F               	movf	(main@TxDataBuffer+1)^(0+512),w
  3251  073F  0087               	movwf	7
  3252  0740  0828               	movf	??_main^(0+512),w
  3253  0741  0481               	iorwf	1,f
  3254  0742                     l5247:	
  3255                           
  3256                           ;main.c: 140: TxDataBuffer[2] = RC_FAIL;
  3257  0742  083E               	movf	main@TxDataBuffer^(0+512),w
  3258  0743  0086               	movwf	6
  3259  0744  083F               	movf	(main@TxDataBuffer+1)^(0+512),w
  3260  0745  0087               	movwf	7
  3261  0746  3142               	addfsr 1,2
  3262  0747                     L1:	
  3263  0747  0181               	clrf	1
  3264                           
  3265                           ;main.c: 141: break;
  3266  0748  2FC3               	goto	l5275
  3267  0749                     l5251:	
  3268                           
  3269                           ; Switch on 2 bytes has been partitioned into a top level switch of size 1, and 3 sub-sw
      +                          itches
  3270                           ; Switch size 1, requested type "simple"
  3271                           ; Number of cases is 3, Range of values is 0 to 129
  3272                           ; switch strategies available:
  3273                           ; Name         Instructions Cycles
  3274                           ; simple_byte           10     6 (average)
  3275                           ; jumptable            260     6 (fixed)
  3276                           ;	Chosen strategy is simple_byte
  3277  0749  0836               	movf	(main@id+1)^(0+512),w
  3278  074A  3A00               	xorlw	0	; case 0
  3279  074B  1903               	skipnz
  3280  074C  2F54               	goto	l5473
  3281  074D  3A14               	xorlw	20	; case 20
  3282  074E  1903               	skipnz
  3283  074F  2F62               	goto	l5475
  3284  0750  3A95               	xorlw	149	; case 129
  3285  0751  1903               	skipnz
  3286  0752  2F67               	goto	l5477
  3287  0753  2F3A               	goto	l5245
  3288  0754                     l5473:	
  3289                           
  3290                           ; Switch size 1, requested type "simple"
  3291                           ; Number of cases is 4, Range of values is 0 to 3
  3292                           ; switch strategies available:
  3293                           ; Name         Instructions Cycles
  3294                           ; simple_byte           13     7 (average)
  3295                           ; direct_byte           14     6 (fixed)
  3296                           ; jumptable            260     6 (fixed)
  3297                           ;	Chosen strategy is simple_byte
  3298  0754  0835               	movf	main@id^(0+512),w
  3299  0755  3A00               	xorlw	0	; case 0
  3300  0756  1903               	skipnz
  3301  0757  2E23               	goto	l5201
  3302  0758  3A01               	xorlw	1	; case 1
  3303  0759  1903               	skipnz
  3304  075A  2E4E               	goto	l5207
  3305  075B  3A03               	xorlw	3	; case 2
  3306  075C  1903               	skipnz
  3307  075D  2E6F               	goto	l5211
  3308  075E  3A01               	xorlw	1	; case 3
  3309  075F  1903               	skipnz
  3310  0760  2E8B               	goto	l5215
  3311  0761  2F3A               	goto	l5245
  3312  0762                     l5475:	
  3313                           
  3314                           ; Switch size 1, requested type "simple"
  3315                           ; Number of cases is 1, Range of values is 3 to 3
  3316                           ; switch strategies available:
  3317                           ; Name         Instructions Cycles
  3318                           ; simple_byte            4     3 (average)
  3319                           ; direct_byte           11     9 (fixed)
  3320                           ; jumptable            263     9 (fixed)
  3321                           ;	Chosen strategy is simple_byte
  3322  0762  0835               	movf	main@id^(0+512),w
  3323  0763  3A03               	xorlw	3	; case 3
  3324  0764  1903               	skipnz
  3325  0765  2EB6               	goto	l5221
  3326  0766  2F3A               	goto	l5245
  3327  0767                     l5477:	
  3328                           
  3329                           ; Switch size 1, requested type "simple"
  3330                           ; Number of cases is 2, Range of values is 1 to 3
  3331                           ; switch strategies available:
  3332                           ; Name         Instructions Cycles
  3333                           ; simple_byte            7     4 (average)
  3334                           ; direct_byte           15     9 (fixed)
  3335                           ; jumptable            263     9 (fixed)
  3336                           ;	Chosen strategy is simple_byte
  3337  0767  0835               	movf	main@id^(0+512),w
  3338  0768  3A01               	xorlw	1	; case 1
  3339  0769  1903               	skipnz
  3340  076A  2EE4               	goto	l5229
  3341  076B  3A02               	xorlw	2	; case 3
  3342  076C  1903               	skipnz
  3343  076D  2F0F               	goto	l5237
  3344  076E  2F3A               	goto	l5245
  3345  076F                     l5253:	
  3346                           
  3347                           ;main.c: 147: TxDataBuffer[0] = 0x00 | 3;
  3348  076F  083E               	movf	main@TxDataBuffer^(0+512),w
  3349  0770  0086               	movwf	6
  3350  0771  083F               	movf	(main@TxDataBuffer+1)^(0+512),w
  3351  0772  0087               	movwf	7
  3352  0773  3003               	movlw	3
  3353  0774  0081               	movwf	1
  3354                           
  3355                           ;main.c: 148: TxDataBuffer[2] = RC_OK;
  3356  0775  083E               	movf	main@TxDataBuffer^(0+512),w
  3357  0776  3E02               	addlw	2
  3358  0777  00A8               	movwf	??_main^(0+512)
  3359  0778  3000               	movlw	0
  3360  0779  3D3F               	addwfc	(main@TxDataBuffer+1)^(0+512),w
  3361  077A  00A9               	movwf	(??_main+1)^(0+512)
  3362  077B  0828               	movf	??_main^(0+512),w
  3363  077C  0086               	movwf	6
  3364  077D  0829               	movf	(??_main+1)^(0+512),w
  3365  077E  0087               	movwf	7
  3366  077F  3001               	movlw	1
  3367  0780  0081               	movwf	1
  3368                           
  3369                           ;main.c: 150: switch (id) {
  3370  0781  2FA7               	goto	l5265
  3371  0782                     l5257:	
  3372                           
  3373                           ;main.c: 152: regAddr = RxDataBuffer[4];
  3374  0782  083C               	movf	main@RxDataBuffer^(0+512),w
  3375  0783  0086               	movwf	6
  3376  0784  083D               	movf	(main@RxDataBuffer+1)^(0+512),w
  3377  0785  0087               	movwf	7
  3378  0786  3144               	addfsr 1,4
  3379  0787  0801               	movf	1,w
  3380  0788  00A8               	movwf	??_main^(0+512)
  3381  0789  0828               	movf	??_main^(0+512),w
  3382  078A  00BA               	movwf	main@regAddr^(0+512)
  3383                           
  3384                           ;main.c: 153: break;
  3385  078B  2FC3               	goto	l5275
  3386  078C                     l5259:	
  3387                           
  3388                           ;main.c: 156: i2c_reg_write(regAddr, RxDataBuffer[5], RxDataBuffer[4]);
  3389  078C  083C               	movf	main@RxDataBuffer^(0+512),w
  3390  078D  0086               	movwf	6
  3391  078E  083D               	movf	(main@RxDataBuffer+1)^(0+512),w
  3392  078F  0087               	movwf	7
  3393  0790  3145               	addfsr 1,5
  3394  0791  0801               	movf	1,w
  3395  0792  00A8               	movwf	??_main^(0+512)
  3396  0793  0828               	movf	??_main^(0+512),w
  3397  0794  0021               	movlb	1	; select bank1
  3398  0795  00AE               	movwf	i2c_reg_write@dat0^(0+128)
  3399  0796  0024               	movlb	4	; select bank4
  3400  0797  083C               	movf	main@RxDataBuffer^(0+512),w
  3401  0798  0086               	movwf	6
  3402  0799  083D               	movf	(main@RxDataBuffer+1)^(0+512),w
  3403  079A  0087               	movwf	7
  3404  079B  3144               	addfsr 1,4
  3405  079C  0801               	movf	1,w
  3406  079D  00A9               	movwf	(??_main+1)^(0+512)
  3407  079E  0829               	movf	(??_main+1)^(0+512),w
  3408  079F  0021               	movlb	1	; select bank1
  3409  07A0  00AF               	movwf	i2c_reg_write@dat1^(0+128)
  3410  07A1  0024               	movlb	4	; select bank4
  3411  07A2  083A               	movf	main@regAddr^(0+512),w
  3412  07A3  319E  26AE  3185   	fcall	_i2c_reg_write
  3413                           
  3414                           ;main.c: 157: break;
  3415  07A6  2FC3               	goto	l5275
  3416  07A7                     l5265:	
  3417                           
  3418                           ; Switch on 2 bytes has been partitioned into a top level switch of size 1, and 1 sub-sw
      +                          itches
  3419                           ; Switch size 1, requested type "simple"
  3420                           ; Number of cases is 1, Range of values is 20 to 20
  3421                           ; switch strategies available:
  3422                           ; Name         Instructions Cycles
  3423                           ; simple_byte            4     3 (average)
  3424                           ; direct_byte           11     9 (fixed)
  3425                           ; jumptable            263     9 (fixed)
  3426                           ;	Chosen strategy is simple_byte
  3427  07A7  0836               	movf	(main@id+1)^(0+512),w
  3428  07A8  3A14               	xorlw	20	; case 20
  3429  07A9  1903               	skipnz
  3430  07AA  2FAC               	goto	l5479
  3431  07AB  2F42               	goto	l5247
  3432  07AC                     l5479:	
  3433                           
  3434                           ; Switch size 1, requested type "simple"
  3435                           ; Number of cases is 2, Range of values is 1 to 3
  3436                           ; switch strategies available:
  3437                           ; Name         Instructions Cycles
  3438                           ; simple_byte            7     4 (average)
  3439                           ; direct_byte           15     9 (fixed)
  3440                           ; jumptable            263     9 (fixed)
  3441                           ;	Chosen strategy is simple_byte
  3442  07AC  0835               	movf	main@id^(0+512),w
  3443  07AD  3A01               	xorlw	1	; case 1
  3444  07AE  1903               	skipnz
  3445  07AF  2F82               	goto	l5257
  3446  07B0  3A02               	xorlw	2	; case 3
  3447  07B1  1903               	skipnz
  3448  07B2  2F8C               	goto	l5259
  3449  07B3  2F42               	goto	l5247
  3450  07B4                     l5267:	
  3451                           
  3452                           ;main.c: 167: TxDataBuffer[0] = 0x00 | 3;
  3453  07B4  083E               	movf	main@TxDataBuffer^(0+512),w
  3454  07B5  0086               	movwf	6
  3455  07B6  083F               	movf	(main@TxDataBuffer+1)^(0+512),w
  3456  07B7  0087               	movwf	7
  3457  07B8  3003               	movlw	3
  3458  07B9  0081               	movwf	1
  3459  07BA  2F42               	goto	l5247
  3460  07BB                     l5273:	
  3461  07BB  0837               	movf	main@opcode^(0+512),w
  3462                           
  3463                           ; Switch size 1, requested type "simple"
  3464                           ; Number of cases is 2, Range of values is 18 to 19
  3465                           ; switch strategies available:
  3466                           ; Name         Instructions Cycles
  3467                           ; simple_byte            7     4 (average)
  3468                           ; direct_byte           13     9 (fixed)
  3469                           ; jumptable            263     9 (fixed)
  3470                           ;	Chosen strategy is simple_byte
  3471  07BC  3A12               	xorlw	18	; case 18
  3472  07BD  1903               	skipnz
  3473  07BE  2F6F               	goto	l5253
  3474  07BF  3A01               	xorlw	1	; case 19
  3475  07C0  1903               	skipnz
  3476  07C1  2E11               	goto	l5197
  3477  07C2  2FB4               	goto	l5267
  3478  07C3                     l5275:	
  3479                           
  3480                           ;main.c: 174: __builtin_memcpy(usb_get_in_buffer(1),TxDataBuffer,64);
  3481  07C3  3001               	movlw	1
  3482  07C4  3190  204F  3185   	fcall	_usb_get_in_buffer
  3483  07C7  0826               	movf	?_usb_get_in_buffer^(0+128),w
  3484  07C8  0086               	movwf	6
  3485  07C9  0827               	movf	(?_usb_get_in_buffer+1)^(0+128),w
  3486  07CA  0087               	movwf	7
  3487  07CB  0024               	movlb	4	; select bank4
  3488  07CC  083E               	movf	main@TxDataBuffer^(0+512),w
  3489  07CD  0084               	movwf	4
  3490  07CE  083F               	movf	(main@TxDataBuffer+1)^(0+512),w
  3491  07CF  0085               	movwf	5
  3492  07D0  3040               	movlw	64
  3493  07D1  00A8               	movwf	??_main^(0+512)
  3494  07D2  0828               	movf	??_main^(0+512),w
  3495  07D3  1903               	skipnz
  3496  07D4  2FD9               	goto	l5277
  3497  07D5                     u578m0:	
  3498  07D5  0012               	moviw fsr0++
  3499  07D6  001E               	movwi fsr1++
  3500  07D7  0BA8               	decfsz	??_main^(0+512),f
  3501  07D8  2FD5               	goto	u578m0
  3502  07D9                     l5277:	
  3503                           
  3504                           ;main.c: 175: usb_send_in_buffer(1, 64);
  3505  07D9  3040               	movlw	64
  3506  07DA  0021               	movlb	1	; select bank1
  3507  07DB  00B4               	movwf	usb_send_in_buffer@len^(0+128)
  3508  07DC  3000               	movlw	0
  3509  07DD  00B5               	movwf	(usb_send_in_buffer@len^(0+128)+1)
  3510  07DE  3001               	movlw	1
  3511  07DF  3193  23CE  3185   	fcall	_usb_send_in_buffer
  3512  07E2                     l5279:	
  3513                           
  3514                           ;main.c: 177: };main.c: 178: };main.c: 179: usb_arm_out_endpoint(1);
  3515  07E2  3001               	movlw	1
  3516  07E3  3188  206E  3185   	fcall	_usb_arm_out_endpoint
  3517  07E6  2D98               	goto	l5171
  3518  07E7                     __end_of_main:	
  3519                           
  3520                           	psect	text1
  3521  13CE                     __ptext1:	
  3522 ;; *************** function _usb_send_in_buffer *****************
  3523 ;; Defined at:
  3524 ;;		line 1525 in file "../../../usb/src/usb.c"
  3525 ;; Parameters:    Size  Location     Type
  3526 ;;  endpoint        1    wreg     unsigned char 
  3527 ;;  len             2   20[BANK1 ] unsigned int 
  3528 ;; Auto vars:     Size  Location     Type
  3529 ;;  endpoint        1   10[BANK3 ] unsigned char 
  3530 ;;  bd              1   11[BANK3 ] PTR struct buffer_descri
  3531 ;;		 -> bds(16), 
  3532 ;;  pid             1    9[BANK3 ] unsigned char 
  3533 ;; Return value:  Size  Location     Type
  3534 ;;                  1    wreg      void 
  3535 ;; Registers used:
  3536 ;;		wreg, fsr1l, fsr1h, status,2, status,0, pclath, cstack
  3537 ;; Tracked objects:
  3538 ;;		On entry : 1F/1
  3539 ;;		On exit  : 1C/0
  3540 ;;		Unchanged: 0/0
  3541 ;; Data sizes:     COMMON   BANK0   BANK1   BANK2   BANK3   BANK4   BANK5   BANK6   BANK7   BANK8   BANK9  BANK10  BANK1
      +1  BANK12
  3542 ;;      Params:         0       0       2       0       0       0       0       0       0       0       0       0       
      +0       0
  3543 ;;      Locals:         0       0       0       0       3       0       0       0       0       0       0       0       
      +0       0
  3544 ;;      Temps:          0       0       0       0       5       0       0       0       0       0       0       0       
      +0       0
  3545 ;;      Totals:         0       0       2       0       8       0       0       0       0       0       0       0       
      +0       0
  3546 ;;Total ram usage:       10 bytes
  3547 ;; Hardware stack levels used:    1
  3548 ;; Hardware stack levels required when called:   12
  3549 ;; This function calls:
  3550 ;;		___wmul
  3551 ;;		_usb_in_endpoint_halted
  3552 ;; This function is called by:
  3553 ;;		_main
  3554 ;; This function uses a non-reentrant model
  3555 ;;
  3556                           
  3557                           
  3558                           ;psect for function _usb_send_in_buffer
  3559  13CE                     _usb_send_in_buffer:	
  3560                           
  3561                           ;incstack = 0
  3562                           ; Regs used in _usb_send_in_buffer: [wreg+fsr1l+fsr1h+status,2+status,0+pclath+cstack]
  3563                           ;usb_send_in_buffer@endpoint stored from wreg
  3564  13CE  0023               	movlb	3	; select bank3
  3565  13CF  00CA               	movwf	usb_send_in_buffer@endpoint^(0+384)
  3566                           
  3567                           ;usb.c: 1531: if (g_configuration > 0 && !usb_in_endpoint_halted(endpoint)) {
  3568  13D0  0020               	movlb	0	; select bank0
  3569  13D1  086F               	movf	_g_configuration,w
  3570  13D2  1903               	btfsc	3,2
  3571  13D3  0008               	return
  3572  13D4  0023               	movlb	3	; select bank3
  3573  13D5  084A               	movf	usb_send_in_buffer@endpoint^(0+384),w
  3574  13D6  3190  2004  3193   	fcall	_usb_in_endpoint_halted
  3575  13D9  3A00               	xorlw	0
  3576  13DA  1D03               	skipz
  3577  13DB  0008               	return
  3578                           
  3579                           ;usb.c: 1532: uint8_t pid;;usb.c: 1533: struct buffer_descriptor *bd;;usb.c: 1551: bd = 
      +                          &bds[(endpoint) * 2 + 1];
  3580  13DC  084A               	movf	usb_send_in_buffer@endpoint^(0+384),w
  3581  13DD  00C4               	movwf	??_usb_send_in_buffer^(0+384)
  3582  13DE  3002               	movlw	2
  3583  13DF                     u5525:	
  3584  13DF  35C4               	lslf	??_usb_send_in_buffer^(0+384),f
  3585  13E0  3EFF               	addlw	-1
  3586  13E1  1D03               	skipz
  3587  13E2  2BDF               	goto	u5525
  3588  13E3  3544               	lslf	??_usb_send_in_buffer^(0+384),w
  3589  13E4  3E24               	addlw	36
  3590  13E5  00C5               	movwf	(??_usb_send_in_buffer+1)^(0+384)
  3591  13E6  0845               	movf	(??_usb_send_in_buffer+1)^(0+384),w
  3592  13E7  00CB               	movwf	usb_send_in_buffer@bd^(0+384)
  3593                           
  3594                           ;usb.c: 1552: pid = (ep_buf[endpoint].flags & 0x8)? 1 : 0;
  3595  13E8  084A               	movf	usb_send_in_buffer@endpoint^(0+384),w
  3596  13E9  00C4               	movwf	??_usb_send_in_buffer^(0+384)
  3597  13EA  01C5               	clrf	(??_usb_send_in_buffer^(0+384)+1)
  3598  13EB  0844               	movf	??_usb_send_in_buffer^(0+384),w
  3599  13EC  0021               	movlb	1	; select bank1
  3600  13ED  00AD               	movwf	___wmul@multiplier^(0+128)
  3601  13EE  0023               	movlb	3	; select bank3
  3602  13EF  0845               	movf	(??_usb_send_in_buffer+1)^(0+384),w
  3603  13F0  0021               	movlb	1	; select bank1
  3604  13F1  00AE               	movwf	(___wmul@multiplier+1)^(0+128)
  3605  13F2  3007               	movlw	7
  3606  13F3  00AF               	movwf	___wmul@multiplicand^(0+128)
  3607  13F4  3000               	movlw	0
  3608  13F5  00B0               	movwf	(___wmul@multiplicand^(0+128)+1)
  3609  13F6  319E  26C9  3193   	fcall	___wmul
  3610  13F9  305E               	movlw	low (_ep_buf+6)
  3611  13FA  0023               	movlb	3	; select bank3
  3612  13FB  00C6               	movwf	(??_usb_send_in_buffer+2)^(0+384)
  3613  13FC  3002               	movlw	high (_ep_buf+6)
  3614  13FD  00C7               	movwf	((??_usb_send_in_buffer+2)^(0+384)+1)
  3615  13FE  0021               	movlb	1	; select bank1
  3616  13FF  082D               	movf	?___wmul^(0+128),w
  3617  1400  0023               	movlb	3	; select bank3
  3618  1401  0746               	addwf	(??_usb_send_in_buffer+2)^(0+384),w
  3619  1402  0086               	movwf	6
  3620  1403  0021               	movlb	1	; select bank1
  3621  1404  082E               	movf	(?___wmul+1)^(0+128),w
  3622  1405  0023               	movlb	3	; select bank3
  3623  1406  3D47               	addwfc	(??_usb_send_in_buffer+3)^(0+384),w
  3624  1407  0087               	movwf	7
  3625  1408  1D81               	btfss	1,3
  3626  1409  2C0C               	goto	u5530
  3627  140A  3001               	movlw	1
  3628  140B  2C0D               	goto	u5540
  3629  140C                     u5530:	
  3630  140C  3000               	movlw	0
  3631  140D                     u5540:	
  3632  140D  00C8               	movwf	(??_usb_send_in_buffer+4)^(0+384)
  3633  140E  0848               	movf	(??_usb_send_in_buffer+4)^(0+384),w
  3634  140F  00C9               	movwf	usb_send_in_buffer@pid^(0+384)
  3635                           
  3636                           ;usb.c: 1553: bd->STAT.BDnSTAT = 0;
  3637  1410  084B               	movf	usb_send_in_buffer@bd^(0+384),w
  3638  1411  0086               	movwf	6
  3639  1412  0187               	clrf	7
  3640  1413  0181               	clrf	1
  3641                           
  3642                           ;usb.c: 1555: if (pid)
  3643  1414  0849               	movf	usb_send_in_buffer@pid^(0+384),w
  3644  1415  1903               	btfsc	3,2
  3645  1416  2C22               	goto	l5079
  3646  1417  0021               	movlb	1	; select bank1
  3647  1418  0834               	movf	usb_send_in_buffer@len^(0+128),w
  3648  1419  0023               	movlb	3	; select bank3
  3649  141A  00C4               	movwf	??_usb_send_in_buffer^(0+384)
  3650  141B  0A4B               	incf	usb_send_in_buffer@bd^(0+384),w
  3651  141C  0086               	movwf	6
  3652  141D  0187               	clrf	7
  3653  141E  0844               	movf	??_usb_send_in_buffer^(0+384),w
  3654  141F  0081               	movwf	1
  3655  1420  30C8               	movlw	200
  3656  1421  2C2C               	goto	L2
  3657  1422                     l5079:	
  3658  1422  0021               	movlb	1	; select bank1
  3659  1423  0834               	movf	usb_send_in_buffer@len^(0+128),w
  3660  1424  0023               	movlb	3	; select bank3
  3661  1425  00C4               	movwf	??_usb_send_in_buffer^(0+384)
  3662  1426  0A4B               	incf	usb_send_in_buffer@bd^(0+384),w
  3663  1427  0086               	movwf	6
  3664  1428  0187               	clrf	7
  3665  1429  0844               	movf	??_usb_send_in_buffer^(0+384),w
  3666  142A  0081               	movwf	1
  3667  142B  3088               	movlw	136
  3668  142C                     L2:	
  3669  142C  00C4               	movwf	??_usb_send_in_buffer^(0+384)
  3670  142D  084B               	movf	usb_send_in_buffer@bd^(0+384),w
  3671  142E  0086               	movwf	6
  3672  142F  0187               	clrf	7
  3673  1430  0844               	movf	??_usb_send_in_buffer^(0+384),w
  3674  1431  0081               	movwf	1
  3675                           
  3676                           ;usb.c: 1562: ep_buf[endpoint].flags ^= 0x8;
  3677  1432  3008               	movlw	8
  3678  1433  00C4               	movwf	??_usb_send_in_buffer^(0+384)
  3679  1434  084A               	movf	usb_send_in_buffer@endpoint^(0+384),w
  3680  1435  00C5               	movwf	(??_usb_send_in_buffer+1)^(0+384)
  3681  1436  01C6               	clrf	((??_usb_send_in_buffer+1)^(0+384)+1)
  3682  1437  0845               	movf	(??_usb_send_in_buffer+1)^(0+384),w
  3683  1438  0021               	movlb	1	; select bank1
  3684  1439  00AD               	movwf	___wmul@multiplier^(0+128)
  3685  143A  0023               	movlb	3	; select bank3
  3686  143B  0846               	movf	(??_usb_send_in_buffer+2)^(0+384),w
  3687  143C  0021               	movlb	1	; select bank1
  3688  143D  00AE               	movwf	(___wmul@multiplier+1)^(0+128)
  3689  143E  3007               	movlw	7
  3690  143F  00AF               	movwf	___wmul@multiplicand^(0+128)
  3691  1440  3000               	movlw	0
  3692  1441  00B0               	movwf	(___wmul@multiplicand^(0+128)+1)
  3693  1442  319E  26C9         	fcall	___wmul
  3694  1444  305E               	movlw	low (_ep_buf+6)
  3695  1445  0023               	movlb	3	; select bank3
  3696  1446  00C7               	movwf	(??_usb_send_in_buffer+3)^(0+384)
  3697  1447  3002               	movlw	high (_ep_buf+6)
  3698  1448  00C8               	movwf	((??_usb_send_in_buffer+3)^(0+384)+1)
  3699  1449  0021               	movlb	1	; select bank1
  3700  144A  082D               	movf	?___wmul^(0+128),w
  3701  144B  0023               	movlb	3	; select bank3
  3702  144C  0747               	addwf	(??_usb_send_in_buffer+3)^(0+384),w
  3703  144D  0086               	movwf	6
  3704  144E  0021               	movlb	1	; select bank1
  3705  144F  082E               	movf	(?___wmul+1)^(0+128),w
  3706  1450  0023               	movlb	3	; select bank3
  3707  1451  3D48               	addwfc	(??_usb_send_in_buffer+4)^(0+384),w
  3708  1452  0087               	movwf	7
  3709  1453  0844               	movf	??_usb_send_in_buffer^(0+384),w
  3710  1454  0681               	xorwf	1,f
  3711  1455  0008               	return
  3712  1456                     __end_of_usb_send_in_buffer:	
  3713                           
  3714                           	psect	text2
  3715  1004                     __ptext2:	
  3716 ;; *************** function _usb_in_endpoint_halted *****************
  3717 ;; Defined at:
  3718 ;;		line 1588 in file "../../../usb/src/usb.c"
  3719 ;; Parameters:    Size  Location     Type
  3720 ;;  endpoint        1    wreg     unsigned char 
  3721 ;; Auto vars:     Size  Location     Type
  3722 ;;  endpoint        1   19[BANK1 ] unsigned char 
  3723 ;; Return value:  Size  Location     Type
  3724 ;;                  1    wreg      unsigned char 
  3725 ;; Registers used:
  3726 ;;		wreg, fsr1l, fsr1h, status,2, status,0, pclath, cstack
  3727 ;; Tracked objects:
  3728 ;;		On entry : 18/4
  3729 ;;		On exit  : 1F/3
  3730 ;;		Unchanged: 0/0
  3731 ;; Data sizes:     COMMON   BANK0   BANK1   BANK2   BANK3   BANK4   BANK5   BANK6   BANK7   BANK8   BANK9  BANK10  BANK1
      +1  BANK12
  3732 ;;      Params:         0       0       0       0       0       0       0       0       0       0       0       0       
      +0       0
  3733 ;;      Locals:         0       0       1       0       0       0       0       0       0       0       0       0       
      +0       0
  3734 ;;      Temps:          0       0       0       0       4       0       0       0       0       0       0       0       
      +0       0
  3735 ;;      Totals:         0       0       1       0       4       0       0       0       0       0       0       0       
      +0       0
  3736 ;;Total ram usage:        5 bytes
  3737 ;; Hardware stack levels used:    1
  3738 ;; Hardware stack levels required when called:   11
  3739 ;; This function calls:
  3740 ;;		___wmul
  3741 ;; This function is called by:
  3742 ;;		_usb_send_in_buffer
  3743 ;;		_main
  3744 ;; This function uses a non-reentrant model
  3745 ;;
  3746                           
  3747                           
  3748                           ;psect for function _usb_in_endpoint_halted
  3749  1004                     _usb_in_endpoint_halted:	
  3750                           
  3751                           ;incstack = 0
  3752                           ; Regs used in _usb_in_endpoint_halted: [wreg+fsr1l+fsr1h+status,2+status,0+pclath+cstac
      +                          k]
  3753                           ;usb_in_endpoint_halted@endpoint stored from wreg
  3754  1004  0021               	movlb	1	; select bank1
  3755  1005  00B3               	movwf	usb_in_endpoint_halted@endpoint^(0+128)
  3756                           
  3757                           ;usb.c: 1590: return ep_buf[endpoint].flags & 0x2;
  3758  1006  0833               	movf	usb_in_endpoint_halted@endpoint^(0+128),w
  3759  1007  0023               	movlb	3	; select bank3
  3760  1008  00C0               	movwf	??_usb_in_endpoint_halted^(0+384)
  3761  1009  01C1               	clrf	(??_usb_in_endpoint_halted^(0+384)+1)
  3762  100A  0840               	movf	??_usb_in_endpoint_halted^(0+384),w
  3763  100B  0021               	movlb	1	; select bank1
  3764  100C  00AD               	movwf	___wmul@multiplier^(0+128)
  3765  100D  0023               	movlb	3	; select bank3
  3766  100E  0841               	movf	(??_usb_in_endpoint_halted+1)^(0+384),w
  3767  100F  0021               	movlb	1	; select bank1
  3768  1010  00AE               	movwf	(___wmul@multiplier+1)^(0+128)
  3769  1011  3007               	movlw	7
  3770  1012  00AF               	movwf	___wmul@multiplicand^(0+128)
  3771  1013  3000               	movlw	0
  3772  1014  00B0               	movwf	(___wmul@multiplicand^(0+128)+1)
  3773  1015  319E  26C9         	fcall	___wmul
  3774  1017  305E               	movlw	low (_ep_buf+6)
  3775  1018  0023               	movlb	3	; select bank3
  3776  1019  00C2               	movwf	(??_usb_in_endpoint_halted+2)^(0+384)
  3777  101A  3002               	movlw	high (_ep_buf+6)
  3778  101B  00C3               	movwf	((??_usb_in_endpoint_halted+2)^(0+384)+1)
  3779  101C  0021               	movlb	1	; select bank1
  3780  101D  082D               	movf	?___wmul^(0+128),w
  3781  101E  0023               	movlb	3	; select bank3
  3782  101F  0742               	addwf	(??_usb_in_endpoint_halted+2)^(0+384),w
  3783  1020  0086               	movwf	6
  3784  1021  0021               	movlb	1	; select bank1
  3785  1022  082E               	movf	(?___wmul+1)^(0+128),w
  3786  1023  0023               	movlb	3	; select bank3
  3787  1024  3D43               	addwfc	(??_usb_in_endpoint_halted+3)^(0+384),w
  3788  1025  0087               	movwf	7
  3789  1026  0801               	movf	1,w
  3790  1027  3902               	andlw	2
  3791  1028  0008               	return
  3792  1029                     __end_of_usb_in_endpoint_halted:	
  3793                           
  3794                           	psect	text3
  3795  1E1F                     __ptext3:	
  3796 ;; *************** function _usb_out_endpoint_has_data *****************
  3797 ;; Defined at:
  3798 ;;		line 1610 in file "../../../usb/src/usb.c"
  3799 ;; Parameters:    Size  Location     Type
  3800 ;;  endpoint        1    wreg     unsigned char 
  3801 ;; Auto vars:     Size  Location     Type
  3802 ;;  endpoint        1   14[BANK1 ] unsigned char 
  3803 ;; Return value:  Size  Location     Type
  3804 ;;                  1    wreg      unsigned char 
  3805 ;; Registers used:
  3806 ;;		wreg, fsr1l, fsr1h, status,2, status,0
  3807 ;; Tracked objects:
  3808 ;;		On entry : 1F/0
  3809 ;;		On exit  : 1F/1
  3810 ;;		Unchanged: 0/0
  3811 ;; Data sizes:     COMMON   BANK0   BANK1   BANK2   BANK3   BANK4   BANK5   BANK6   BANK7   BANK8   BANK9  BANK10  BANK1
      +1  BANK12
  3812 ;;      Params:         0       0       0       0       0       0       0       0       0       0       0       0       
      +0       0
  3813 ;;      Locals:         0       0       1       0       0       0       0       0       0       0       0       0       
      +0       0
  3814 ;;      Temps:          0       0       1       0       0       0       0       0       0       0       0       0       
      +0       0
  3815 ;;      Totals:         0       0       2       0       0       0       0       0       0       0       0       0       
      +0       0
  3816 ;;Total ram usage:        2 bytes
  3817 ;; Hardware stack levels used:    1
  3818 ;; Hardware stack levels required when called:   10
  3819 ;; This function calls:
  3820 ;;		Nothing
  3821 ;; This function is called by:
  3822 ;;		_main
  3823 ;; This function uses a non-reentrant model
  3824 ;;
  3825                           
  3826                           
  3827                           ;psect for function _usb_out_endpoint_has_data
  3828  1E1F                     _usb_out_endpoint_has_data:	
  3829                           
  3830                           ;incstack = 0
  3831                           ; Regs used in _usb_out_endpoint_has_data: [wreg+fsr1l+fsr1h+status,2+status,0]
  3832                           ;usb_out_endpoint_has_data@endpoint stored from wreg
  3833  1E1F  0021               	movlb	1	; select bank1
  3834  1E20  00AE               	movwf	usb_out_endpoint_has_data@endpoint^(0+128)
  3835                           
  3836                           ;usb.c: 1616: return !bds[(endpoint) * 2].STAT.UOWN;
  3837  1E21  082E               	movf	usb_out_endpoint_has_data@endpoint^(0+128),w
  3838  1E22  00AD               	movwf	??_usb_out_endpoint_has_data^(0+128)
  3839  1E23  3002               	movlw	2
  3840  1E24                     u4605:	
  3841  1E24  35AD               	lslf	??_usb_out_endpoint_has_data^(0+128),f
  3842  1E25  3EFF               	addlw	-1
  3843  1E26  1D03               	skipz
  3844  1E27  2E24               	goto	u4605
  3845  1E28  352D               	lslf	??_usb_out_endpoint_has_data^(0+128),w
  3846  1E29  3E20               	addlw	32
  3847  1E2A  0086               	movwf	6
  3848  1E2B  0187               	clrf	7
  3849  1E2C  1003               	clrc
  3850  1E2D  1F81               	btfss	1,7
  3851  1E2E  1403               	setc
  3852  1E2F  3000               	movlw	0
  3853  1E30  3D09               	addwfc	9,w
  3854  1E31  0008               	return
  3855  1E32                     __end_of_usb_out_endpoint_has_data:	
  3856                           
  3857                           	psect	text4
  3858  1309                     __ptext4:	
  3859 ;; *************** function _usb_init *****************
  3860 ;; Defined at:
  3861 ;;		line 561 in file "../../../usb/src/usb.c"
  3862 ;; Parameters:    Size  Location     Type
  3863 ;;		None
  3864 ;; Auto vars:     Size  Location     Type
  3865 ;;  ep              2   28[BANK3 ] PTR volatile struct .
  3866 ;;		 -> UEP0(1), 
  3867 ;;  i               1   27[BANK3 ] unsigned char 
  3868 ;; Return value:  Size  Location     Type
  3869 ;;                  1    wreg      void 
  3870 ;; Registers used:
  3871 ;;		wreg, fsr1l, fsr1h, status,2, status,0, pclath, cstack
  3872 ;; Tracked objects:
  3873 ;;		On entry : 1F/4
  3874 ;;		On exit  : 1F/1
  3875 ;;		Unchanged: 0/0
  3876 ;; Data sizes:     COMMON   BANK0   BANK1   BANK2   BANK3   BANK4   BANK5   BANK6   BANK7   BANK8   BANK9  BANK10  BANK1
      +1  BANK12
  3877 ;;      Params:         0       0       0       0       0       0       0       0       0       0       0       0       
      +0       0
  3878 ;;      Locals:         0       0       0       0       3       0       0       0       0       0       0       0       
      +0       0
  3879 ;;      Temps:          0       0       0       0       2       0       0       0       0       0       0       0       
      +0       0
  3880 ;;      Totals:         0       0       0       0       5       0       0       0       0       0       0       0       
      +0       0
  3881 ;;Total ram usage:        5 bytes
  3882 ;; Hardware stack levels used:    1
  3883 ;; Hardware stack levels required when called:   13
  3884 ;; This function calls:
  3885 ;;		_init_endpoints
  3886 ;;		_memset
  3887 ;;		_reset_ep0_data_stage
  3888 ;; This function is called by:
  3889 ;;		_main
  3890 ;; This function uses a non-reentrant model
  3891 ;;
  3892                           
  3893                           
  3894                           ;psect for function _usb_init
  3895  1309                     _usb_init:	
  3896                           
  3897                           ;incstack = 0
  3898                           ; Regs used in _usb_init: [wreg+fsr1l+fsr1h+status,2+status,0+pclath+cstack]
  3899                           ;usb.c: 563: uint8_t i;;usb.c: 567: do { UCFGbits.PPB0 = 0 & 1; UCFGbits.PPB1 = (0 & 2)?
      +                           1: 0; } while (0);
  3900  1309  003D               	movlb	29	; select bank29
  3901  130A  1011               	bcf	17,0	;volatile
  3902  130B  1091               	bcf	17,1	;volatile
  3903                           
  3904                           ;usb.c: 573: UIE = 0x0;
  3905  130C  0192               	clrf	18	;volatile
  3906                           
  3907                           ;usb.c: 574: UEIE = 0x0;
  3908  130D  0197               	clrf	23	;volatile
  3909                           
  3910                           ;usb.c: 576: UCONbits.USBEN = 1;
  3911  130E  158E               	bsf	14,3	;volatile
  3912                           
  3913                           ;usb.c: 584: UCFGbits.UPUEN = 1;
  3914  130F  1611               	bsf	17,4	;volatile
  3915                           
  3916                           ;usb.c: 592: UCFGbits.FSEN = 1;
  3917  1310  1511               	bsf	17,2	;volatile
  3918                           
  3919                           ;usb.c: 595: UIRbits.TRNIF = 0;
  3920  1311  1190               	bcf	16,3	;volatile
  3921                           
  3922                           ;usb.c: 596: UIRbits.TRNIF = 0;
  3923  1312  1190               	bcf	16,3	;volatile
  3924                           
  3925                           ;usb.c: 597: UIRbits.TRNIF = 0;
  3926  1313  1190               	bcf	16,3	;volatile
  3927                           
  3928                           ;usb.c: 598: UIRbits.TRNIF = 0;
  3929  1314  1190               	bcf	16,3	;volatile
  3930                           
  3931                           ;usb.c: 600: UIR = 0;
  3932  1315  0190               	clrf	16	;volatile
  3933                           
  3934                           ;usb.c: 603: UIEbits.TRNIE = 1;
  3935  1316  1592               	bsf	18,3	;volatile
  3936                           
  3937                           ;usb.c: 604: UIEbits.STALLIE = 1;
  3938  1317  1692               	bsf	18,5	;volatile
  3939                           
  3940                           ;usb.c: 605: UIEbits.URSTIE = 1;
  3941  1318  1412               	bsf	18,0	;volatile
  3942                           
  3943                           ;usb.c: 607: UIEbits.SOFIE = 1;
  3944  1319  1712               	bsf	18,6	;volatile
  3945                           
  3946                           ;usb.c: 650: memset(((UEP1bits_t*) (&UEP0 + 1 * (0))), 0x0, sizeof(*((UEP1bits_t*) (&UEP
      +                          0 + 1 * (0)))) * 16);
  3947  131A  3098               	movlw	152
  3948  131B  0021               	movlb	1	; select bank1
  3949  131C  00AD               	movwf	memset@p1^(0+128)
  3950  131D  300E               	movlw	14
  3951  131E  00AE               	movwf	(memset@p1^(0+128)+1)
  3952  131F  3000               	movlw	0
  3953  1320  00AF               	movwf	memset@c^(0+128)
  3954  1321  00B0               	movwf	(memset@c+1)^(0+128)
  3955  1322  3010               	movlw	16
  3956  1323  00B1               	movwf	memset@n^(0+128)
  3957  1324  3000               	movlw	0
  3958  1325  00B2               	movwf	(memset@n^(0+128)+1)
  3959  1326  3187  27E7  3193   	fcall	_memset
  3960                           
  3961                           ;usb.c: 653: ((UEP1bits_t*) (&UEP0 + 1 * (0)))->EPHSHK = 1;
  3962  1329  003D               	movlb	29	; select bank29
  3963  132A  1618               	bsf	24,4
  3964                           
  3965                           ;usb.c: 654: ((UEP1bits_t*) (&UEP0 + 1 * (0)))->EPCONDIS = 0;
  3966  132B  1198               	bcf	24,3
  3967                           
  3968                           ;usb.c: 655: ((UEP1bits_t*) (&UEP0 + 1 * (0)))->EPOUTEN = 1;
  3969  132C  1518               	bsf	24,2
  3970                           
  3971                           ;usb.c: 656: ((UEP1bits_t*) (&UEP0 + 1 * (0)))->EPINEN = 1;
  3972  132D  1498               	bsf	24,1
  3973                           
  3974                           ;usb.c: 657: ((UEP1bits_t*) (&UEP0 + 1 * (0)))->EPSTALL = 0;
  3975  132E  1018               	bcf	24,0
  3976                           
  3977                           ;usb.c: 659: for (i = 1; i <= 1; i++) {
  3978  132F  0023               	movlb	3	; select bank3
  3979  1330  01DB               	clrf	usb_init@i^(0+384)
  3980  1331  0ADB               	incf	usb_init@i^(0+384),f
  3981  1332                     l5037:	
  3982                           
  3983                           ;usb.c: 660: volatile UEP1bits_t *ep = ((UEP1bits_t*) (&UEP0 + 1 * (i)));
  3984  1332  085B               	movf	usb_init@i^(0+384),w
  3985  1333  3E98               	addlw	152
  3986  1334  00D9               	movwf	??_usb_init^(0+384)
  3987  1335  01DA               	clrf	(??_usb_init^(0+384)+1)
  3988  1336  300E               	movlw	14
  3989  1337  3DDA               	addwfc	(??_usb_init^(0+384)+1),f
  3990  1338  0859               	movf	??_usb_init^(0+384),w
  3991  1339  00DC               	movwf	usb_init@ep^(0+384)
  3992  133A  085A               	movf	(??_usb_init+1)^(0+384),w
  3993  133B  00DD               	movwf	(usb_init@ep+1)^(0+384)
  3994                           
  3995                           ;usb.c: 661: ep->EPHSHK = 1;
  3996  133C  085C               	movf	usb_init@ep^(0+384),w
  3997  133D  0086               	movwf	6
  3998  133E  085D               	movf	(usb_init@ep+1)^(0+384),w
  3999  133F  0087               	movwf	7
  4000  1340  1601               	bsf	1,4
  4001                           
  4002                           ;usb.c: 662: ep->EPCONDIS = 1;
  4003  1341  085C               	movf	usb_init@ep^(0+384),w
  4004  1342  0086               	movwf	6
  4005  1343  085D               	movf	(usb_init@ep+1)^(0+384),w
  4006  1344  0087               	movwf	7
  4007  1345  1581               	bsf	1,3
  4008                           
  4009                           ;usb.c: 663: ep->EPOUTEN = 1;
  4010  1346  085C               	movf	usb_init@ep^(0+384),w
  4011  1347  0086               	movwf	6
  4012  1348  085D               	movf	(usb_init@ep+1)^(0+384),w
  4013  1349  0087               	movwf	7
  4014  134A  1501               	bsf	1,2
  4015                           
  4016                           ;usb.c: 664: ep->EPINEN = 1;
  4017  134B  085C               	movf	usb_init@ep^(0+384),w
  4018  134C  0086               	movwf	6
  4019  134D  085D               	movf	(usb_init@ep+1)^(0+384),w
  4020  134E  0087               	movwf	7
  4021  134F  1481               	bsf	1,1
  4022                           
  4023                           ;usb.c: 665: ep->EPSTALL = 0;
  4024  1350  085C               	movf	usb_init@ep^(0+384),w
  4025  1351  0086               	movwf	6
  4026  1352  085D               	movf	(usb_init@ep+1)^(0+384),w
  4027  1353  0087               	movwf	7
  4028  1354  1001               	bcf	1,0
  4029  1355  3001               	movlw	1
  4030  1356  00D9               	movwf	??_usb_init^(0+384)
  4031  1357  0859               	movf	??_usb_init^(0+384),w
  4032  1358  07DB               	addwf	usb_init@i^(0+384),f
  4033  1359  3002               	movlw	2
  4034  135A  025B               	subwf	usb_init@i^(0+384),w
  4035  135B  1C03               	skipc
  4036  135C  2B32               	goto	l5037
  4037                           
  4038                           ;usb.c: 666: };usb.c: 669: UADDR = 0x0;
  4039  135D  003D               	movlb	29	; select bank29
  4040  135E  0196               	clrf	22	;volatile
  4041                           
  4042                           ;usb.c: 670: addr_pending = 0;
  4043  135F  0023               	movlb	3	; select bank3
  4044  1360  01EF               	clrf	_addr_pending^(0+384)
  4045                           
  4046                           ;usb.c: 671: g_configuration = 0;
  4047  1361  0020               	movlb	0	; select bank0
  4048  1362  01EF               	clrf	_g_configuration
  4049                           
  4050                           ;usb.c: 673: init_endpoints();
  4051  1363  318C  24B6  3193   	fcall	_init_endpoints
  4052                           
  4053                           ;usb.c: 683: reset_ep0_data_stage();
  4054  1366  319D  25C0         	fcall	_reset_ep0_data_stage
  4055                           
  4056                           ;usb.c: 686: PIE2bits.USBIE = 1;
  4057  1368  1512               	bsf	18,2	;volatile
  4058  1369  0008               	return
  4059  136A                     __end_of_usb_init:	
  4060                           
  4061                           	psect	text5
  4062  1DC0                     __ptext5:	
  4063 ;; *************** function _reset_ep0_data_stage *****************
  4064 ;; Defined at:
  4065 ;;		line 474 in file "../../../usb/src/usb.c"
  4066 ;; Parameters:    Size  Location     Type
  4067 ;;		None
  4068 ;; Auto vars:     Size  Location     Type
  4069 ;;		None
  4070 ;; Return value:  Size  Location     Type
  4071 ;;                  1    wreg      void 
  4072 ;; Registers used:
  4073 ;;		status,2
  4074 ;; Tracked objects:
  4075 ;;		On entry : 1F/1D
  4076 ;;		On exit  : 1F/1
  4077 ;;		Unchanged: 0/0
  4078 ;; Data sizes:     COMMON   BANK0   BANK1   BANK2   BANK3   BANK4   BANK5   BANK6   BANK7   BANK8   BANK9  BANK10  BANK1
      +1  BANK12
  4079 ;;      Params:         0       0       0       0       0       0       0       0       0       0       0       0       
      +0       0
  4080 ;;      Locals:         0       0       0       0       0       0       0       0       0       0       0       0       
      +0       0
  4081 ;;      Temps:          0       0       0       0       0       0       0       0       0       0       0       0       
      +0       0
  4082 ;;      Totals:         0       0       0       0       0       0       0       0       0       0       0       0       
      +0       0
  4083 ;;Total ram usage:        0 bytes
  4084 ;; Hardware stack levels used:    1
  4085 ;; Hardware stack levels required when called:   10
  4086 ;; This function calls:
  4087 ;;		Nothing
  4088 ;; This function is called by:
  4089 ;;		_usb_init
  4090 ;; This function uses a non-reentrant model
  4091 ;;
  4092                           
  4093                           
  4094                           ;psect for function _reset_ep0_data_stage
  4095  1DC0                     _reset_ep0_data_stage:	
  4096                           
  4097                           ;usb.c: 476: ep0_data_stage_in_buffer = (0);
  4098                           
  4099                           ;incstack = 0
  4100                           ; Regs used in _reset_ep0_data_stage: [status,2]
  4101  1DC0  0021               	movlb	1	; select bank1
  4102  1DC1  01B8               	clrf	_ep0_data_stage_in_buffer^(0+128)
  4103  1DC2  01B9               	clrf	(_ep0_data_stage_in_buffer+1)^(0+128)
  4104                           
  4105                           ;usb.c: 477: ep0_data_stage_out_buffer = (0);
  4106  1DC3  0020               	movlb	0	; select bank0
  4107  1DC4  01EE               	clrf	_ep0_data_stage_out_buffer
  4108                           
  4109                           ;usb.c: 478: ep0_data_stage_buf_remaining = 0;
  4110  1DC5  0021               	movlb	1	; select bank1
  4111  1DC6  01B6               	clrf	_ep0_data_stage_buf_remaining^(0+128)
  4112  1DC7  01B7               	clrf	(_ep0_data_stage_buf_remaining+1)^(0+128)
  4113                           
  4114                           ;usb.c: 479: ep0_data_stage_callback = (0);
  4115  1DC8  01BA               	clrf	_ep0_data_stage_callback^(0+128)
  4116  1DC9  01BB               	clrf	(_ep0_data_stage_callback+1)^(0+128)
  4117  1DCA  0008               	return
  4118  1DCB                     __end_of_reset_ep0_data_stage:	
  4119                           
  4120                           	psect	text6
  4121  0CB6                     __ptext6:	
  4122 ;; *************** function _init_endpoints *****************
  4123 ;; Defined at:
  4124 ;;		line 495 in file "../../../usb/src/usb.c"
  4125 ;; Parameters:    Size  Location     Type
  4126 ;;		None
  4127 ;; Auto vars:     Size  Location     Type
  4128 ;;  i               1   24[BANK3 ] unsigned char 
  4129 ;; Return value:  Size  Location     Type
  4130 ;;                  1    wreg      void 
  4131 ;; Registers used:
  4132 ;;		wreg, fsr1l, fsr1h, status,2, status,0, pclath, cstack
  4133 ;; Tracked objects:
  4134 ;;		On entry : 1F/0
  4135 ;;		On exit  : 1F/1D
  4136 ;;		Unchanged: 0/0
  4137 ;; Data sizes:     COMMON   BANK0   BANK1   BANK2   BANK3   BANK4   BANK5   BANK6   BANK7   BANK8   BANK9  BANK10  BANK1
      +1  BANK12
  4138 ;;      Params:         0       0       0       0       0       0       0       0       0       0       0       0       
      +0       0
  4139 ;;      Locals:         0       0       0       0       3       0       0       0       0       0       0       0       
      +0       0
  4140 ;;      Temps:          0       0       0       0       6       0       0       0       0       0       0       0       
      +0       0
  4141 ;;      Totals:         0       0       0       0       9       0       0       0       0       0       0       0       
      +0       0
  4142 ;;Total ram usage:        9 bytes
  4143 ;; Hardware stack levels used:    1
  4144 ;; Hardware stack levels required when called:   12
  4145 ;; This function calls:
  4146 ;;		___wmul
  4147 ;;		_memset
  4148 ;;		_pic16_linear_addr
  4149 ;; This function is called by:
  4150 ;;		_usb_init
  4151 ;; This function uses a non-reentrant model
  4152 ;;
  4153                           
  4154                           
  4155                           ;psect for function _init_endpoints
  4156  0CB6                     _init_endpoints:	
  4157                           
  4158                           ;usb.c: 497: uint8_t i;;usb.c: 501: UCONbits.PPBRST = 1;
  4159                           
  4160                           ;incstack = 0
  4161                           ; Regs used in _init_endpoints: [wreg+fsr1l+fsr1h+status,2+status,0+pclath+cstack]
  4162  0CB6  003D               	movlb	29	; select bank29
  4163  0CB7  170E               	bsf	14,6	;volatile
  4164                           
  4165                           ;usb.c: 503: ep0_buf.flags = 0;
  4166  0CB8  0023               	movlb	3	; select bank3
  4167  0CB9  01EE               	clrf	(_ep0_buf^(0+384)+4)
  4168                           
  4169                           ;usb.c: 504: for (i = 0; i <= 1; i++) {
  4170  0CBA  01D8               	clrf	init_endpoints@i^(0+384)
  4171  0CBB                     l4805:	
  4172                           
  4173                           ;usb.c: 508: ep_buf[i].flags = 0x4;
  4174  0CBB  0858               	movf	init_endpoints@i^(0+384),w
  4175  0CBC  00D0               	movwf	??_init_endpoints^(0+384)
  4176  0CBD  01D1               	clrf	(??_init_endpoints^(0+384)+1)
  4177  0CBE  0850               	movf	??_init_endpoints^(0+384),w
  4178  0CBF  0021               	movlb	1	; select bank1
  4179  0CC0  00AD               	movwf	___wmul@multiplier^(0+128)
  4180  0CC1  0023               	movlb	3	; select bank3
  4181  0CC2  0851               	movf	(??_init_endpoints+1)^(0+384),w
  4182  0CC3  0021               	movlb	1	; select bank1
  4183  0CC4  00AE               	movwf	(___wmul@multiplier+1)^(0+128)
  4184  0CC5  3007               	movlw	7
  4185  0CC6  00AF               	movwf	___wmul@multiplicand^(0+128)
  4186  0CC7  3000               	movlw	0
  4187  0CC8  00B0               	movwf	(___wmul@multiplicand^(0+128)+1)
  4188  0CC9  319E  26C9  318C   	fcall	___wmul
  4189  0CCC  305E               	movlw	low (_ep_buf+6)
  4190  0CCD  0023               	movlb	3	; select bank3
  4191  0CCE  00D2               	movwf	(??_init_endpoints+2)^(0+384)
  4192  0CCF  3002               	movlw	high (_ep_buf+6)
  4193  0CD0  00D3               	movwf	((??_init_endpoints+2)^(0+384)+1)
  4194  0CD1  0021               	movlb	1	; select bank1
  4195  0CD2  082D               	movf	?___wmul^(0+128),w
  4196  0CD3  0023               	movlb	3	; select bank3
  4197  0CD4  0752               	addwf	(??_init_endpoints+2)^(0+384),w
  4198  0CD5  00D4               	movwf	(??_init_endpoints+4)^(0+384)
  4199  0CD6  0021               	movlb	1	; select bank1
  4200  0CD7  082E               	movf	(?___wmul+1)^(0+128),w
  4201  0CD8  0023               	movlb	3	; select bank3
  4202  0CD9  3D53               	addwfc	(??_init_endpoints+3)^(0+384),w
  4203  0CDA  00D5               	movwf	(??_init_endpoints+5)^(0+384)
  4204  0CDB  0854               	movf	(??_init_endpoints+4)^(0+384),w
  4205  0CDC  0086               	movwf	6
  4206  0CDD  0855               	movf	(??_init_endpoints+5)^(0+384),w
  4207  0CDE  0087               	movwf	7
  4208  0CDF  3004               	movlw	4
  4209  0CE0  0081               	movwf	1
  4210  0CE1  3001               	movlw	1
  4211  0CE2  00D0               	movwf	??_init_endpoints^(0+384)
  4212  0CE3  0850               	movf	??_init_endpoints^(0+384),w
  4213  0CE4  07D8               	addwf	init_endpoints@i^(0+384),f
  4214  0CE5  3002               	movlw	2
  4215  0CE6  0258               	subwf	init_endpoints@i^(0+384),w
  4216  0CE7  1C03               	skipc
  4217  0CE8  2CBB               	goto	l4805
  4218                           
  4219                           ;usb.c: 510: };usb.c: 513: memset(bds, 0x0, sizeof(bds));
  4220  0CE9  3020               	movlw	32
  4221  0CEA  0021               	movlb	1	; select bank1
  4222  0CEB  00AD               	movwf	memset@p1^(0+128)
  4223  0CEC  3000               	movlw	0
  4224  0CED  00AE               	movwf	(memset@p1+1)^(0+128)
  4225  0CEE  3000               	movlw	0
  4226  0CEF  00AF               	movwf	memset@c^(0+128)
  4227  0CF0  00B0               	movwf	(memset@c+1)^(0+128)
  4228  0CF1  3010               	movlw	16
  4229  0CF2  00B1               	movwf	memset@n^(0+128)
  4230  0CF3  3000               	movlw	0
  4231  0CF4  00B2               	movwf	(memset@n^(0+128)+1)
  4232  0CF5  3187  27E7  318C   	fcall	_memset
  4233                           
  4234                           ;usb.c: 517: bds[0].BDnADR = (uint16_t) pic16_linear_addr(ep0_buf.out);
  4235  0CF8  0023               	movlb	3	; select bank3
  4236  0CF9  086B               	movf	(_ep0_buf+1)^(0+384),w
  4237  0CFA  0021               	movlb	1	; select bank1
  4238  0CFB  00B4               	movwf	(pic16_linear_addr@ptr+1)^(0+128)
  4239  0CFC  0023               	movlb	3	; select bank3
  4240  0CFD  086A               	movf	_ep0_buf^(0+384),w
  4241  0CFE  0021               	movlb	1	; select bank1
  4242  0CFF  00B3               	movwf	pic16_linear_addr@ptr^(0+128)
  4243  0D00  3192  224E  318C   	fcall	_pic16_linear_addr
  4244  0D03  0834               	movf	(?_pic16_linear_addr+1)^(0+128),w
  4245  0D04  0020               	movlb	0	; select bank0
  4246  0D05  00A3               	movwf	35
  4247  0D06  0021               	movlb	1	; select bank1
  4248  0D07  0833               	movf	?_pic16_linear_addr^(0+128),w
  4249  0D08  0020               	movlb	0	; select bank0
  4250  0D09  00A2               	movwf	34
  4251  0D0A  3008               	movlw	8
  4252  0D0B  00A1               	movwf	33
  4253  0D0C  3080               	movlw	128
  4254  0D0D  0023               	movlb	3	; select bank3
  4255  0D0E  00D0               	movwf	??_init_endpoints^(0+384)
  4256  0D0F  0850               	movf	??_init_endpoints^(0+384),w
  4257  0D10  0020               	movlb	0	; select bank0
  4258  0D11  00A0               	movwf	32
  4259                           
  4260                           ;usb.c: 527: bds[1].BDnADR = (uint16_t) pic16_linear_addr(ep0_buf.in);
  4261  0D12  0023               	movlb	3	; select bank3
  4262  0D13  086D               	movf	((_ep0_buf+1)^(0+384)+2),w
  4263  0D14  0021               	movlb	1	; select bank1
  4264  0D15  00B4               	movwf	(pic16_linear_addr@ptr+1)^(0+128)
  4265  0D16  0023               	movlb	3	; select bank3
  4266  0D17  086C               	movf	(_ep0_buf^(0+384)+2),w
  4267  0D18  0021               	movlb	1	; select bank1
  4268  0D19  00B3               	movwf	pic16_linear_addr@ptr^(0+128)
  4269  0D1A  3192  224E  318C   	fcall	_pic16_linear_addr
  4270  0D1D  0834               	movf	(?_pic16_linear_addr+1)^(0+128),w
  4271  0D1E  0020               	movlb	0	; select bank0
  4272  0D1F  00A7               	movwf	39
  4273  0D20  0021               	movlb	1	; select bank1
  4274  0D21  0833               	movf	?_pic16_linear_addr^(0+128),w
  4275  0D22  0020               	movlb	0	; select bank0
  4276  0D23  00A6               	movwf	38
  4277  0D24  3008               	movlw	8
  4278  0D25  0023               	movlb	3	; select bank3
  4279  0D26  00D0               	movwf	??_init_endpoints^(0+384)
  4280  0D27  0850               	movf	??_init_endpoints^(0+384),w
  4281  0D28  0020               	movlb	0	; select bank0
  4282  0D29  00A5               	movwf	37
  4283  0D2A  01A4               	clrf	36
  4284                           
  4285                           ;usb.c: 534: for (i = 1; i <= 1; i++) {
  4286  0D2B  0023               	movlb	3	; select bank3
  4287  0D2C  01D8               	clrf	init_endpoints@i^(0+384)
  4288  0D2D  0AD8               	incf	init_endpoints@i^(0+384),f
  4289  0D2E                     l4831:	
  4290                           
  4291                           ;usb.c: 537: bds[(i) * 2].BDnADR = (uint16_t) pic16_linear_addr(ep_buf[i].out);
  4292  0D2E  0858               	movf	init_endpoints@i^(0+384),w
  4293  0D2F  00D0               	movwf	??_init_endpoints^(0+384)
  4294  0D30  01D1               	clrf	(??_init_endpoints^(0+384)+1)
  4295  0D31  0850               	movf	??_init_endpoints^(0+384),w
  4296  0D32  0021               	movlb	1	; select bank1
  4297  0D33  00AD               	movwf	___wmul@multiplier^(0+128)
  4298  0D34  0023               	movlb	3	; select bank3
  4299  0D35  0851               	movf	(??_init_endpoints+1)^(0+384),w
  4300  0D36  0021               	movlb	1	; select bank1
  4301  0D37  00AE               	movwf	(___wmul@multiplier+1)^(0+128)
  4302  0D38  3007               	movlw	7
  4303  0D39  00AF               	movwf	___wmul@multiplicand^(0+128)
  4304  0D3A  3000               	movlw	0
  4305  0D3B  00B0               	movwf	(___wmul@multiplicand^(0+128)+1)
  4306  0D3C  319E  26C9  318C   	fcall	___wmul
  4307  0D3F  3058               	movlw	low _ep_buf
  4308  0D40  0023               	movlb	3	; select bank3
  4309  0D41  00D2               	movwf	(??_init_endpoints+2)^(0+384)
  4310  0D42  3002               	movlw	high _ep_buf
  4311  0D43  00D3               	movwf	((??_init_endpoints+2)^(0+384)+1)
  4312  0D44  0021               	movlb	1	; select bank1
  4313  0D45  082D               	movf	?___wmul^(0+128),w
  4314  0D46  0023               	movlb	3	; select bank3
  4315  0D47  0752               	addwf	(??_init_endpoints+2)^(0+384),w
  4316  0D48  0086               	movwf	6
  4317  0D49  0021               	movlb	1	; select bank1
  4318  0D4A  082E               	movf	(?___wmul+1)^(0+128),w
  4319  0D4B  0023               	movlb	3	; select bank3
  4320  0D4C  3D53               	addwfc	(??_init_endpoints+3)^(0+384),w
  4321  0D4D  0087               	movwf	7
  4322  0D4E  3F40               	moviw [0]fsr1
  4323  0D4F  00D6               	movwf	_init_endpoints$2053^(0+384)
  4324  0D50  3F41               	moviw [1]fsr1
  4325  0D51  00D7               	movwf	(_init_endpoints$2053+1)^(0+384)
  4326                           
  4327                           ;usb.c: 537: bds[(i) * 2].BDnADR = (uint16_t) pic16_linear_addr(ep_buf[i].out);
  4328  0D52  0857               	movf	(_init_endpoints$2053+1)^(0+384),w
  4329  0D53  0021               	movlb	1	; select bank1
  4330  0D54  00B4               	movwf	(pic16_linear_addr@ptr+1)^(0+128)
  4331  0D55  0023               	movlb	3	; select bank3
  4332  0D56  0856               	movf	_init_endpoints$2053^(0+384),w
  4333  0D57  0021               	movlb	1	; select bank1
  4334  0D58  00B3               	movwf	pic16_linear_addr@ptr^(0+128)
  4335  0D59  3192  224E  318C   	fcall	_pic16_linear_addr
  4336  0D5C  0023               	movlb	3	; select bank3
  4337  0D5D  0858               	movf	init_endpoints@i^(0+384),w
  4338  0D5E  00D0               	movwf	??_init_endpoints^(0+384)
  4339  0D5F  3002               	movlw	2
  4340  0D60                     u5085:	
  4341  0D60  35D0               	lslf	??_init_endpoints^(0+384),f
  4342  0D61  3EFF               	addlw	-1
  4343  0D62  1D03               	skipz
  4344  0D63  2D60               	goto	u5085
  4345  0D64  3550               	lslf	??_init_endpoints^(0+384),w
  4346  0D65  3E22               	addlw	34
  4347  0D66  0086               	movwf	6
  4348  0D67  0187               	clrf	7
  4349  0D68  0021               	movlb	1	; select bank1
  4350  0D69  0833               	movf	?_pic16_linear_addr^(0+128),w
  4351  0D6A  3FC0               	movwi [0]fsr1
  4352  0D6B  0834               	movf	(?_pic16_linear_addr+1)^(0+128),w
  4353  0D6C  3FC1               	movwi [1]fsr1
  4354                           
  4355                           ;usb.c: 538: do { (bds[(i) * 2]).BDnCNT = (ep_buf[i].out_len); (bds[(i) * 2]).STAT.BDnST
      +                          AT = (0x80|0x08); } while(0);
  4356  0D6D  0023               	movlb	3	; select bank3
  4357  0D6E  0858               	movf	init_endpoints@i^(0+384),w
  4358  0D6F  00D0               	movwf	??_init_endpoints^(0+384)
  4359  0D70  01D1               	clrf	(??_init_endpoints^(0+384)+1)
  4360  0D71  0850               	movf	??_init_endpoints^(0+384),w
  4361  0D72  0021               	movlb	1	; select bank1
  4362  0D73  00AD               	movwf	___wmul@multiplier^(0+128)
  4363  0D74  0023               	movlb	3	; select bank3
  4364  0D75  0851               	movf	(??_init_endpoints+1)^(0+384),w
  4365  0D76  0021               	movlb	1	; select bank1
  4366  0D77  00AE               	movwf	(___wmul@multiplier+1)^(0+128)
  4367  0D78  3007               	movlw	7
  4368  0D79  00AF               	movwf	___wmul@multiplicand^(0+128)
  4369  0D7A  3000               	movlw	0
  4370  0D7B  00B0               	movwf	(___wmul@multiplicand^(0+128)+1)
  4371  0D7C  319E  26C9  318C   	fcall	___wmul
  4372  0D7F  305C               	movlw	low (_ep_buf+4)
  4373  0D80  0023               	movlb	3	; select bank3
  4374  0D81  00D2               	movwf	(??_init_endpoints+2)^(0+384)
  4375  0D82  3002               	movlw	high (_ep_buf+4)
  4376  0D83  00D3               	movwf	((??_init_endpoints+2)^(0+384)+1)
  4377  0D84  0021               	movlb	1	; select bank1
  4378  0D85  082D               	movf	?___wmul^(0+128),w
  4379  0D86  0023               	movlb	3	; select bank3
  4380  0D87  0752               	addwf	(??_init_endpoints+2)^(0+384),w
  4381  0D88  0086               	movwf	6
  4382  0D89  0021               	movlb	1	; select bank1
  4383  0D8A  082E               	movf	(?___wmul+1)^(0+128),w
  4384  0D8B  0023               	movlb	3	; select bank3
  4385  0D8C  3D53               	addwfc	(??_init_endpoints+3)^(0+384),w
  4386  0D8D  0087               	movwf	7
  4387  0D8E  0801               	movf	1,w
  4388  0D8F  00D4               	movwf	(??_init_endpoints+4)^(0+384)
  4389  0D90  0858               	movf	init_endpoints@i^(0+384),w
  4390  0D91  00D5               	movwf	(??_init_endpoints+5)^(0+384)
  4391  0D92  3002               	movlw	2
  4392  0D93                     u5095:	
  4393  0D93  35D5               	lslf	(??_init_endpoints+5)^(0+384),f
  4394  0D94  3EFF               	addlw	-1
  4395  0D95  1D03               	skipz
  4396  0D96  2D93               	goto	u5095
  4397  0D97  3555               	lslf	(??_init_endpoints+5)^(0+384),w
  4398  0D98  3E21               	addlw	33
  4399  0D99  0086               	movwf	6
  4400  0D9A  0187               	clrf	7
  4401  0D9B  0854               	movf	(??_init_endpoints+4)^(0+384),w
  4402  0D9C  0081               	movwf	1
  4403  0D9D  3088               	movlw	136
  4404  0D9E  00D0               	movwf	??_init_endpoints^(0+384)
  4405  0D9F  0858               	movf	init_endpoints@i^(0+384),w
  4406  0DA0  00D1               	movwf	(??_init_endpoints+1)^(0+384)
  4407  0DA1  3002               	movlw	2
  4408  0DA2                     u5105:	
  4409  0DA2  35D1               	lslf	(??_init_endpoints+1)^(0+384),f
  4410  0DA3  3EFF               	addlw	-1
  4411  0DA4  1D03               	skipz
  4412  0DA5  2DA2               	goto	u5105
  4413  0DA6  3551               	lslf	(??_init_endpoints+1)^(0+384),w
  4414  0DA7  3E20               	addlw	32
  4415  0DA8  0086               	movwf	6
  4416  0DA9  0187               	clrf	7
  4417  0DAA  0850               	movf	??_init_endpoints^(0+384),w
  4418  0DAB  0081               	movwf	1
  4419                           
  4420                           ;usb.c: 546: bds[(i) * 2 + 1].BDnADR = (uint16_t) pic16_linear_addr(ep_buf[i].in);
  4421  0DAC  0858               	movf	init_endpoints@i^(0+384),w
  4422  0DAD  00D0               	movwf	??_init_endpoints^(0+384)
  4423  0DAE  01D1               	clrf	(??_init_endpoints^(0+384)+1)
  4424  0DAF  0850               	movf	??_init_endpoints^(0+384),w
  4425  0DB0  0021               	movlb	1	; select bank1
  4426  0DB1  00AD               	movwf	___wmul@multiplier^(0+128)
  4427  0DB2  0023               	movlb	3	; select bank3
  4428  0DB3  0851               	movf	(??_init_endpoints+1)^(0+384),w
  4429  0DB4  0021               	movlb	1	; select bank1
  4430  0DB5  00AE               	movwf	(___wmul@multiplier+1)^(0+128)
  4431  0DB6  3007               	movlw	7
  4432  0DB7  00AF               	movwf	___wmul@multiplicand^(0+128)
  4433  0DB8  3000               	movlw	0
  4434  0DB9  00B0               	movwf	(___wmul@multiplicand^(0+128)+1)
  4435  0DBA  319E  26C9  318C   	fcall	___wmul
  4436  0DBD  305A               	movlw	low (_ep_buf+2)
  4437  0DBE  0023               	movlb	3	; select bank3
  4438  0DBF  00D2               	movwf	(??_init_endpoints+2)^(0+384)
  4439  0DC0  3002               	movlw	high (_ep_buf+2)
  4440  0DC1  00D3               	movwf	((??_init_endpoints+2)^(0+384)+1)
  4441  0DC2  0021               	movlb	1	; select bank1
  4442  0DC3  082D               	movf	?___wmul^(0+128),w
  4443  0DC4  0023               	movlb	3	; select bank3
  4444  0DC5  0752               	addwf	(??_init_endpoints+2)^(0+384),w
  4445  0DC6  0086               	movwf	6
  4446  0DC7  0021               	movlb	1	; select bank1
  4447  0DC8  082E               	movf	(?___wmul+1)^(0+128),w
  4448  0DC9  0023               	movlb	3	; select bank3
  4449  0DCA  3D53               	addwfc	(??_init_endpoints+3)^(0+384),w
  4450  0DCB  0087               	movwf	7
  4451  0DCC  3F40               	moviw [0]fsr1
  4452  0DCD  00D6               	movwf	_init_endpoints$2053^(0+384)
  4453  0DCE  3F41               	moviw [1]fsr1
  4454  0DCF  00D7               	movwf	(_init_endpoints$2053+1)^(0+384)
  4455                           
  4456                           ;usb.c: 546: bds[(i) * 2 + 1].BDnADR = (uint16_t) pic16_linear_addr(ep_buf[i].in);
  4457  0DD0  0857               	movf	(_init_endpoints$2053+1)^(0+384),w
  4458  0DD1  0021               	movlb	1	; select bank1
  4459  0DD2  00B4               	movwf	(pic16_linear_addr@ptr+1)^(0+128)
  4460  0DD3  0023               	movlb	3	; select bank3
  4461  0DD4  0856               	movf	_init_endpoints$2053^(0+384),w
  4462  0DD5  0021               	movlb	1	; select bank1
  4463  0DD6  00B3               	movwf	pic16_linear_addr@ptr^(0+128)
  4464  0DD7  3192  224E  318C   	fcall	_pic16_linear_addr
  4465  0DDA  0023               	movlb	3	; select bank3
  4466  0DDB  0858               	movf	init_endpoints@i^(0+384),w
  4467  0DDC  00D0               	movwf	??_init_endpoints^(0+384)
  4468  0DDD  3002               	movlw	2
  4469  0DDE                     u5115:	
  4470  0DDE  35D0               	lslf	??_init_endpoints^(0+384),f
  4471  0DDF  3EFF               	addlw	-1
  4472  0DE0  1D03               	skipz
  4473  0DE1  2DDE               	goto	u5115
  4474  0DE2  3550               	lslf	??_init_endpoints^(0+384),w
  4475  0DE3  3E26               	addlw	38
  4476  0DE4  0086               	movwf	6
  4477  0DE5  0187               	clrf	7
  4478  0DE6  0021               	movlb	1	; select bank1
  4479  0DE7  0833               	movf	?_pic16_linear_addr^(0+128),w
  4480  0DE8  3FC0               	movwi [0]fsr1
  4481  0DE9  0834               	movf	(?_pic16_linear_addr+1)^(0+128),w
  4482  0DEA  3FC1               	movwi [1]fsr1
  4483  0DEB  0023               	movlb	3	; select bank3
  4484  0DEC  0858               	movf	init_endpoints@i^(0+384),w
  4485  0DED  00D0               	movwf	??_init_endpoints^(0+384)
  4486  0DEE  01D1               	clrf	(??_init_endpoints^(0+384)+1)
  4487  0DEF  0850               	movf	??_init_endpoints^(0+384),w
  4488  0DF0  0021               	movlb	1	; select bank1
  4489  0DF1  00AD               	movwf	___wmul@multiplier^(0+128)
  4490  0DF2  0023               	movlb	3	; select bank3
  4491  0DF3  0851               	movf	(??_init_endpoints+1)^(0+384),w
  4492  0DF4  0021               	movlb	1	; select bank1
  4493  0DF5  00AE               	movwf	(___wmul@multiplier+1)^(0+128)
  4494  0DF6  3007               	movlw	7
  4495  0DF7  00AF               	movwf	___wmul@multiplicand^(0+128)
  4496  0DF8  3000               	movlw	0
  4497  0DF9  00B0               	movwf	(___wmul@multiplicand^(0+128)+1)
  4498  0DFA  319E  26C9  318C   	fcall	___wmul
  4499  0DFD  305D               	movlw	low (_ep_buf+5)
  4500  0DFE  0023               	movlb	3	; select bank3
  4501  0DFF  00D2               	movwf	(??_init_endpoints+2)^(0+384)
  4502  0E00  3002               	movlw	high (_ep_buf+5)
  4503  0E01  00D3               	movwf	((??_init_endpoints+2)^(0+384)+1)
  4504  0E02  0021               	movlb	1	; select bank1
  4505  0E03  082D               	movf	?___wmul^(0+128),w
  4506  0E04  0023               	movlb	3	; select bank3
  4507  0E05  0752               	addwf	(??_init_endpoints+2)^(0+384),w
  4508  0E06  0086               	movwf	6
  4509  0E07  0021               	movlb	1	; select bank1
  4510  0E08  082E               	movf	(?___wmul+1)^(0+128),w
  4511  0E09  0023               	movlb	3	; select bank3
  4512  0E0A  3D53               	addwfc	(??_init_endpoints+3)^(0+384),w
  4513  0E0B  0087               	movwf	7
  4514  0E0C  0801               	movf	1,w
  4515  0E0D  00D4               	movwf	(??_init_endpoints+4)^(0+384)
  4516  0E0E  0858               	movf	init_endpoints@i^(0+384),w
  4517  0E0F  00D5               	movwf	(??_init_endpoints+5)^(0+384)
  4518  0E10  3002               	movlw	2
  4519  0E11                     u5125:	
  4520  0E11  35D5               	lslf	(??_init_endpoints+5)^(0+384),f
  4521  0E12  3EFF               	addlw	-1
  4522  0E13  1D03               	skipz
  4523  0E14  2E11               	goto	u5125
  4524  0E15  3555               	lslf	(??_init_endpoints+5)^(0+384),w
  4525  0E16  3E25               	addlw	37
  4526  0E17  0086               	movwf	6
  4527  0E18  0187               	clrf	7
  4528  0E19  0854               	movf	(??_init_endpoints+4)^(0+384),w
  4529  0E1A  0081               	movwf	1
  4530  0E1B  0858               	movf	init_endpoints@i^(0+384),w
  4531  0E1C  00D0               	movwf	??_init_endpoints^(0+384)
  4532  0E1D  3002               	movlw	2
  4533  0E1E                     u5135:	
  4534  0E1E  35D0               	lslf	??_init_endpoints^(0+384),f
  4535  0E1F  3EFF               	addlw	-1
  4536  0E20  1D03               	skipz
  4537  0E21  2E1E               	goto	u5135
  4538  0E22  3550               	lslf	??_init_endpoints^(0+384),w
  4539  0E23  3E24               	addlw	36
  4540  0E24  0086               	movwf	6
  4541  0E25  0187               	clrf	7
  4542  0E26  0181               	clrf	1
  4543  0E27  3001               	movlw	1
  4544  0E28  00D0               	movwf	??_init_endpoints^(0+384)
  4545  0E29  0850               	movf	??_init_endpoints^(0+384),w
  4546  0E2A  07D8               	addwf	init_endpoints@i^(0+384),f
  4547  0E2B  3002               	movlw	2
  4548  0E2C  0258               	subwf	init_endpoints@i^(0+384),w
  4549  0E2D  1C03               	skipc
  4550  0E2E  2D2E               	goto	l4831
  4551                           
  4552                           ;usb.c: 553: };usb.c: 555: UCONbits.PPBRST = 0;
  4553  0E2F  003D               	movlb	29	; select bank29
  4554  0E30  130E               	bcf	14,6	;volatile
  4555  0E31  0008               	return
  4556  0E32                     __end_of_init_endpoints:	
  4557                           
  4558                           	psect	text7
  4559  124E                     __ptext7:	
  4560 ;; *************** function _pic16_linear_addr *****************
  4561 ;; Defined at:
  4562 ;;		line 456 in file "../../../usb/src/usb.c"
  4563 ;; Parameters:    Size  Location     Type
  4564 ;;  ptr             2   19[BANK1 ] PTR void 
  4565 ;;		 -> NULL(0), ep_buffers(144), 
  4566 ;; Auto vars:     Size  Location     Type
  4567 ;;  addr            2   14[BANK3 ] unsigned int 
  4568 ;;  low             1   13[BANK3 ] unsigned char 
  4569 ;;  high            1   12[BANK3 ] unsigned char 
  4570 ;; Return value:  Size  Location     Type
  4571 ;;                  2   19[BANK1 ] unsigned int 
  4572 ;; Registers used:
  4573 ;;		wreg, status,2, status,0, pclath, cstack
  4574 ;; Tracked objects:
  4575 ;;		On entry : 1F/1
  4576 ;;		On exit  : 1F/1
  4577 ;;		Unchanged: 0/0
  4578 ;; Data sizes:     COMMON   BANK0   BANK1   BANK2   BANK3   BANK4   BANK5   BANK6   BANK7   BANK8   BANK9  BANK10  BANK1
      +1  BANK12
  4579 ;;      Params:         0       0       2       0       0       0       0       0       0       0       0       0       
      +0       0
  4580 ;;      Locals:         0       0       0       0       4       0       0       0       0       0       0       0       
      +0       0
  4581 ;;      Temps:          0       0       0       0      12       0       0       0       0       0       0       0       
      +0       0
  4582 ;;      Totals:         0       0       2       0      16       0       0       0       0       0       0       0       
      +0       0
  4583 ;;Total ram usage:       18 bytes
  4584 ;; Hardware stack levels used:    1
  4585 ;; Hardware stack levels required when called:   11
  4586 ;; This function calls:
  4587 ;;		___wmul
  4588 ;; This function is called by:
  4589 ;;		_init_endpoints
  4590 ;; This function uses a non-reentrant model
  4591 ;;
  4592                           
  4593                           
  4594                           ;psect for function _pic16_linear_addr
  4595  124E                     _pic16_linear_addr:	
  4596                           
  4597                           ;usb.c: 458: uint8_t high, low;;usb.c: 459: uint16_t addr = (uint16_t) ptr;
  4598                           
  4599                           ;incstack = 0
  4600                           ; Regs used in _pic16_linear_addr: [wreg+status,2+status,0+pclath+cstack]
  4601  124E  0834               	movf	(pic16_linear_addr@ptr+1)^(0+128),w
  4602  124F  0023               	movlb	3	; select bank3
  4603  1250  00CF               	movwf	(pic16_linear_addr@addr+1)^(0+384)
  4604  1251  0021               	movlb	1	; select bank1
  4605  1252  0833               	movf	pic16_linear_addr@ptr^(0+128),w
  4606  1253  0023               	movlb	3	; select bank3
  4607  1254  00CE               	movwf	pic16_linear_addr@addr^(0+384)
  4608                           
  4609                           ;usb.c: 462: if (addr >= 0x2000)
  4610  1255  3020               	movlw	32
  4611  1256  024F               	subwf	(pic16_linear_addr@addr+1)^(0+384),w
  4612  1257  3000               	movlw	0
  4613  1258  1903               	skipnz
  4614  1259  024E               	subwf	pic16_linear_addr@addr^(0+384),w
  4615  125A  1C03               	skipc
  4616  125B  2A64               	goto	l4751
  4617                           
  4618                           ;usb.c: 463: return addr;
  4619  125C  084F               	movf	(pic16_linear_addr@addr+1)^(0+384),w
  4620  125D  0021               	movlb	1	; select bank1
  4621  125E  00B4               	movwf	(?_pic16_linear_addr+1)^(0+128)
  4622  125F  0023               	movlb	3	; select bank3
  4623  1260  084E               	movf	pic16_linear_addr@addr^(0+384),w
  4624  1261  0021               	movlb	1	; select bank1
  4625  1262  00B3               	movwf	?_pic16_linear_addr^(0+128)
  4626  1263  0008               	return
  4627  1264                     l4751:	
  4628                           
  4629                           ;usb.c: 465: high = (addr & 0xff00) >> 8;
  4630  1264  084F               	movf	(pic16_linear_addr@addr^(0+384)+1),w
  4631  1265  00C0               	movwf	??_pic16_linear_addr^(0+384)
  4632  1266  0840               	movf	??_pic16_linear_addr^(0+384),w
  4633  1267  00CC               	movwf	pic16_linear_addr@high^(0+384)
  4634                           
  4635                           ;usb.c: 466: low = addr & 0x00ff;
  4636  1268  084E               	movf	pic16_linear_addr@addr^(0+384),w
  4637  1269  00C0               	movwf	??_pic16_linear_addr^(0+384)
  4638  126A  0840               	movf	??_pic16_linear_addr^(0+384),w
  4639  126B  00CD               	movwf	pic16_linear_addr@low^(0+384)
  4640                           
  4641                           ;usb.c: 468: return 0x2000 +;usb.c: 469: (low & 0x7f) - 0x20 +;usb.c: 470: ((high << 1) 
      +                          + (low & 0x80)? 1: 0) * 0x50;
  4642  126C  084D               	movf	pic16_linear_addr@low^(0+384),w
  4643  126D  397F               	andlw	127
  4644  126E  00C0               	movwf	??_pic16_linear_addr^(0+384)
  4645  126F  01C1               	clrf	(??_pic16_linear_addr^(0+384)+1)
  4646  1270  084D               	movf	pic16_linear_addr@low^(0+384),w
  4647  1271  3980               	andlw	128
  4648  1272  00C2               	movwf	(??_pic16_linear_addr+2)^(0+384)
  4649  1273  01C3               	clrf	((??_pic16_linear_addr+2)^(0+384)+1)
  4650  1274  084C               	movf	pic16_linear_addr@high^(0+384),w
  4651  1275  00C4               	movwf	(??_pic16_linear_addr+4)^(0+384)
  4652  1276  01C5               	clrf	((??_pic16_linear_addr+4)^(0+384)+1)
  4653  1277  35C4               	lslf	(??_pic16_linear_addr+4)^(0+384),f
  4654  1278  0DC5               	rlf	((??_pic16_linear_addr+4)^(0+384)+1),f
  4655  1279  0842               	movf	(??_pic16_linear_addr+2)^(0+384),w
  4656  127A  0744               	addwf	(??_pic16_linear_addr+4)^(0+384),w
  4657  127B  00C6               	movwf	(??_pic16_linear_addr+6)^(0+384)
  4658  127C  0843               	movf	(??_pic16_linear_addr+3)^(0+384),w
  4659  127D  3D45               	addwfc	(??_pic16_linear_addr+5)^(0+384),w
  4660  127E  00C7               	movwf	(??_pic16_linear_addr+7)^(0+384)
  4661  127F  0846               	movf	(??_pic16_linear_addr+6)^(0+384),w
  4662  1280  0447               	iorwf	((??_pic16_linear_addr+6)^(0+384)+1),w
  4663  1281  1903               	btfsc	3,2
  4664  1282  2A85               	goto	u4930
  4665  1283  3001               	movlw	1
  4666  1284  2A86               	goto	u4940
  4667  1285                     u4930:	
  4668  1285  3000               	movlw	0
  4669  1286                     u4940:	
  4670  1286  00C8               	movwf	(??_pic16_linear_addr+8)^(0+384)
  4671  1287  01C9               	clrf	((??_pic16_linear_addr+8)^(0+384)+1)
  4672  1288  0848               	movf	(??_pic16_linear_addr+8)^(0+384),w
  4673  1289  0021               	movlb	1	; select bank1
  4674  128A  00AD               	movwf	___wmul@multiplier^(0+128)
  4675  128B  0023               	movlb	3	; select bank3
  4676  128C  0849               	movf	(??_pic16_linear_addr+9)^(0+384),w
  4677  128D  0021               	movlb	1	; select bank1
  4678  128E  00AE               	movwf	(___wmul@multiplier+1)^(0+128)
  4679  128F  3050               	movlw	80
  4680  1290  00AF               	movwf	___wmul@multiplicand^(0+128)
  4681  1291  3000               	movlw	0
  4682  1292  00B0               	movwf	(___wmul@multiplicand^(0+128)+1)
  4683  1293  319E  26C9         	fcall	___wmul
  4684  1295  0023               	movlb	3	; select bank3
  4685  1296  0840               	movf	??_pic16_linear_addr^(0+384),w
  4686  1297  0021               	movlb	1	; select bank1
  4687  1298  072D               	addwf	?___wmul^(0+128),w
  4688  1299  0023               	movlb	3	; select bank3
  4689  129A  00CA               	movwf	(??_pic16_linear_addr+10)^(0+384)
  4690  129B  0841               	movf	(??_pic16_linear_addr+1)^(0+384),w
  4691  129C  0021               	movlb	1	; select bank1
  4692  129D  3D2E               	addwfc	(?___wmul+1)^(0+128),w
  4693  129E  0023               	movlb	3	; select bank3
  4694  129F  00CB               	movwf	(??_pic16_linear_addr+11)^(0+384)
  4695  12A0  084A               	movf	(??_pic16_linear_addr+10)^(0+384),w
  4696  12A1  3EE0               	addlw	224
  4697  12A2  0021               	movlb	1	; select bank1
  4698  12A3  00B3               	movwf	?_pic16_linear_addr^(0+128)
  4699  12A4  301F               	movlw	31
  4700  12A5  0023               	movlb	3	; select bank3
  4701  12A6  3D4B               	addwfc	(??_pic16_linear_addr+11)^(0+384),w
  4702  12A7  0021               	movlb	1	; select bank1
  4703  12A8  00B4               	movwf	(?_pic16_linear_addr+1)^(0+128)
  4704  12A9  0008               	return
  4705  12AA                     __end_of_pic16_linear_addr:	
  4706                           
  4707                           	psect	text8
  4708  07E7                     __ptext8:	
  4709 ;; *************** function _memset *****************
  4710 ;; Defined at:
  4711 ;;		line 8 in file "C:\Program Files (x86)\Microchip\xc8\v2.10\pic\sources\c90\common\memset.c"
  4712 ;; Parameters:    Size  Location     Type
  4713 ;;  p1              2   13[BANK1 ] PTR void 
  4714 ;;		 -> UEP0(1), bds(16), 
  4715 ;;  c               2   15[BANK1 ] int 
  4716 ;;  n               2   17[BANK1 ] unsigned int 
  4717 ;; Auto vars:     Size  Location     Type
  4718 ;;  p               2   19[BANK1 ] PTR unsigned char 
  4719 ;;		 -> UEP0(1), bds(16), 
  4720 ;; Return value:  Size  Location     Type
  4721 ;;                  2   13[BANK1 ] PTR void 
  4722 ;; Registers used:
  4723 ;;		wreg, fsr1l, fsr1h, status,2, status,0
  4724 ;; Tracked objects:
  4725 ;;		On entry : 1F/1
  4726 ;;		On exit  : 1F/1
  4727 ;;		Unchanged: 0/0
  4728 ;; Data sizes:     COMMON   BANK0   BANK1   BANK2   BANK3   BANK4   BANK5   BANK6   BANK7   BANK8   BANK9  BANK10  BANK1
      +1  BANK12
  4729 ;;      Params:         0       0       6       0       0       0       0       0       0       0       0       0       
      +0       0
  4730 ;;      Locals:         0       0       2       0       0       0       0       0       0       0       0       0       
      +0       0
  4731 ;;      Temps:          0       0       0       0       0       0       0       0       0       0       0       0       
      +0       0
  4732 ;;      Totals:         0       0       8       0       0       0       0       0       0       0       0       0       
      +0       0
  4733 ;;Total ram usage:        8 bytes
  4734 ;; Hardware stack levels used:    1
  4735 ;; Hardware stack levels required when called:   10
  4736 ;; This function calls:
  4737 ;;		Nothing
  4738 ;; This function is called by:
  4739 ;;		_init_endpoints
  4740 ;;		_usb_init
  4741 ;; This function uses a non-reentrant model
  4742 ;;
  4743                           
  4744                           
  4745                           ;psect for function _memset
  4746  07E7                     _memset:	
  4747                           
  4748                           ;incstack = 0
  4749                           ; Regs used in _memset: [wreg+fsr1l+fsr1h+status,2+status,0]
  4750  07E7  082E               	movf	(memset@p1+1)^(0+128),w
  4751  07E8  00B4               	movwf	(memset@p+1)^(0+128)
  4752  07E9  082D               	movf	memset@p1^(0+128),w
  4753  07EA  00B3               	movwf	memset@p^(0+128)
  4754  07EB                     l3469:	
  4755  07EB  3001               	movlw	1
  4756  07EC  02B1               	subwf	memset@n^(0+128),f
  4757  07ED  3000               	movlw	0
  4758  07EE  3BB2               	subwfb	(memset@n+1)^(0+128),f
  4759  07EF  0A31               	incf	memset@n^(0+128),w
  4760  07F0  1903               	btfsc	3,2
  4761  07F1  0A32               	incf	(memset@n+1)^(0+128),w
  4762  07F2  1903               	btfsc	3,2
  4763  07F3  0008               	return
  4764  07F4  0833               	movf	memset@p^(0+128),w
  4765  07F5  0086               	movwf	6
  4766  07F6  0834               	movf	(memset@p+1)^(0+128),w
  4767  07F7  0087               	movwf	7
  4768  07F8  082F               	movf	memset@c^(0+128),w
  4769  07F9  0081               	movwf	1
  4770  07FA  3001               	movlw	1
  4771  07FB  07B3               	addwf	memset@p^(0+128),f
  4772  07FC  3000               	movlw	0
  4773  07FD  3DB4               	addwfc	(memset@p+1)^(0+128),f
  4774  07FE  2FEB               	goto	l3469
  4775  07FF                     __end_of_memset:	
  4776                           
  4777                           	psect	text9
  4778  1E0E                     __ptext9:	
  4779 ;; *************** function _usb_in_endpoint_busy *****************
  4780 ;; Defined at:
  4781 ;;		line 1567 in file "../../../usb/src/usb.c"
  4782 ;; Parameters:    Size  Location     Type
  4783 ;;  endpoint        1    wreg     unsigned char 
  4784 ;; Auto vars:     Size  Location     Type
  4785 ;;  endpoint        1   14[BANK1 ] unsigned char 
  4786 ;; Return value:  Size  Location     Type
  4787 ;;                  1    wreg      unsigned char 
  4788 ;; Registers used:
  4789 ;;		wreg, fsr1l, fsr1h, status,2, status,0
  4790 ;; Tracked objects:
  4791 ;;		On entry : 1C/3
  4792 ;;		On exit  : 1F/1
  4793 ;;		Unchanged: 0/0
  4794 ;; Data sizes:     COMMON   BANK0   BANK1   BANK2   BANK3   BANK4   BANK5   BANK6   BANK7   BANK8   BANK9  BANK10  BANK1
      +1  BANK12
  4795 ;;      Params:         0       0       0       0       0       0       0       0       0       0       0       0       
      +0       0
  4796 ;;      Locals:         0       0       1       0       0       0       0       0       0       0       0       0       
      +0       0
  4797 ;;      Temps:          0       0       1       0       0       0       0       0       0       0       0       0       
      +0       0
  4798 ;;      Totals:         0       0       2       0       0       0       0       0       0       0       0       0       
      +0       0
  4799 ;;Total ram usage:        2 bytes
  4800 ;; Hardware stack levels used:    1
  4801 ;; Hardware stack levels required when called:   10
  4802 ;; This function calls:
  4803 ;;		Nothing
  4804 ;; This function is called by:
  4805 ;;		_main
  4806 ;; This function uses a non-reentrant model
  4807 ;;
  4808                           
  4809                           
  4810                           ;psect for function _usb_in_endpoint_busy
  4811  1E0E                     _usb_in_endpoint_busy:	
  4812                           
  4813                           ;incstack = 0
  4814                           ; Regs used in _usb_in_endpoint_busy: [wreg+fsr1l+fsr1h+status,2+status,0]
  4815                           ;usb_in_endpoint_busy@endpoint stored from wreg
  4816  1E0E  0021               	movlb	1	; select bank1
  4817  1E0F  00AE               	movwf	usb_in_endpoint_busy@endpoint^(0+128)
  4818                           
  4819                           ;usb.c: 1573: return bds[(endpoint) * 2 + 1].STAT.UOWN;
  4820  1E10  082E               	movf	usb_in_endpoint_busy@endpoint^(0+128),w
  4821  1E11  00AD               	movwf	??_usb_in_endpoint_busy^(0+128)
  4822  1E12  3002               	movlw	2
  4823  1E13                     u4595:	
  4824  1E13  35AD               	lslf	??_usb_in_endpoint_busy^(0+128),f
  4825  1E14  3EFF               	addlw	-1
  4826  1E15  1D03               	skipz
  4827  1E16  2E13               	goto	u4595
  4828  1E17  352D               	lslf	??_usb_in_endpoint_busy^(0+128),w
  4829  1E18  3E24               	addlw	36
  4830  1E19  0086               	movwf	6
  4831  1E1A  0187               	clrf	7
  4832  1E1B  0D01               	rlf	1,w
  4833  1E1C  0D01               	rlf	1,w
  4834  1E1D  3901               	andlw	1
  4835  1E1E  0008               	return
  4836  1E1F                     __end_of_usb_in_endpoint_busy:	
  4837                           
  4838                           	psect	text10
  4839  10A0                     __ptext10:	
  4840 ;; *************** function _usb_get_out_buffer *****************
  4841 ;; Defined at:
  4842 ;;		line 1593 in file "../../../usb/src/usb.c"
  4843 ;; Parameters:    Size  Location     Type
  4844 ;;  endpoint        1    wreg     unsigned char 
  4845 ;;  buf             1   19[BANK1 ] PTR PTR const unsigned c
  4846 ;;		 -> main@RxDataBuffer(2), 
  4847 ;; Auto vars:     Size  Location     Type
  4848 ;;  endpoint        1   20[BANK1 ] unsigned char 
  4849 ;; Return value:  Size  Location     Type
  4850 ;;                  1    wreg      unsigned char 
  4851 ;; Registers used:
  4852 ;;		wreg, fsr0l, fsr0h, fsr1l, fsr1h, status,2, status,0, pclath, cstack
  4853 ;; Tracked objects:
  4854 ;;		On entry : 1F/1
  4855 ;;		On exit  : 1F/1
  4856 ;;		Unchanged: 0/0
  4857 ;; Data sizes:     COMMON   BANK0   BANK1   BANK2   BANK3   BANK4   BANK5   BANK6   BANK7   BANK8   BANK9  BANK10  BANK1
      +1  BANK12
  4858 ;;      Params:         0       0       1       0       0       0       0       0       0       0       0       0       
      +0       0
  4859 ;;      Locals:         0       0       1       0       0       0       0       0       0       0       0       0       
      +0       0
  4860 ;;      Temps:          0       0       0       0       4       0       0       0       0       0       0       0       
      +0       0
  4861 ;;      Totals:         0       0       2       0       4       0       0       0       0       0       0       0       
      +0       0
  4862 ;;Total ram usage:        6 bytes
  4863 ;; Hardware stack levels used:    1
  4864 ;; Hardware stack levels required when called:   11
  4865 ;; This function calls:
  4866 ;;		___wmul
  4867 ;; This function is called by:
  4868 ;;		_main
  4869 ;; This function uses a non-reentrant model
  4870 ;;
  4871                           
  4872                           
  4873                           ;psect for function _usb_get_out_buffer
  4874  10A0                     _usb_get_out_buffer:	
  4875                           
  4876                           ;incstack = 0
  4877                           ; Regs used in _usb_get_out_buffer: [wreg-fsr1h+status,2+status,0+pclath+cstack]
  4878                           ;usb_get_out_buffer@endpoint stored from wreg
  4879  10A0  00B4               	movwf	usb_get_out_buffer@endpoint^(0+128)
  4880                           
  4881                           ;usb.c: 1605: *buf = ep_buf[endpoint].out;
  4882  10A1  0834               	movf	usb_get_out_buffer@endpoint^(0+128),w
  4883  10A2  0023               	movlb	3	; select bank3
  4884  10A3  00C0               	movwf	??_usb_get_out_buffer^(0+384)
  4885  10A4  01C1               	clrf	(??_usb_get_out_buffer^(0+384)+1)
  4886  10A5  0840               	movf	??_usb_get_out_buffer^(0+384),w
  4887  10A6  0021               	movlb	1	; select bank1
  4888  10A7  00AD               	movwf	___wmul@multiplier^(0+128)
  4889  10A8  0023               	movlb	3	; select bank3
  4890  10A9  0841               	movf	(??_usb_get_out_buffer+1)^(0+384),w
  4891  10AA  0021               	movlb	1	; select bank1
  4892  10AB  00AE               	movwf	(___wmul@multiplier+1)^(0+128)
  4893  10AC  3007               	movlw	7
  4894  10AD  00AF               	movwf	___wmul@multiplicand^(0+128)
  4895  10AE  3000               	movlw	0
  4896  10AF  00B0               	movwf	(___wmul@multiplicand^(0+128)+1)
  4897  10B0  319E  26C9         	fcall	___wmul
  4898  10B2  3058               	movlw	low _ep_buf
  4899  10B3  0023               	movlb	3	; select bank3
  4900  10B4  00C2               	movwf	(??_usb_get_out_buffer+2)^(0+384)
  4901  10B5  3002               	movlw	high _ep_buf
  4902  10B6  00C3               	movwf	((??_usb_get_out_buffer+2)^(0+384)+1)
  4903  10B7  0021               	movlb	1	; select bank1
  4904  10B8  082D               	movf	?___wmul^(0+128),w
  4905  10B9  0023               	movlb	3	; select bank3
  4906  10BA  0742               	addwf	(??_usb_get_out_buffer+2)^(0+384),w
  4907  10BB  0086               	movwf	6
  4908  10BC  0021               	movlb	1	; select bank1
  4909  10BD  082E               	movf	(?___wmul+1)^(0+128),w
  4910  10BE  0023               	movlb	3	; select bank3
  4911  10BF  3D43               	addwfc	(??_usb_get_out_buffer+3)^(0+384),w
  4912  10C0  0087               	movwf	7
  4913  10C1  0021               	movlb	1	; select bank1
  4914  10C2  0833               	movf	usb_get_out_buffer@buf^(0+128),w
  4915  10C3  0084               	movwf	4
  4916  10C4  3002               	movlw	2	; select bank4/5
  4917  10C5  0085               	movwf	5
  4918  10C6  3F40               	moviw [0]fsr1
  4919  10C7  3F80               	movwi [0]fsr0
  4920  10C8  3F41               	moviw [1]fsr1
  4921  10C9  3F81               	movwi [1]fsr0
  4922                           
  4923                           ;usb.c: 1606: return (bds[(endpoint) * 2].BDnCNT);;	Return value of _usb_get_out_buffer 
      +                          is never used
  4924  10CA  3020               	movlw	32
  4925  10CB  0086               	movwf	6
  4926  10CC  3000               	movlw	0
  4927  10CD  0087               	movwf	7
  4928  10CE  0008               	return
  4929  10CF                     __end_of_usb_get_out_buffer:	
  4930                           
  4931                           	psect	text11
  4932  104F                     __ptext11:	
  4933 ;; *************** function _usb_get_in_buffer *****************
  4934 ;; Defined at:
  4935 ;;		line 1513 in file "../../../usb/src/usb.c"
  4936 ;; Parameters:    Size  Location     Type
  4937 ;;  endpoint        1    wreg     unsigned char 
  4938 ;; Auto vars:     Size  Location     Type
  4939 ;;  endpoint        1   19[BANK1 ] unsigned char 
  4940 ;; Return value:  Size  Location     Type
  4941 ;;                  2    6[BANK1 ] PTR unsigned char 
  4942 ;; Registers used:
  4943 ;;		wreg, fsr1l, fsr1h, status,2, status,0, pclath, cstack
  4944 ;; Tracked objects:
  4945 ;;		On entry : 0/1
  4946 ;;		On exit  : 1F/1
  4947 ;;		Unchanged: 0/0
  4948 ;; Data sizes:     COMMON   BANK0   BANK1   BANK2   BANK3   BANK4   BANK5   BANK6   BANK7   BANK8   BANK9  BANK10  BANK1
      +1  BANK12
  4949 ;;      Params:         0       0       0       0       0       0       0       0       0       0       0       0       
      +0       0
  4950 ;;      Locals:         0       0       1       0       0       0       0       0       0       0       0       0       
      +0       0
  4951 ;;      Temps:          0       0       0       0       4       0       0       0       0       0       0       0       
      +0       0
  4952 ;;      Totals:         0       0       1       0       4       0       0       0       0       0       0       0       
      +0       0
  4953 ;;Total ram usage:        5 bytes
  4954 ;; Hardware stack levels used:    1
  4955 ;; Hardware stack levels required when called:   11
  4956 ;; This function calls:
  4957 ;;		___wmul
  4958 ;; This function is called by:
  4959 ;;		_main
  4960 ;; This function uses a non-reentrant model
  4961 ;;
  4962                           
  4963                           
  4964                           ;psect for function _usb_get_in_buffer
  4965  104F                     _usb_get_in_buffer:	
  4966                           
  4967                           ;incstack = 0
  4968                           ; Regs used in _usb_get_in_buffer: [wreg+fsr1l+fsr1h+status,2+status,0+pclath+cstack]
  4969                           ;usb_get_in_buffer@endpoint stored from wreg
  4970  104F  0021               	movlb	1	; select bank1
  4971  1050  00B3               	movwf	usb_get_in_buffer@endpoint^(0+128)
  4972                           
  4973                           ;usb.c: 1521: return ep_buf[endpoint].in;
  4974  1051  0833               	movf	usb_get_in_buffer@endpoint^(0+128),w
  4975  1052  0023               	movlb	3	; select bank3
  4976  1053  00C0               	movwf	??_usb_get_in_buffer^(0+384)
  4977  1054  01C1               	clrf	(??_usb_get_in_buffer^(0+384)+1)
  4978  1055  0840               	movf	??_usb_get_in_buffer^(0+384),w
  4979  1056  0021               	movlb	1	; select bank1
  4980  1057  00AD               	movwf	___wmul@multiplier^(0+128)
  4981  1058  0023               	movlb	3	; select bank3
  4982  1059  0841               	movf	(??_usb_get_in_buffer+1)^(0+384),w
  4983  105A  0021               	movlb	1	; select bank1
  4984  105B  00AE               	movwf	(___wmul@multiplier+1)^(0+128)
  4985  105C  3007               	movlw	7
  4986  105D  00AF               	movwf	___wmul@multiplicand^(0+128)
  4987  105E  3000               	movlw	0
  4988  105F  00B0               	movwf	(___wmul@multiplicand^(0+128)+1)
  4989  1060  319E  26C9         	fcall	___wmul
  4990  1062  305A               	movlw	low (_ep_buf+2)
  4991  1063  0023               	movlb	3	; select bank3
  4992  1064  00C2               	movwf	(??_usb_get_in_buffer+2)^(0+384)
  4993  1065  3002               	movlw	high (_ep_buf+2)
  4994  1066  00C3               	movwf	((??_usb_get_in_buffer+2)^(0+384)+1)
  4995  1067  0021               	movlb	1	; select bank1
  4996  1068  082D               	movf	?___wmul^(0+128),w
  4997  1069  0023               	movlb	3	; select bank3
  4998  106A  0742               	addwf	(??_usb_get_in_buffer+2)^(0+384),w
  4999  106B  0086               	movwf	6
  5000  106C  0021               	movlb	1	; select bank1
  5001  106D  082E               	movf	(?___wmul+1)^(0+128),w
  5002  106E  0023               	movlb	3	; select bank3
  5003  106F  3D43               	addwfc	(??_usb_get_in_buffer+3)^(0+384),w
  5004  1070  0087               	movwf	7
  5005  1071  3F40               	moviw [0]fsr1
  5006  1072  0021               	movlb	1	; select bank1
  5007  1073  00A6               	movwf	?_usb_get_in_buffer^(0+128)
  5008  1074  3F41               	moviw [1]fsr1
  5009  1075  00A7               	movwf	(?_usb_get_in_buffer+1)^(0+128)
  5010  1076  0008               	return
  5011  1077                     __end_of_usb_get_in_buffer:	
  5012                           
  5013                           	psect	text12
  5014  1D60                     __ptext12:	
  5015 ;; *************** function _usb_get_configuration *****************
  5016 ;; Defined at:
  5017 ;;		line 1508 in file "../../../usb/src/usb.c"
  5018 ;; Parameters:    Size  Location     Type
  5019 ;;		None
  5020 ;; Auto vars:     Size  Location     Type
  5021 ;;		None
  5022 ;; Return value:  Size  Location     Type
  5023 ;;                  1    wreg      unsigned char 
  5024 ;; Registers used:
  5025 ;;		wreg
  5026 ;; Tracked objects:
  5027 ;;		On entry : 18/4
  5028 ;;		On exit  : 1F/0
  5029 ;;		Unchanged: 0/0
  5030 ;; Data sizes:     COMMON   BANK0   BANK1   BANK2   BANK3   BANK4   BANK5   BANK6   BANK7   BANK8   BANK9  BANK10  BANK1
      +1  BANK12
  5031 ;;      Params:         0       0       0       0       0       0       0       0       0       0       0       0       
      +0       0
  5032 ;;      Locals:         0       0       0       0       0       0       0       0       0       0       0       0       
      +0       0
  5033 ;;      Temps:          0       0       0       0       0       0       0       0       0       0       0       0       
      +0       0
  5034 ;;      Totals:         0       0       0       0       0       0       0       0       0       0       0       0       
      +0       0
  5035 ;;Total ram usage:        0 bytes
  5036 ;; Hardware stack levels used:    1
  5037 ;; Hardware stack levels required when called:   10
  5038 ;; This function calls:
  5039 ;;		Nothing
  5040 ;; This function is called by:
  5041 ;;		_main
  5042 ;; This function uses a non-reentrant model
  5043 ;;
  5044                           
  5045                           
  5046                           ;psect for function _usb_get_configuration
  5047  1D60                     _usb_get_configuration:	
  5048                           
  5049                           ;usb.c: 1510: return g_configuration;
  5050                           
  5051                           ;incstack = 0
  5052                           ; Regs used in _usb_get_configuration: [wreg]
  5053  1D60  0020               	movlb	0	; select bank0
  5054  1D61  086F               	movf	_g_configuration,w
  5055  1D62  0008               	return
  5056  1D63                     __end_of_usb_get_configuration:	
  5057                           
  5058                           	psect	text13
  5059  086E                     __ptext13:	
  5060 ;; *************** function _usb_arm_out_endpoint *****************
  5061 ;; Defined at:
  5062 ;;		line 1620 in file "../../../usb/src/usb.c"
  5063 ;; Parameters:    Size  Location     Type
  5064 ;;  endpoint        1    wreg     unsigned char 
  5065 ;; Auto vars:     Size  Location     Type
  5066 ;;  endpoint        1   20[BANK1 ] unsigned char 
  5067 ;;  pid             1   19[BANK1 ] unsigned char 
  5068 ;; Return value:  Size  Location     Type
  5069 ;;                  1    wreg      void 
  5070 ;; Registers used:
  5071 ;;		wreg, fsr1l, fsr1h, status,2, status,0, pclath, cstack
  5072 ;; Tracked objects:
  5073 ;;		On entry : 18/3
  5074 ;;		On exit  : 1F/3
  5075 ;;		Unchanged: 0/0
  5076 ;; Data sizes:     COMMON   BANK0   BANK1   BANK2   BANK3   BANK4   BANK5   BANK6   BANK7   BANK8   BANK9  BANK10  BANK1
      +1  BANK12
  5077 ;;      Params:         0       0       0       0       0       0       0       0       0       0       0       0       
      +0       0
  5078 ;;      Locals:         0       0       2       0       0       0       0       0       0       0       0       0       
      +0       0
  5079 ;;      Temps:          0       0       0       0       6       0       0       0       0       0       0       0       
      +0       0
  5080 ;;      Totals:         0       0       2       0       6       0       0       0       0       0       0       0       
      +0       0
  5081 ;;Total ram usage:        8 bytes
  5082 ;; Hardware stack levels used:    1
  5083 ;; Hardware stack levels required when called:   11
  5084 ;; This function calls:
  5085 ;;		___wmul
  5086 ;; This function is called by:
  5087 ;;		_main
  5088 ;; This function uses a non-reentrant model
  5089 ;;
  5090                           
  5091                           
  5092                           ;psect for function _usb_arm_out_endpoint
  5093  086E                     _usb_arm_out_endpoint:	
  5094                           
  5095                           ;incstack = 0
  5096                           ; Regs used in _usb_arm_out_endpoint: [wreg+fsr1l+fsr1h+status,2+status,0+pclath+cstack]
  5097                           ;usb_arm_out_endpoint@endpoint stored from wreg
  5098  086E  0021               	movlb	1	; select bank1
  5099  086F  00B4               	movwf	usb_arm_out_endpoint@endpoint^(0+128)
  5100                           
  5101                           ;usb.c: 1640: uint8_t pid = (ep_buf[endpoint].flags & 0x4)? 1: 0;
  5102  0870  0834               	movf	usb_arm_out_endpoint@endpoint^(0+128),w
  5103  0871  0023               	movlb	3	; select bank3
  5104  0872  00C0               	movwf	??_usb_arm_out_endpoint^(0+384)
  5105  0873  01C1               	clrf	(??_usb_arm_out_endpoint^(0+384)+1)
  5106  0874  0840               	movf	??_usb_arm_out_endpoint^(0+384),w
  5107  0875  0021               	movlb	1	; select bank1
  5108  0876  00AD               	movwf	___wmul@multiplier^(0+128)
  5109  0877  0023               	movlb	3	; select bank3
  5110  0878  0841               	movf	(??_usb_arm_out_endpoint+1)^(0+384),w
  5111  0879  0021               	movlb	1	; select bank1
  5112  087A  00AE               	movwf	(___wmul@multiplier+1)^(0+128)
  5113  087B  3007               	movlw	7
  5114  087C  00AF               	movwf	___wmul@multiplicand^(0+128)
  5115  087D  3000               	movlw	0
  5116  087E  00B0               	movwf	(___wmul@multiplicand^(0+128)+1)
  5117  087F  319E  26C9  3188   	fcall	___wmul
  5118  0882  305E               	movlw	low (_ep_buf+6)
  5119  0883  0023               	movlb	3	; select bank3
  5120  0884  00C2               	movwf	(??_usb_arm_out_endpoint+2)^(0+384)
  5121  0885  3002               	movlw	high (_ep_buf+6)
  5122  0886  00C3               	movwf	((??_usb_arm_out_endpoint+2)^(0+384)+1)
  5123  0887  0021               	movlb	1	; select bank1
  5124  0888  082D               	movf	?___wmul^(0+128),w
  5125  0889  0023               	movlb	3	; select bank3
  5126  088A  0742               	addwf	(??_usb_arm_out_endpoint+2)^(0+384),w
  5127  088B  0086               	movwf	6
  5128  088C  0021               	movlb	1	; select bank1
  5129  088D  082E               	movf	(?___wmul+1)^(0+128),w
  5130  088E  0023               	movlb	3	; select bank3
  5131  088F  3D43               	addwfc	(??_usb_arm_out_endpoint+3)^(0+384),w
  5132  0890  0087               	movwf	7
  5133  0891  1D01               	btfss	1,2
  5134  0892  2895               	goto	u5560
  5135  0893  3001               	movlw	1
  5136  0894  2896               	goto	u5570
  5137  0895                     u5560:	
  5138  0895  3000               	movlw	0
  5139  0896                     u5570:	
  5140  0896  00C4               	movwf	(??_usb_arm_out_endpoint+4)^(0+384)
  5141  0897  0844               	movf	(??_usb_arm_out_endpoint+4)^(0+384),w
  5142  0898  0021               	movlb	1	; select bank1
  5143  0899  00B3               	movwf	usb_arm_out_endpoint@pid^(0+128)
  5144                           
  5145                           ;usb.c: 1641: if (pid)
  5146  089A  0833               	movf	usb_arm_out_endpoint@pid^(0+128),w
  5147  089B  1903               	btfsc	3,2
  5148  089C  28DB               	goto	l5097
  5149  089D  0834               	movf	usb_arm_out_endpoint@endpoint^(0+128),w
  5150  089E  0023               	movlb	3	; select bank3
  5151  089F  00C0               	movwf	??_usb_arm_out_endpoint^(0+384)
  5152  08A0  01C1               	clrf	(??_usb_arm_out_endpoint^(0+384)+1)
  5153  08A1  0840               	movf	??_usb_arm_out_endpoint^(0+384),w
  5154  08A2  0021               	movlb	1	; select bank1
  5155  08A3  00AD               	movwf	___wmul@multiplier^(0+128)
  5156  08A4  0023               	movlb	3	; select bank3
  5157  08A5  0841               	movf	(??_usb_arm_out_endpoint+1)^(0+384),w
  5158  08A6  0021               	movlb	1	; select bank1
  5159  08A7  00AE               	movwf	(___wmul@multiplier+1)^(0+128)
  5160  08A8  3007               	movlw	7
  5161  08A9  00AF               	movwf	___wmul@multiplicand^(0+128)
  5162  08AA  3000               	movlw	0
  5163  08AB  00B0               	movwf	(___wmul@multiplicand^(0+128)+1)
  5164  08AC  319E  26C9  3188   	fcall	___wmul
  5165  08AF  305C               	movlw	low (_ep_buf+4)
  5166  08B0  0023               	movlb	3	; select bank3
  5167  08B1  00C2               	movwf	(??_usb_arm_out_endpoint+2)^(0+384)
  5168  08B2  3002               	movlw	high (_ep_buf+4)
  5169  08B3  00C3               	movwf	((??_usb_arm_out_endpoint+2)^(0+384)+1)
  5170  08B4  0021               	movlb	1	; select bank1
  5171  08B5  082D               	movf	?___wmul^(0+128),w
  5172  08B6  0023               	movlb	3	; select bank3
  5173  08B7  0742               	addwf	(??_usb_arm_out_endpoint+2)^(0+384),w
  5174  08B8  0086               	movwf	6
  5175  08B9  0021               	movlb	1	; select bank1
  5176  08BA  082E               	movf	(?___wmul+1)^(0+128),w
  5177  08BB  0023               	movlb	3	; select bank3
  5178  08BC  3D43               	addwfc	(??_usb_arm_out_endpoint+3)^(0+384),w
  5179  08BD  0087               	movwf	7
  5180  08BE  0801               	movf	1,w
  5181  08BF  00C4               	movwf	(??_usb_arm_out_endpoint+4)^(0+384)
  5182  08C0  0021               	movlb	1	; select bank1
  5183  08C1  0834               	movf	usb_arm_out_endpoint@endpoint^(0+128),w
  5184  08C2  0023               	movlb	3	; select bank3
  5185  08C3  00C5               	movwf	(??_usb_arm_out_endpoint+5)^(0+384)
  5186  08C4  3002               	movlw	2
  5187  08C5                     u5595:	
  5188  08C5  35C5               	lslf	(??_usb_arm_out_endpoint+5)^(0+384),f
  5189  08C6  3EFF               	addlw	-1
  5190  08C7  1D03               	skipz
  5191  08C8  28C5               	goto	u5595
  5192  08C9  3545               	lslf	(??_usb_arm_out_endpoint+5)^(0+384),w
  5193  08CA  3E21               	addlw	33
  5194  08CB  0086               	movwf	6
  5195  08CC  0187               	clrf	7
  5196  08CD  0844               	movf	(??_usb_arm_out_endpoint+4)^(0+384),w
  5197  08CE  0081               	movwf	1
  5198  08CF  30C8               	movlw	200
  5199  08D0  00C0               	movwf	??_usb_arm_out_endpoint^(0+384)
  5200  08D1  0021               	movlb	1	; select bank1
  5201  08D2  0834               	movf	usb_arm_out_endpoint@endpoint^(0+128),w
  5202  08D3  0023               	movlb	3	; select bank3
  5203  08D4  00C1               	movwf	(??_usb_arm_out_endpoint+1)^(0+384)
  5204  08D5  3002               	movlw	2
  5205  08D6                     u5605:	
  5206  08D6  35C1               	lslf	(??_usb_arm_out_endpoint+1)^(0+384),f
  5207  08D7  3EFF               	addlw	-1
  5208  08D8  1D03               	skipz
  5209  08D9  28D6               	goto	u5605
  5210  08DA  2918               	goto	L3
  5211  08DB                     l5097:	
  5212  08DB  0834               	movf	usb_arm_out_endpoint@endpoint^(0+128),w
  5213  08DC  0023               	movlb	3	; select bank3
  5214  08DD  00C0               	movwf	??_usb_arm_out_endpoint^(0+384)
  5215  08DE  01C1               	clrf	(??_usb_arm_out_endpoint^(0+384)+1)
  5216  08DF  0840               	movf	??_usb_arm_out_endpoint^(0+384),w
  5217  08E0  0021               	movlb	1	; select bank1
  5218  08E1  00AD               	movwf	___wmul@multiplier^(0+128)
  5219  08E2  0023               	movlb	3	; select bank3
  5220  08E3  0841               	movf	(??_usb_arm_out_endpoint+1)^(0+384),w
  5221  08E4  0021               	movlb	1	; select bank1
  5222  08E5  00AE               	movwf	(___wmul@multiplier+1)^(0+128)
  5223  08E6  3007               	movlw	7
  5224  08E7  00AF               	movwf	___wmul@multiplicand^(0+128)
  5225  08E8  3000               	movlw	0
  5226  08E9  00B0               	movwf	(___wmul@multiplicand^(0+128)+1)
  5227  08EA  319E  26C9  3188   	fcall	___wmul
  5228  08ED  305C               	movlw	low (_ep_buf+4)
  5229  08EE  0023               	movlb	3	; select bank3
  5230  08EF  00C2               	movwf	(??_usb_arm_out_endpoint+2)^(0+384)
  5231  08F0  3002               	movlw	high (_ep_buf+4)
  5232  08F1  00C3               	movwf	((??_usb_arm_out_endpoint+2)^(0+384)+1)
  5233  08F2  0021               	movlb	1	; select bank1
  5234  08F3  082D               	movf	?___wmul^(0+128),w
  5235  08F4  0023               	movlb	3	; select bank3
  5236  08F5  0742               	addwf	(??_usb_arm_out_endpoint+2)^(0+384),w
  5237  08F6  0086               	movwf	6
  5238  08F7  0021               	movlb	1	; select bank1
  5239  08F8  082E               	movf	(?___wmul+1)^(0+128),w
  5240  08F9  0023               	movlb	3	; select bank3
  5241  08FA  3D43               	addwfc	(??_usb_arm_out_endpoint+3)^(0+384),w
  5242  08FB  0087               	movwf	7
  5243  08FC  0801               	movf	1,w
  5244  08FD  00C4               	movwf	(??_usb_arm_out_endpoint+4)^(0+384)
  5245  08FE  0021               	movlb	1	; select bank1
  5246  08FF  0834               	movf	usb_arm_out_endpoint@endpoint^(0+128),w
  5247  0900  0023               	movlb	3	; select bank3
  5248  0901  00C5               	movwf	(??_usb_arm_out_endpoint+5)^(0+384)
  5249  0902  3002               	movlw	2
  5250  0903                     u5615:	
  5251  0903  35C5               	lslf	(??_usb_arm_out_endpoint+5)^(0+384),f
  5252  0904  3EFF               	addlw	-1
  5253  0905  1D03               	skipz
  5254  0906  2903               	goto	u5615
  5255  0907  3545               	lslf	(??_usb_arm_out_endpoint+5)^(0+384),w
  5256  0908  3E21               	addlw	33
  5257  0909  0086               	movwf	6
  5258  090A  0187               	clrf	7
  5259  090B  0844               	movf	(??_usb_arm_out_endpoint+4)^(0+384),w
  5260  090C  0081               	movwf	1
  5261  090D  3088               	movlw	136
  5262  090E  00C0               	movwf	??_usb_arm_out_endpoint^(0+384)
  5263  090F  0021               	movlb	1	; select bank1
  5264  0910  0834               	movf	usb_arm_out_endpoint@endpoint^(0+128),w
  5265  0911  0023               	movlb	3	; select bank3
  5266  0912  00C1               	movwf	(??_usb_arm_out_endpoint+1)^(0+384)
  5267  0913  3002               	movlw	2
  5268  0914                     u5625:	
  5269  0914  35C1               	lslf	(??_usb_arm_out_endpoint+1)^(0+384),f
  5270  0915  3EFF               	addlw	-1
  5271  0916  1D03               	skipz
  5272  0917  2914               	goto	u5625
  5273  0918                     L3:	
  5274  0918  3541               	lslf	(??_usb_arm_out_endpoint+1)^(0+384),w
  5275  0919  3E20               	addlw	32
  5276  091A  0086               	movwf	6
  5277  091B  0187               	clrf	7
  5278  091C  0840               	movf	??_usb_arm_out_endpoint^(0+384),w
  5279  091D  0081               	movwf	1
  5280                           
  5281                           ;usb.c: 1650: ep_buf[endpoint].flags ^= 0x4;
  5282  091E  3004               	movlw	4
  5283  091F  00C0               	movwf	??_usb_arm_out_endpoint^(0+384)
  5284  0920  0021               	movlb	1	; select bank1
  5285  0921  0834               	movf	usb_arm_out_endpoint@endpoint^(0+128),w
  5286  0922  0023               	movlb	3	; select bank3
  5287  0923  00C1               	movwf	(??_usb_arm_out_endpoint+1)^(0+384)
  5288  0924  01C2               	clrf	((??_usb_arm_out_endpoint+1)^(0+384)+1)
  5289  0925  0841               	movf	(??_usb_arm_out_endpoint+1)^(0+384),w
  5290  0926  0021               	movlb	1	; select bank1
  5291  0927  00AD               	movwf	___wmul@multiplier^(0+128)
  5292  0928  0023               	movlb	3	; select bank3
  5293  0929  0842               	movf	(??_usb_arm_out_endpoint+2)^(0+384),w
  5294  092A  0021               	movlb	1	; select bank1
  5295  092B  00AE               	movwf	(___wmul@multiplier+1)^(0+128)
  5296  092C  3007               	movlw	7
  5297  092D  00AF               	movwf	___wmul@multiplicand^(0+128)
  5298  092E  3000               	movlw	0
  5299  092F  00B0               	movwf	(___wmul@multiplicand^(0+128)+1)
  5300  0930  319E  26C9         	fcall	___wmul
  5301  0932  305E               	movlw	low (_ep_buf+6)
  5302  0933  0023               	movlb	3	; select bank3
  5303  0934  00C3               	movwf	(??_usb_arm_out_endpoint+3)^(0+384)
  5304  0935  3002               	movlw	high (_ep_buf+6)
  5305  0936  00C4               	movwf	((??_usb_arm_out_endpoint+3)^(0+384)+1)
  5306  0937  0021               	movlb	1	; select bank1
  5307  0938  082D               	movf	?___wmul^(0+128),w
  5308  0939  0023               	movlb	3	; select bank3
  5309  093A  0743               	addwf	(??_usb_arm_out_endpoint+3)^(0+384),w
  5310  093B  0086               	movwf	6
  5311  093C  0021               	movlb	1	; select bank1
  5312  093D  082E               	movf	(?___wmul+1)^(0+128),w
  5313  093E  0023               	movlb	3	; select bank3
  5314  093F  3D44               	addwfc	(??_usb_arm_out_endpoint+4)^(0+384),w
  5315  0940  0087               	movwf	7
  5316  0941  0840               	movf	??_usb_arm_out_endpoint^(0+384),w
  5317  0942  0681               	xorwf	1,f
  5318  0943  0008               	return
  5319  0944                     __end_of_usb_arm_out_endpoint:	
  5320                           
  5321                           	psect	text14
  5322  1EC9                     __ptext14:	
  5323 ;; *************** function ___wmul *****************
  5324 ;; Defined at:
  5325 ;;		line 15 in file "C:\Program Files (x86)\Microchip\xc8\v2.10\pic\sources\c90\common\Umul16.c"
  5326 ;; Parameters:    Size  Location     Type
  5327 ;;  multiplier      2   13[BANK1 ] unsigned int 
  5328 ;;  multiplicand    2   15[BANK1 ] unsigned int 
  5329 ;; Auto vars:     Size  Location     Type
  5330 ;;  product         2   17[BANK1 ] unsigned int 
  5331 ;; Return value:  Size  Location     Type
  5332 ;;                  2   13[BANK1 ] unsigned int 
  5333 ;; Registers used:
  5334 ;;		wreg, status,2, status,0
  5335 ;; Tracked objects:
  5336 ;;		On entry : 1F/1
  5337 ;;		On exit  : 1F/1
  5338 ;;		Unchanged: 0/0
  5339 ;; Data sizes:     COMMON   BANK0   BANK1   BANK2   BANK3   BANK4   BANK5   BANK6   BANK7   BANK8   BANK9  BANK10  BANK1
      +1  BANK12
  5340 ;;      Params:         0       0       4       0       0       0       0       0       0       0       0       0       
      +0       0
  5341 ;;      Locals:         0       0       2       0       0       0       0       0       0       0       0       0       
      +0       0
  5342 ;;      Temps:          0       0       0       0       0       0       0       0       0       0       0       0       
      +0       0
  5343 ;;      Totals:         0       0       6       0       0       0       0       0       0       0       0       0       
      +0       0
  5344 ;;Total ram usage:        6 bytes
  5345 ;; Hardware stack levels used:    1
  5346 ;; Hardware stack levels required when called:   10
  5347 ;; This function calls:
  5348 ;;		Nothing
  5349 ;; This function is called by:
  5350 ;;		_pic16_linear_addr
  5351 ;;		_init_endpoints
  5352 ;;		_usb_get_in_buffer
  5353 ;;		_usb_send_in_buffer
  5354 ;;		_usb_in_endpoint_halted
  5355 ;;		_usb_get_out_buffer
  5356 ;;		_usb_arm_out_endpoint
  5357 ;; This function uses a non-reentrant model
  5358 ;;
  5359                           
  5360                           
  5361                           ;psect for function ___wmul
  5362  1EC9                     ___wmul:	
  5363                           
  5364                           ;incstack = 0
  5365                           ; Regs used in ___wmul: [wreg+status,2+status,0]
  5366  1EC9  01B1               	clrf	___wmul@product^(0+128)
  5367  1ECA  01B2               	clrf	(___wmul@product+1)^(0+128)
  5368  1ECB                     l4733:	
  5369  1ECB  1C2D               	btfss	___wmul@multiplier^(0+128),0
  5370  1ECC  2ED1               	goto	l850
  5371  1ECD  082F               	movf	___wmul@multiplicand^(0+128),w
  5372  1ECE  07B1               	addwf	___wmul@product^(0+128),f
  5373  1ECF  0830               	movf	(___wmul@multiplicand+1)^(0+128),w
  5374  1ED0  3DB2               	addwfc	(___wmul@product+1)^(0+128),f
  5375  1ED1                     l850:	
  5376  1ED1  3001               	movlw	1
  5377  1ED2                     u4895:	
  5378  1ED2  35AF               	lslf	___wmul@multiplicand^(0+128),f
  5379  1ED3  0DB0               	rlf	(___wmul@multiplicand+1)^(0+128),f
  5380  1ED4  0B89               	decfsz	9,f
  5381  1ED5  2ED2               	goto	u4895
  5382  1ED6  3001               	movlw	1
  5383  1ED7                     u4905:	
  5384  1ED7  36AE               	lsrf	(___wmul@multiplier+1)^(0+128),f
  5385  1ED8  0CAD               	rrf	___wmul@multiplier^(0+128),f
  5386  1ED9  0B89               	decfsz	9,f
  5387  1EDA  2ED7               	goto	u4905
  5388  1EDB  082D               	movf	___wmul@multiplier^(0+128),w
  5389  1EDC  042E               	iorwf	(___wmul@multiplier+1)^(0+128),w
  5390  1EDD  1D03               	btfss	3,2
  5391  1EDE  2ECB               	goto	l4733
  5392  1EDF  0832               	movf	(___wmul@product+1)^(0+128),w
  5393  1EE0  00AE               	movwf	(?___wmul+1)^(0+128)
  5394  1EE1  0831               	movf	___wmul@product^(0+128),w
  5395  1EE2  00AD               	movwf	?___wmul^(0+128)
  5396  1EE3  0008               	return
  5397  1EE4                     __end_of___wmul:	
  5398                           
  5399                           	psect	text15
  5400  1E49                     __ptext15:	
  5401 ;; *************** function _strlen *****************
  5402 ;; Defined at:
  5403 ;;		line 4 in file "C:\Program Files (x86)\Microchip\xc8\v2.10\pic\sources\c90\common\strlen.c"
  5404 ;; Parameters:    Size  Location     Type
  5405 ;;  s               2   13[BANK1 ] PTR const unsigned char 
  5406 ;;		 -> FIRM_VERSION(4), PRODUCT_NAME(5), 
  5407 ;; Auto vars:     Size  Location     Type
  5408 ;;  cp              2   16[BANK1 ] PTR const unsigned char 
  5409 ;;		 -> FIRM_VERSION(4), PRODUCT_NAME(5), 
  5410 ;; Return value:  Size  Location     Type
  5411 ;;                  2   13[BANK1 ] unsigned int 
  5412 ;; Registers used:
  5413 ;;		wreg, fsr0l, fsr0h, status,2, status,0
  5414 ;; Tracked objects:
  5415 ;;		On entry : 1F/1
  5416 ;;		On exit  : 1F/1
  5417 ;;		Unchanged: 0/0
  5418 ;; Data sizes:     COMMON   BANK0   BANK1   BANK2   BANK3   BANK4   BANK5   BANK6   BANK7   BANK8   BANK9  BANK10  BANK1
      +1  BANK12
  5419 ;;      Params:         0       0       2       0       0       0       0       0       0       0       0       0       
      +0       0
  5420 ;;      Locals:         0       0       2       0       0       0       0       0       0       0       0       0       
      +0       0
  5421 ;;      Temps:          0       0       1       0       0       0       0       0       0       0       0       0       
      +0       0
  5422 ;;      Totals:         0       0       5       0       0       0       0       0       0       0       0       0       
      +0       0
  5423 ;;Total ram usage:        5 bytes
  5424 ;; Hardware stack levels used:    1
  5425 ;; Hardware stack levels required when called:   10
  5426 ;; This function calls:
  5427 ;;		Nothing
  5428 ;; This function is called by:
  5429 ;;		_main
  5430 ;; This function uses a non-reentrant model
  5431 ;;
  5432                           
  5433                           
  5434                           ;psect for function _strlen
  5435  1E49                     _strlen:	
  5436                           
  5437                           ;incstack = 0
  5438                           ; Regs used in _strlen: [wreg-fsr0h+status,2+status,0]
  5439  1E49  082E               	movf	(strlen@s+1)^(0+128),w
  5440  1E4A  00B1               	movwf	(strlen@cp+1)^(0+128)
  5441  1E4B  082D               	movf	strlen@s^(0+128),w
  5442  1E4C  00B0               	movwf	strlen@cp^(0+128)
  5443  1E4D                     l4341:	
  5444  1E4D  0830               	movf	strlen@cp^(0+128),w
  5445  1E4E  0084               	movwf	4
  5446  1E4F  0831               	movf	(strlen@cp+1)^(0+128),w
  5447  1E50  0085               	movwf	5
  5448  1E51  0012               	moviw fsr0++
  5449  1E52  1903               	btfsc	3,2
  5450  1E53  2E59               	goto	l4343
  5451  1E54  3001               	movlw	1
  5452  1E55  07B0               	addwf	strlen@cp^(0+128),f
  5453  1E56  3000               	movlw	0
  5454  1E57  3DB1               	addwfc	(strlen@cp+1)^(0+128),f
  5455  1E58  2E4D               	goto	l4341
  5456  1E59                     l4343:	
  5457  1E59  082D               	movf	strlen@s^(0+128),w
  5458  1E5A  0230               	subwf	strlen@cp^(0+128),w
  5459  1E5B  00AD               	movwf	?_strlen^(0+128)
  5460  1E5C  082E               	movf	(strlen@s+1)^(0+128),w
  5461  1E5D  3B31               	subwfb	(strlen@cp+1)^(0+128),w
  5462  1E5E  00AE               	movwf	(?_strlen+1)^(0+128)
  5463  1E5F  0008               	return
  5464  1E60                     __end_of_strlen:	
  5465                           
  5466                           	psect	text16
  5467  0800                     __ptext16:	
  5468 ;; *************** function _hardware_init *****************
  5469 ;; Defined at:
  5470 ;;		line 206 in file "../../common/hardware.c"
  5471 ;; Parameters:    Size  Location     Type
  5472 ;;		None
  5473 ;; Auto vars:     Size  Location     Type
  5474 ;;		None
  5475 ;; Return value:  Size  Location     Type
  5476 ;;                  1    wreg      void 
  5477 ;; Registers used:
  5478 ;;		wreg, status,2, status,0
  5479 ;; Tracked objects:
  5480 ;;		On entry : B1F/0
  5481 ;;		On exit  : B1F/7
  5482 ;;		Unchanged: B00/0
  5483 ;; Data sizes:     COMMON   BANK0   BANK1   BANK2   BANK3   BANK4   BANK5   BANK6   BANK7   BANK8   BANK9  BANK10  BANK1
      +1  BANK12
  5484 ;;      Params:         0       0       0       0       0       0       0       0       0       0       0       0       
      +0       0
  5485 ;;      Locals:         0       0       0       0       0       0       0       0       0       0       0       0       
      +0       0
  5486 ;;      Temps:          0       0       0       0       0       0       0       0       0       0       0       0       
      +0       0
  5487 ;;      Totals:         0       0       0       0       0       0       0       0       0       0       0       0       
      +0       0
  5488 ;;Total ram usage:        0 bytes
  5489 ;; Hardware stack levels used:    1
  5490 ;; Hardware stack levels required when called:   10
  5491 ;; This function calls:
  5492 ;;		Nothing
  5493 ;; This function is called by:
  5494 ;;		_main
  5495 ;; This function uses a non-reentrant model
  5496 ;;
  5497                           
  5498                           
  5499                           ;psect for function _hardware_init
  5500  0800                     _hardware_init:	
  5501                           
  5502                           ;hardware.c: 221: OSCCONbits.IRCF = 0b1111;
  5503                           
  5504                           ;incstack = 0
  5505                           ; Regs used in _hardware_init: [wreg+status,2+status,0]
  5506  0800  303C               	movlw	60
  5507  0801  0021               	movlb	1	; select bank1
  5508  0802  0499               	iorwf	25,f	;volatile
  5509                           
  5510                           ;hardware.c: 224: ACTCONbits.ACTSRC = 1;
  5511  0803  0027               	movlb	7	; select bank7
  5512  0804  161B               	bsf	27,4	;volatile
  5513                           
  5514                           ;hardware.c: 225: ACTCONbits.ACTEN = 1;
  5515  0805  179B               	bsf	27,7	;volatile
  5516                           
  5517                           ;hardware.c: 238: INTCONbits.PEIE = 1;
  5518  0806  170B               	bsf	11,6	;volatile
  5519                           
  5520                           ;hardware.c: 239: INTCONbits.GIE = 1;
  5521  0807  178B               	bsf	11,7	;volatile
  5522  0808  0008               	return
  5523  0809                     __end_of_hardware_init:	
  5524                           
  5525                           	psect	text17
  5526  1758                     __ptext17:	
  5527 ;; *************** function _get_voltage *****************
  5528 ;; Defined at:
  5529 ;;		line 133 in file "../dmm_func.c"
  5530 ;; Parameters:    Size  Location     Type
  5531 ;;		None
  5532 ;; Auto vars:     Size  Location     Type
  5533 ;;  val             2    6[BANK4 ] int 
  5534 ;; Return value:  Size  Location     Type
  5535 ;;                  3    3[BANK4 ] float 
  5536 ;; Registers used:
  5537 ;;		wreg, status,2, status,0, pclath, cstack
  5538 ;; Tracked objects:
  5539 ;;		On entry : 1F/4
  5540 ;;		On exit  : 1F/4
  5541 ;;		Unchanged: 0/0
  5542 ;; Data sizes:     COMMON   BANK0   BANK1   BANK2   BANK3   BANK4   BANK5   BANK6   BANK7   BANK8   BANK9  BANK10  BANK1
      +1  BANK12
  5543 ;;      Params:         0       0       0       0       0       3       0       0       0       0       0       0       
      +0       0
  5544 ;;      Locals:         0       0       0       0       0       2       0       0       0       0       0       0       
      +0       0
  5545 ;;      Temps:          0       0       0       0       1       0       0       0       0       0       0       0       
      +0       0
  5546 ;;      Totals:         0       0       0       0       1       5       0       0       0       0       0       0       
      +0       0
  5547 ;;Total ram usage:        6 bytes
  5548 ;; Hardware stack levels used:    1
  5549 ;; Hardware stack levels required when called:   14
  5550 ;; This function calls:
  5551 ;;		___awtoft
  5552 ;;		___ftadd
  5553 ;;		___ftmul
  5554 ;;		_get_shunt_voltage
  5555 ;; This function is called by:
  5556 ;;		_main
  5557 ;; This function uses a non-reentrant model
  5558 ;;
  5559                           
  5560                           
  5561                           ;psect for function _get_voltage
  5562  1758                     _get_voltage:	
  5563                           
  5564                           ;dmm_func.c: 135: int16_t val = get_shunt_voltage(0x05);
  5565                           
  5566                           ;incstack = 0
  5567                           ; Regs used in _get_voltage: [wreg+status,2+status,0+pclath+cstack]
  5568  1758  3005               	movlw	5
  5569  1759  319F  273C  3197   	fcall	_get_shunt_voltage
  5570  175C  0844               	movf	(?_get_shunt_voltage+1)^(0+384),w
  5571  175D  0024               	movlb	4	; select bank4
  5572  175E  00A7               	movwf	(get_voltage@val+1)^(0+512)
  5573  175F  0023               	movlb	3	; select bank3
  5574  1760  0843               	movf	?_get_shunt_voltage^(0+384),w
  5575  1761  0024               	movlb	4	; select bank4
  5576  1762  00A6               	movwf	get_voltage@val^(0+512)
  5577                           
  5578                           ;dmm_func.c: 137: if(val<4080 && val>-4080)
  5579  1763  0827               	movf	(get_voltage@val+1)^(0+512),w
  5580  1764  3A80               	xorlw	128
  5581  1765  0023               	movlb	3	; select bank3
  5582  1766  00E9               	movwf	??_get_voltage^(0+384)
  5583  1767  308F               	movlw	143
  5584  1768  0269               	subwf	??_get_voltage^(0+384),w
  5585  1769  1D03               	skipz
  5586  176A  2F6E               	goto	u5635
  5587  176B  30F0               	movlw	240
  5588  176C  0024               	movlb	4	; select bank4
  5589  176D  0226               	subwf	get_voltage@val^(0+512),w
  5590  176E                     u5635:	
  5591  176E  1803               	skipnc
  5592  176F  2FBF               	goto	l5143
  5593  1770  0024               	movlb	4	; select bank4
  5594  1771  0827               	movf	(get_voltage@val+1)^(0+512),w
  5595  1772  3A80               	xorlw	128
  5596  1773  0023               	movlb	3	; select bank3
  5597  1774  00E9               	movwf	??_get_voltage^(0+384)
  5598  1775  3070               	movlw	112
  5599  1776  0269               	subwf	??_get_voltage^(0+384),w
  5600  1777  1D03               	skipz
  5601  1778  2F7C               	goto	u5645
  5602  1779  3011               	movlw	17
  5603  177A  0024               	movlb	4	; select bank4
  5604  177B  0226               	subwf	get_voltage@val^(0+512),w
  5605  177C                     u5645:	
  5606  177C  1C03               	skipc
  5607  177D  2FBF               	goto	l5143
  5608                           
  5609                           ;dmm_func.c: 138: return val * lowVoltageSlope + lowVoltageOffset;
  5610  177E  0024               	movlb	4	; select bank4
  5611  177F  0846               	movf	_lowVoltageOffset^(0+512),w
  5612  1780  0023               	movlb	3	; select bank3
  5613  1781  00DF               	movwf	___ftadd@f1^(0+384)
  5614  1782  0024               	movlb	4	; select bank4
  5615  1783  0847               	movf	(_lowVoltageOffset+1)^(0+512),w
  5616  1784  0023               	movlb	3	; select bank3
  5617  1785  00E0               	movwf	(___ftadd@f1+1)^(0+384)
  5618  1786  0024               	movlb	4	; select bank4
  5619  1787  0848               	movf	(_lowVoltageOffset+2)^(0+512),w
  5620  1788  0023               	movlb	3	; select bank3
  5621  1789  00E1               	movwf	(___ftadd@f1+2)^(0+384)
  5622  178A  0024               	movlb	4	; select bank4
  5623  178B  0849               	movf	_lowVoltageSlope^(0+512),w
  5624  178C  0023               	movlb	3	; select bank3
  5625  178D  00CF               	movwf	___ftmul@f1^(0+384)
  5626  178E  0024               	movlb	4	; select bank4
  5627  178F  084A               	movf	(_lowVoltageSlope+1)^(0+512),w
  5628  1790  0023               	movlb	3	; select bank3
  5629  1791  00D0               	movwf	(___ftmul@f1+1)^(0+384)
  5630  1792  0024               	movlb	4	; select bank4
  5631  1793  084B               	movf	(_lowVoltageSlope+2)^(0+512),w
  5632  1794  0023               	movlb	3	; select bank3
  5633  1795  00D1               	movwf	(___ftmul@f1+2)^(0+384)
  5634  1796  0024               	movlb	4	; select bank4
  5635  1797  0827               	movf	(get_voltage@val+1)^(0+512),w
  5636  1798  0023               	movlb	3	; select bank3
  5637  1799  00CB               	movwf	(___awtoft@c+1)^(0+384)
  5638  179A  0024               	movlb	4	; select bank4
  5639  179B  0826               	movf	get_voltage@val^(0+512),w
  5640  179C  0023               	movlb	3	; select bank3
  5641  179D  00CA               	movwf	___awtoft@c^(0+384)
  5642  179E  3190  20CF  3197   	fcall	___awtoft
  5643  17A1  084A               	movf	?___awtoft^(0+384),w
  5644  17A2  00D2               	movwf	___ftmul@f2^(0+384)
  5645  17A3  084B               	movf	(?___awtoft+1)^(0+384),w
  5646  17A4  00D3               	movwf	(___ftmul@f2+1)^(0+384)
  5647  17A5  084C               	movf	(?___awtoft+2)^(0+384),w
  5648  17A6  00D4               	movwf	(___ftmul@f2+2)^(0+384)
  5649  17A7  3196  2608  3197   	fcall	___ftmul
  5650  17AA  084F               	movf	?___ftmul^(0+384),w
  5651  17AB  00E2               	movwf	___ftadd@f2^(0+384)
  5652  17AC  0850               	movf	(?___ftmul+1)^(0+384),w
  5653  17AD  00E3               	movwf	(___ftadd@f2+1)^(0+384)
  5654  17AE  0851               	movf	(?___ftmul+2)^(0+384),w
  5655  17AF  00E4               	movwf	(___ftadd@f2+2)^(0+384)
  5656  17B0  318A  224E         	fcall	___ftadd
  5657  17B2  0023               	movlb	3	; select bank3
  5658  17B3  085F               	movf	?___ftadd^(0+384),w
  5659  17B4  0024               	movlb	4	; select bank4
  5660  17B5  00A3               	movwf	?_get_voltage^(0+512)
  5661  17B6  0023               	movlb	3	; select bank3
  5662  17B7  0860               	movf	(?___ftadd+1)^(0+384),w
  5663  17B8  0024               	movlb	4	; select bank4
  5664  17B9  00A4               	movwf	(?_get_voltage+1)^(0+512)
  5665  17BA  0023               	movlb	3	; select bank3
  5666  17BB  0861               	movf	(?___ftadd+2)^(0+384),w
  5667  17BC  0024               	movlb	4	; select bank4
  5668  17BD  00A5               	movwf	(?_get_voltage+2)^(0+512)
  5669  17BE  0008               	return
  5670  17BF                     l5143:	
  5671                           
  5672                           ;dmm_func.c: 139: else;dmm_func.c: 140: return get_shunt_voltage(0x06) * highVoltageSlop
      +                          e + highVoltageOffset;
  5673  17BF  0024               	movlb	4	; select bank4
  5674  17C0  0840               	movf	_highVoltageOffset^(0+512),w
  5675  17C1  0023               	movlb	3	; select bank3
  5676  17C2  00DF               	movwf	___ftadd@f1^(0+384)
  5677  17C3  0024               	movlb	4	; select bank4
  5678  17C4  0841               	movf	(_highVoltageOffset+1)^(0+512),w
  5679  17C5  0023               	movlb	3	; select bank3
  5680  17C6  00E0               	movwf	(___ftadd@f1+1)^(0+384)
  5681  17C7  0024               	movlb	4	; select bank4
  5682  17C8  0842               	movf	(_highVoltageOffset+2)^(0+512),w
  5683  17C9  0023               	movlb	3	; select bank3
  5684  17CA  00E1               	movwf	(___ftadd@f1+2)^(0+384)
  5685  17CB  0024               	movlb	4	; select bank4
  5686  17CC  0843               	movf	_highVoltageSlope^(0+512),w
  5687  17CD  0023               	movlb	3	; select bank3
  5688  17CE  00CF               	movwf	___ftmul@f1^(0+384)
  5689  17CF  0024               	movlb	4	; select bank4
  5690  17D0  0844               	movf	(_highVoltageSlope+1)^(0+512),w
  5691  17D1  0023               	movlb	3	; select bank3
  5692  17D2  00D0               	movwf	(___ftmul@f1+1)^(0+384)
  5693  17D3  0024               	movlb	4	; select bank4
  5694  17D4  0845               	movf	(_highVoltageSlope+2)^(0+512),w
  5695  17D5  0023               	movlb	3	; select bank3
  5696  17D6  00D1               	movwf	(___ftmul@f1+2)^(0+384)
  5697  17D7  3006               	movlw	6
  5698  17D8  319F  273C  3197   	fcall	_get_shunt_voltage
  5699  17DB  0844               	movf	(?_get_shunt_voltage+1)^(0+384),w
  5700  17DC  00CB               	movwf	(___awtoft@c+1)^(0+384)
  5701  17DD  0843               	movf	?_get_shunt_voltage^(0+384),w
  5702  17DE  00CA               	movwf	___awtoft@c^(0+384)
  5703  17DF  3190  20CF  3197   	fcall	___awtoft
  5704  17E2  084A               	movf	?___awtoft^(0+384),w
  5705  17E3  00D2               	movwf	___ftmul@f2^(0+384)
  5706  17E4  084B               	movf	(?___awtoft+1)^(0+384),w
  5707  17E5  00D3               	movwf	(___ftmul@f2+1)^(0+384)
  5708  17E6  084C               	movf	(?___awtoft+2)^(0+384),w
  5709  17E7  00D4               	movwf	(___ftmul@f2+2)^(0+384)
  5710  17E8  3196  2608  3197   	fcall	___ftmul
  5711  17EB  084F               	movf	?___ftmul^(0+384),w
  5712  17EC  00E2               	movwf	___ftadd@f2^(0+384)
  5713  17ED  0850               	movf	(?___ftmul+1)^(0+384),w
  5714  17EE  00E3               	movwf	(___ftadd@f2+1)^(0+384)
  5715  17EF  0851               	movf	(?___ftmul+2)^(0+384),w
  5716  17F0  00E4               	movwf	(___ftadd@f2+2)^(0+384)
  5717  17F1  318A  224E         	fcall	___ftadd
  5718  17F3  0023               	movlb	3	; select bank3
  5719  17F4  085F               	movf	?___ftadd^(0+384),w
  5720  17F5  0024               	movlb	4	; select bank4
  5721  17F6  00A3               	movwf	?_get_voltage^(0+512)
  5722  17F7  0023               	movlb	3	; select bank3
  5723  17F8  0860               	movf	(?___ftadd+1)^(0+384),w
  5724  17F9  0024               	movlb	4	; select bank4
  5725  17FA  00A4               	movwf	(?_get_voltage+1)^(0+512)
  5726  17FB  0023               	movlb	3	; select bank3
  5727  17FC  0861               	movf	(?___ftadd+2)^(0+384),w
  5728  17FD  0024               	movlb	4	; select bank4
  5729  17FE  00A5               	movwf	(?_get_voltage+2)^(0+512)
  5730  17FF  0008               	return
  5731  1800                     __end_of_get_voltage:	
  5732                           
  5733                           	psect	text18
  5734  16B0                     __ptext18:	
  5735 ;; *************** function _get_current *****************
  5736 ;; Defined at:
  5737 ;;		line 143 in file "../dmm_func.c"
  5738 ;; Parameters:    Size  Location     Type
  5739 ;;		None
  5740 ;; Auto vars:     Size  Location     Type
  5741 ;;  val             2    6[BANK4 ] int 
  5742 ;; Return value:  Size  Location     Type
  5743 ;;                  3    3[BANK4 ] float 
  5744 ;; Registers used:
  5745 ;;		wreg, status,2, status,0, pclath, cstack
  5746 ;; Tracked objects:
  5747 ;;		On entry : 1F/4
  5748 ;;		On exit  : 1F/4
  5749 ;;		Unchanged: 0/0
  5750 ;; Data sizes:     COMMON   BANK0   BANK1   BANK2   BANK3   BANK4   BANK5   BANK6   BANK7   BANK8   BANK9  BANK10  BANK1
      +1  BANK12
  5751 ;;      Params:         0       0       0       0       0       3       0       0       0       0       0       0       
      +0       0
  5752 ;;      Locals:         0       0       0       0       0       2       0       0       0       0       0       0       
      +0       0
  5753 ;;      Temps:          0       0       0       0       1       0       0       0       0       0       0       0       
      +0       0
  5754 ;;      Totals:         0       0       0       0       1       5       0       0       0       0       0       0       
      +0       0
  5755 ;;Total ram usage:        6 bytes
  5756 ;; Hardware stack levels used:    1
  5757 ;; Hardware stack levels required when called:   14
  5758 ;; This function calls:
  5759 ;;		___awtoft
  5760 ;;		___ftadd
  5761 ;;		___ftmul
  5762 ;;		_get_shunt_voltage
  5763 ;; This function is called by:
  5764 ;;		_main
  5765 ;; This function uses a non-reentrant model
  5766 ;;
  5767                           
  5768                           
  5769                           ;psect for function _get_current
  5770  16B0                     _get_current:	
  5771                           
  5772                           ;dmm_func.c: 145: int16_t val = get_shunt_voltage(0x03);
  5773                           
  5774                           ;incstack = 0
  5775                           ; Regs used in _get_current: [wreg+status,2+status,0+pclath+cstack]
  5776  16B0  3003               	movlw	3
  5777  16B1  319F  273C  3196   	fcall	_get_shunt_voltage
  5778  16B4  0844               	movf	(?_get_shunt_voltage+1)^(0+384),w
  5779  16B5  0024               	movlb	4	; select bank4
  5780  16B6  00A7               	movwf	(get_current@val+1)^(0+512)
  5781  16B7  0023               	movlb	3	; select bank3
  5782  16B8  0843               	movf	?_get_shunt_voltage^(0+384),w
  5783  16B9  0024               	movlb	4	; select bank4
  5784  16BA  00A6               	movwf	get_current@val^(0+512)
  5785                           
  5786                           ;dmm_func.c: 147: if(val<0x05D8 && val>-0x05D8)
  5787  16BB  0827               	movf	(get_current@val+1)^(0+512),w
  5788  16BC  3A80               	xorlw	128
  5789  16BD  0023               	movlb	3	; select bank3
  5790  16BE  00E9               	movwf	??_get_current^(0+384)
  5791  16BF  3085               	movlw	133
  5792  16C0  0269               	subwf	??_get_current^(0+384),w
  5793  16C1  1D03               	skipz
  5794  16C2  2EC6               	goto	u5655
  5795  16C3  30D8               	movlw	216
  5796  16C4  0024               	movlb	4	; select bank4
  5797  16C5  0226               	subwf	get_current@val^(0+512),w
  5798  16C6                     u5655:	
  5799  16C6  1803               	skipnc
  5800  16C7  2F17               	goto	l5159
  5801  16C8  0024               	movlb	4	; select bank4
  5802  16C9  0827               	movf	(get_current@val+1)^(0+512),w
  5803  16CA  3A80               	xorlw	128
  5804  16CB  0023               	movlb	3	; select bank3
  5805  16CC  00E9               	movwf	??_get_current^(0+384)
  5806  16CD  307A               	movlw	122
  5807  16CE  0269               	subwf	??_get_current^(0+384),w
  5808  16CF  1D03               	skipz
  5809  16D0  2ED4               	goto	u5665
  5810  16D1  3029               	movlw	41
  5811  16D2  0024               	movlb	4	; select bank4
  5812  16D3  0226               	subwf	get_current@val^(0+512),w
  5813  16D4                     u5665:	
  5814  16D4  1C03               	skipc
  5815  16D5  2F17               	goto	l5159
  5816                           
  5817                           ;dmm_func.c: 148: return get_shunt_voltage(0x01) * lowCurrentSlope + lowCurrentOffset;
  5818  16D6  0024               	movlb	4	; select bank4
  5819  16D7  0852               	movf	_lowCurrentOffset^(0+512),w
  5820  16D8  0023               	movlb	3	; select bank3
  5821  16D9  00DF               	movwf	___ftadd@f1^(0+384)
  5822  16DA  0024               	movlb	4	; select bank4
  5823  16DB  0853               	movf	(_lowCurrentOffset+1)^(0+512),w
  5824  16DC  0023               	movlb	3	; select bank3
  5825  16DD  00E0               	movwf	(___ftadd@f1+1)^(0+384)
  5826  16DE  0024               	movlb	4	; select bank4
  5827  16DF  0854               	movf	(_lowCurrentOffset+2)^(0+512),w
  5828  16E0  0023               	movlb	3	; select bank3
  5829  16E1  00E1               	movwf	(___ftadd@f1+2)^(0+384)
  5830  16E2  0024               	movlb	4	; select bank4
  5831  16E3  0855               	movf	_lowCurrentSlope^(0+512),w
  5832  16E4  0023               	movlb	3	; select bank3
  5833  16E5  00CF               	movwf	___ftmul@f1^(0+384)
  5834  16E6  0024               	movlb	4	; select bank4
  5835  16E7  0856               	movf	(_lowCurrentSlope+1)^(0+512),w
  5836  16E8  0023               	movlb	3	; select bank3
  5837  16E9  00D0               	movwf	(___ftmul@f1+1)^(0+384)
  5838  16EA  0024               	movlb	4	; select bank4
  5839  16EB  0857               	movf	(_lowCurrentSlope+2)^(0+512),w
  5840  16EC  0023               	movlb	3	; select bank3
  5841  16ED  00D1               	movwf	(___ftmul@f1+2)^(0+384)
  5842  16EE  3001               	movlw	1
  5843  16EF  319F  273C  3196   	fcall	_get_shunt_voltage
  5844  16F2  0844               	movf	(?_get_shunt_voltage+1)^(0+384),w
  5845  16F3  00CB               	movwf	(___awtoft@c+1)^(0+384)
  5846  16F4  0843               	movf	?_get_shunt_voltage^(0+384),w
  5847  16F5  00CA               	movwf	___awtoft@c^(0+384)
  5848  16F6  3190  20CF  3196   	fcall	___awtoft
  5849  16F9  084A               	movf	?___awtoft^(0+384),w
  5850  16FA  00D2               	movwf	___ftmul@f2^(0+384)
  5851  16FB  084B               	movf	(?___awtoft+1)^(0+384),w
  5852  16FC  00D3               	movwf	(___ftmul@f2+1)^(0+384)
  5853  16FD  084C               	movf	(?___awtoft+2)^(0+384),w
  5854  16FE  00D4               	movwf	(___ftmul@f2+2)^(0+384)
  5855  16FF  3196  2608  3196   	fcall	___ftmul
  5856  1702  084F               	movf	?___ftmul^(0+384),w
  5857  1703  00E2               	movwf	___ftadd@f2^(0+384)
  5858  1704  0850               	movf	(?___ftmul+1)^(0+384),w
  5859  1705  00E3               	movwf	(___ftadd@f2+1)^(0+384)
  5860  1706  0851               	movf	(?___ftmul+2)^(0+384),w
  5861  1707  00E4               	movwf	(___ftadd@f2+2)^(0+384)
  5862  1708  318A  224E         	fcall	___ftadd
  5863  170A  0023               	movlb	3	; select bank3
  5864  170B  085F               	movf	?___ftadd^(0+384),w
  5865  170C  0024               	movlb	4	; select bank4
  5866  170D  00A3               	movwf	?_get_current^(0+512)
  5867  170E  0023               	movlb	3	; select bank3
  5868  170F  0860               	movf	(?___ftadd+1)^(0+384),w
  5869  1710  0024               	movlb	4	; select bank4
  5870  1711  00A4               	movwf	(?_get_current+1)^(0+512)
  5871  1712  0023               	movlb	3	; select bank3
  5872  1713  0861               	movf	(?___ftadd+2)^(0+384),w
  5873  1714  0024               	movlb	4	; select bank4
  5874  1715  00A5               	movwf	(?_get_current+2)^(0+512)
  5875  1716  0008               	return
  5876  1717                     l5159:	
  5877                           
  5878                           ;dmm_func.c: 149: else;dmm_func.c: 150: return val * highCurrentSlope + highCurrentOffse
      +                          t;
  5879  1717  0024               	movlb	4	; select bank4
  5880  1718  084C               	movf	_highCurrentOffset^(0+512),w
  5881  1719  0023               	movlb	3	; select bank3
  5882  171A  00DF               	movwf	___ftadd@f1^(0+384)
  5883  171B  0024               	movlb	4	; select bank4
  5884  171C  084D               	movf	(_highCurrentOffset+1)^(0+512),w
  5885  171D  0023               	movlb	3	; select bank3
  5886  171E  00E0               	movwf	(___ftadd@f1+1)^(0+384)
  5887  171F  0024               	movlb	4	; select bank4
  5888  1720  084E               	movf	(_highCurrentOffset+2)^(0+512),w
  5889  1721  0023               	movlb	3	; select bank3
  5890  1722  00E1               	movwf	(___ftadd@f1+2)^(0+384)
  5891  1723  0024               	movlb	4	; select bank4
  5892  1724  084F               	movf	_highCurrentSlope^(0+512),w
  5893  1725  0023               	movlb	3	; select bank3
  5894  1726  00CF               	movwf	___ftmul@f1^(0+384)
  5895  1727  0024               	movlb	4	; select bank4
  5896  1728  0850               	movf	(_highCurrentSlope+1)^(0+512),w
  5897  1729  0023               	movlb	3	; select bank3
  5898  172A  00D0               	movwf	(___ftmul@f1+1)^(0+384)
  5899  172B  0024               	movlb	4	; select bank4
  5900  172C  0851               	movf	(_highCurrentSlope+2)^(0+512),w
  5901  172D  0023               	movlb	3	; select bank3
  5902  172E  00D1               	movwf	(___ftmul@f1+2)^(0+384)
  5903  172F  0024               	movlb	4	; select bank4
  5904  1730  0827               	movf	(get_current@val+1)^(0+512),w
  5905  1731  0023               	movlb	3	; select bank3
  5906  1732  00CB               	movwf	(___awtoft@c+1)^(0+384)
  5907  1733  0024               	movlb	4	; select bank4
  5908  1734  0826               	movf	get_current@val^(0+512),w
  5909  1735  0023               	movlb	3	; select bank3
  5910  1736  00CA               	movwf	___awtoft@c^(0+384)
  5911  1737  3190  20CF  3196   	fcall	___awtoft
  5912  173A  084A               	movf	?___awtoft^(0+384),w
  5913  173B  00D2               	movwf	___ftmul@f2^(0+384)
  5914  173C  084B               	movf	(?___awtoft+1)^(0+384),w
  5915  173D  00D3               	movwf	(___ftmul@f2+1)^(0+384)
  5916  173E  084C               	movf	(?___awtoft+2)^(0+384),w
  5917  173F  00D4               	movwf	(___ftmul@f2+2)^(0+384)
  5918  1740  3196  2608  3196   	fcall	___ftmul
  5919  1743  084F               	movf	?___ftmul^(0+384),w
  5920  1744  00E2               	movwf	___ftadd@f2^(0+384)
  5921  1745  0850               	movf	(?___ftmul+1)^(0+384),w
  5922  1746  00E3               	movwf	(___ftadd@f2+1)^(0+384)
  5923  1747  0851               	movf	(?___ftmul+2)^(0+384),w
  5924  1748  00E4               	movwf	(___ftadd@f2+2)^(0+384)
  5925  1749  318A  224E         	fcall	___ftadd
  5926  174B  0023               	movlb	3	; select bank3
  5927  174C  085F               	movf	?___ftadd^(0+384),w
  5928  174D  0024               	movlb	4	; select bank4
  5929  174E  00A3               	movwf	?_get_current^(0+512)
  5930  174F  0023               	movlb	3	; select bank3
  5931  1750  0860               	movf	(?___ftadd+1)^(0+384),w
  5932  1751  0024               	movlb	4	; select bank4
  5933  1752  00A4               	movwf	(?_get_current+1)^(0+512)
  5934  1753  0023               	movlb	3	; select bank3
  5935  1754  0861               	movf	(?___ftadd+2)^(0+384),w
  5936  1755  0024               	movlb	4	; select bank4
  5937  1756  00A5               	movwf	(?_get_current+2)^(0+512)
  5938  1757  0008               	return
  5939  1758                     __end_of_get_current:	
  5940                           
  5941                           	psect	text19
  5942  1F3C                     __ptext19:	
  5943 ;; *************** function _get_shunt_voltage *****************
  5944 ;; Defined at:
  5945 ;;		line 116 in file "../dmm_func.c"
  5946 ;; Parameters:    Size  Location     Type
  5947 ;;  regAddr         1    wreg     unsigned char 
  5948 ;; Auto vars:     Size  Location     Type
  5949 ;;  regAddr         1    7[BANK3 ] unsigned char 
  5950 ;;  vshunt          2    8[BANK3 ] struct .
  5951 ;; Return value:  Size  Location     Type
  5952 ;;                  2    3[BANK3 ] int 
  5953 ;; Registers used:
  5954 ;;		wreg, status,2, status,0, pclath, cstack
  5955 ;; Tracked objects:
  5956 ;;		On entry : 18/4
  5957 ;;		On exit  : 1F/3
  5958 ;;		Unchanged: 0/0
  5959 ;; Data sizes:     COMMON   BANK0   BANK1   BANK2   BANK3   BANK4   BANK5   BANK6   BANK7   BANK8   BANK9  BANK10  BANK1
      +1  BANK12
  5960 ;;      Params:         0       0       0       0       2       0       0       0       0       0       0       0       
      +0       0
  5961 ;;      Locals:         0       0       0       0       3       0       0       0       0       0       0       0       
      +0       0
  5962 ;;      Temps:          0       0       0       0       2       0       0       0       0       0       0       0       
      +0       0
  5963 ;;      Totals:         0       0       0       0       7       0       0       0       0       0       0       0       
      +0       0
  5964 ;;Total ram usage:        7 bytes
  5965 ;; Hardware stack levels used:    1
  5966 ;; Hardware stack levels required when called:   13
  5967 ;; This function calls:
  5968 ;;		_i2c_reg_read
  5969 ;; This function is called by:
  5970 ;;		_get_voltage
  5971 ;;		_get_current
  5972 ;; This function uses a non-reentrant model
  5973 ;;
  5974                           
  5975                           
  5976                           ;psect for function _get_shunt_voltage
  5977  1F3C                     _get_shunt_voltage:	
  5978                           
  5979                           ;incstack = 0
  5980                           ; Regs used in _get_shunt_voltage: [wreg+status,2+status,0+pclath+cstack]
  5981                           ;get_shunt_voltage@regAddr stored from wreg
  5982  1F3C  0023               	movlb	3	; select bank3
  5983  1F3D  00C7               	movwf	get_shunt_voltage@regAddr^(0+384)
  5984                           
  5985                           ;dmm_func.c: 118: union {;dmm_func.c: 119: uint16_t uint16;;dmm_func.c: 120: int16_t int
      +                          16;;dmm_func.c: 121: } vshunt;;dmm_func.c: 123: vshunt.uint16 = i2c_reg_read(regAddr);
  5986  1F3E  0847               	movf	get_shunt_voltage@regAddr^(0+384),w
  5987  1F3F  3191  2169         	fcall	_i2c_reg_read
  5988  1F41  0831               	movf	(?_i2c_reg_read+1)^(0+128),w
  5989  1F42  0023               	movlb	3	; select bank3
  5990  1F43  00C9               	movwf	(get_shunt_voltage@vshunt+1)^(0+384)
  5991  1F44  0021               	movlb	1	; select bank1
  5992  1F45  0830               	movf	?_i2c_reg_read^(0+128),w
  5993  1F46  0023               	movlb	3	; select bank3
  5994  1F47  00C8               	movwf	get_shunt_voltage@vshunt^(0+384)
  5995                           
  5996                           ;dmm_func.c: 124: return vshunt.int16 >> 3;
  5997  1F48  0849               	movf	(get_shunt_voltage@vshunt+1)^(0+384),w
  5998  1F49  00C6               	movwf	(??_get_shunt_voltage^(0+384)+1)
  5999  1F4A  0848               	movf	get_shunt_voltage@vshunt^(0+384),w
  6000  1F4B  00C5               	movwf	??_get_shunt_voltage^(0+384)
  6001  1F4C  0D46               	rlf	(??_get_shunt_voltage^(0+384)+1),w
  6002  1F4D  0CC6               	rrf	(??_get_shunt_voltage^(0+384)+1),f
  6003  1F4E  0CC5               	rrf	??_get_shunt_voltage^(0+384),f
  6004  1F4F  0D46               	rlf	(??_get_shunt_voltage^(0+384)+1),w
  6005  1F50  0CC6               	rrf	(??_get_shunt_voltage^(0+384)+1),f
  6006  1F51  0CC5               	rrf	??_get_shunt_voltage^(0+384),f
  6007  1F52  0D46               	rlf	(??_get_shunt_voltage^(0+384)+1),w
  6008  1F53  0CC6               	rrf	(??_get_shunt_voltage^(0+384)+1),f
  6009  1F54  0CC5               	rrf	??_get_shunt_voltage^(0+384),f
  6010  1F55  0845               	movf	??_get_shunt_voltage^(0+384),w
  6011  1F56  00C3               	movwf	?_get_shunt_voltage^(0+384)
  6012  1F57  0846               	movf	(??_get_shunt_voltage+1)^(0+384),w
  6013  1F58  00C4               	movwf	(?_get_shunt_voltage+1)^(0+384)
  6014  1F59  0008               	return
  6015  1F5A                     __end_of_get_shunt_voltage:	
  6016                           
  6017                           	psect	text20
  6018  1169                     __ptext20:	
  6019 ;; *************** function _i2c_reg_read *****************
  6020 ;; Defined at:
  6021 ;;		line 102 in file "../dmm_func.c"
  6022 ;; Parameters:    Size  Location     Type
  6023 ;;  regAddr         1    wreg     unsigned char 
  6024 ;; Auto vars:     Size  Location     Type
  6025 ;;  regAddr         1    0[BANK3 ] unsigned char 
  6026 ;;  dat             2    1[BANK3 ] unsigned int 
  6027 ;; Return value:  Size  Location     Type
  6028 ;;                  2   16[BANK1 ] unsigned int 
  6029 ;; Registers used:
  6030 ;;		wreg, status,2, status,0, pclath, cstack
  6031 ;; Tracked objects:
  6032 ;;		On entry : 18/4
  6033 ;;		On exit  : 1F/1
  6034 ;;		Unchanged: 0/0
  6035 ;; Data sizes:     COMMON   BANK0   BANK1   BANK2   BANK3   BANK4   BANK5   BANK6   BANK7   BANK8   BANK9  BANK10  BANK1
      +1  BANK12
  6036 ;;      Params:         0       0       2       0       0       0       0       0       0       0       0       0       
      +0       0
  6037 ;;      Locals:         0       0       0       0       3       0       0       0       0       0       0       0       
      +0       0
  6038 ;;      Temps:          0       0       3       0       0       0       0       0       0       0       0       0       
      +0       0
  6039 ;;      Totals:         0       0       5       0       3       0       0       0       0       0       0       0       
      +0       0
  6040 ;;Total ram usage:        8 bytes
  6041 ;; Hardware stack levels used:    1
  6042 ;; Hardware stack levels required when called:   12
  6043 ;; This function calls:
  6044 ;;		_i2c_read_byte
  6045 ;;		_i2c_repeat_start
  6046 ;;		_i2c_send_byte
  6047 ;;		_i2c_start
  6048 ;;		_i2c_stop
  6049 ;; This function is called by:
  6050 ;;		_main
  6051 ;;		_get_shunt_voltage
  6052 ;; This function uses a non-reentrant model
  6053 ;;
  6054                           
  6055                           
  6056                           ;psect for function _i2c_reg_read
  6057  1169                     _i2c_reg_read:	
  6058                           
  6059                           ;incstack = 0
  6060                           ; Regs used in _i2c_reg_read: [wreg+status,2+status,0+pclath+cstack]
  6061                           ;i2c_reg_read@regAddr stored from wreg
  6062  1169  0023               	movlb	3	; select bank3
  6063  116A  00C0               	movwf	i2c_reg_read@regAddr^(0+384)
  6064                           
  6065                           ;dmm_func.c: 104: uint16_t dat;;dmm_func.c: 105: i2c_start();
  6066  116B  319D  2568  3191   	fcall	_i2c_start
  6067                           
  6068                           ;dmm_func.c: 106: i2c_send_byte(0x40 << 1 | 0);
  6069  116E  3080               	movlw	128
  6070  116F  319D  25A3  3191   	fcall	_i2c_send_byte
  6071                           
  6072                           ;dmm_func.c: 107: i2c_send_byte(regAddr);
  6073  1172  0023               	movlb	3	; select bank3
  6074  1173  0840               	movf	i2c_reg_read@regAddr^(0+384),w
  6075  1174  319D  25A3  3191   	fcall	_i2c_send_byte
  6076                           
  6077                           ;dmm_func.c: 108: i2c_repeat_start();
  6078  1177  3190  2000  3191   	fcall	_i2c_repeat_start
  6079                           
  6080                           ;dmm_func.c: 109: i2c_send_byte(0x40 << 1 | 1);
  6081  117A  3081               	movlw	129
  6082  117B  319D  25A3  3191   	fcall	_i2c_send_byte
  6083                           
  6084                           ;dmm_func.c: 110: dat = i2c_read_byte(1) << 8;
  6085  117E  3001               	movlw	1
  6086  117F  319F  271E  3191   	fcall	_i2c_read_byte
  6087  1182  00B2               	movwf	??_i2c_reg_read^(0+128)
  6088  1183  01B3               	clrf	(??_i2c_reg_read^(0+128)+1)
  6089  1184  0832               	movf	??_i2c_reg_read^(0+128),w
  6090  1185  00B3               	movwf	(??_i2c_reg_read^(0+128)+1)
  6091  1186  01B2               	clrf	??_i2c_reg_read^(0+128)
  6092  1187  0832               	movf	??_i2c_reg_read^(0+128),w
  6093  1188  0023               	movlb	3	; select bank3
  6094  1189  00C1               	movwf	i2c_reg_read@dat^(0+384)
  6095  118A  0021               	movlb	1	; select bank1
  6096  118B  0833               	movf	(??_i2c_reg_read+1)^(0+128),w
  6097  118C  0023               	movlb	3	; select bank3
  6098  118D  00C2               	movwf	(i2c_reg_read@dat+1)^(0+384)
  6099                           
  6100                           ;dmm_func.c: 111: dat |= i2c_read_byte(1);
  6101  118E  3001               	movlw	1
  6102  118F  319F  271E  3191   	fcall	_i2c_read_byte
  6103  1192  00B2               	movwf	??_i2c_reg_read^(0+128)
  6104  1193  01B3               	clrf	(??_i2c_reg_read^(0+128)+1)
  6105  1194  0832               	movf	??_i2c_reg_read^(0+128),w
  6106  1195  0023               	movlb	3	; select bank3
  6107  1196  04C1               	iorwf	i2c_reg_read@dat^(0+384),f
  6108  1197  0021               	movlb	1	; select bank1
  6109  1198  0833               	movf	(??_i2c_reg_read+1)^(0+128),w
  6110  1199  0023               	movlb	3	; select bank3
  6111  119A  04C2               	iorwf	(i2c_reg_read@dat+1)^(0+384),f
  6112                           
  6113                           ;dmm_func.c: 112: i2c_stop();
  6114  119B  319D  256D         	fcall	_i2c_stop
  6115                           
  6116                           ;dmm_func.c: 113: return dat;
  6117  119D  0023               	movlb	3	; select bank3
  6118  119E  0842               	movf	(i2c_reg_read@dat+1)^(0+384),w
  6119  119F  0021               	movlb	1	; select bank1
  6120  11A0  00B1               	movwf	(?_i2c_reg_read+1)^(0+128)
  6121  11A1  0023               	movlb	3	; select bank3
  6122  11A2  0841               	movf	i2c_reg_read@dat^(0+384),w
  6123  11A3  0021               	movlb	1	; select bank1
  6124  11A4  00B0               	movwf	?_i2c_reg_read^(0+128)
  6125  11A5  0008               	return
  6126  11A6                     __end_of_i2c_reg_read:	
  6127                           
  6128                           	psect	text21
  6129  1000                     __ptext21:	
  6130 ;; *************** function _i2c_repeat_start *****************
  6131 ;; Defined at:
  6132 ;;		line 74 in file "../../lib/i2c-lib.c"
  6133 ;; Parameters:    Size  Location     Type
  6134 ;;		None
  6135 ;; Auto vars:     Size  Location     Type
  6136 ;;		None
  6137 ;; Return value:  Size  Location     Type
  6138 ;;                  1    wreg      void 
  6139 ;; Registers used:
  6140 ;;		wreg, status,2, status,0, pclath, cstack
  6141 ;; Tracked objects:
  6142 ;;		On entry : 1F/4
  6143 ;;		On exit  : 1F/4
  6144 ;;		Unchanged: 0/0
  6145 ;; Data sizes:     COMMON   BANK0   BANK1   BANK2   BANK3   BANK4   BANK5   BANK6   BANK7   BANK8   BANK9  BANK10  BANK1
      +1  BANK12
  6146 ;;      Params:         0       0       0       0       0       0       0       0       0       0       0       0       
      +0       0
  6147 ;;      Locals:         0       0       0       0       0       0       0       0       0       0       0       0       
      +0       0
  6148 ;;      Temps:          0       0       0       0       0       0       0       0       0       0       0       0       
      +0       0
  6149 ;;      Totals:         0       0       0       0       0       0       0       0       0       0       0       0       
      +0       0
  6150 ;;Total ram usage:        0 bytes
  6151 ;; Hardware stack levels used:    1
  6152 ;; Hardware stack levels required when called:   11
  6153 ;; This function calls:
  6154 ;;		_i2c_wait
  6155 ;; This function is called by:
  6156 ;;		_i2c_reg_read
  6157 ;; This function uses a non-reentrant model
  6158 ;;
  6159                           
  6160                           
  6161                           ;psect for function _i2c_repeat_start
  6162  1000                     _i2c_repeat_start:	
  6163                           
  6164                           ;i2c-lib.c: 75: SSP1CON2bits.RSEN = 1;
  6165                           
  6166                           ;incstack = 0
  6167                           ; Regs used in _i2c_repeat_start: [wreg+status,2+status,0+pclath+cstack]
  6168  1000  1496               	bsf	22,1	;volatile
  6169                           
  6170                           ;i2c-lib.c: 76: i2c_wait();
  6171  1001  319D  259B         	fcall	_i2c_wait
  6172  1003  0008               	return
  6173  1004                     __end_of_i2c_repeat_start:	
  6174                           
  6175                           	psect	text22
  6176  1F1E                     __ptext22:	
  6177 ;; *************** function _i2c_read_byte *****************
  6178 ;; Defined at:
  6179 ;;		line 100 in file "../../lib/i2c-lib.c"
  6180 ;; Parameters:    Size  Location     Type
  6181 ;;  ack             1    wreg     const unsigned char 
  6182 ;; Auto vars:     Size  Location     Type
  6183 ;;  ack             1   14[BANK1 ] const unsigned char 
  6184 ;;  data            1   15[BANK1 ] unsigned char 
  6185 ;; Return value:  Size  Location     Type
  6186 ;;                  1    wreg      unsigned char 
  6187 ;; Registers used:
  6188 ;;		wreg, status,2, status,0, pclath, cstack
  6189 ;; Tracked objects:
  6190 ;;		On entry : 18/4
  6191 ;;		On exit  : 1F/1
  6192 ;;		Unchanged: 0/0
  6193 ;; Data sizes:     COMMON   BANK0   BANK1   BANK2   BANK3   BANK4   BANK5   BANK6   BANK7   BANK8   BANK9  BANK10  BANK1
      +1  BANK12
  6194 ;;      Params:         0       0       0       0       0       0       0       0       0       0       0       0       
      +0       0
  6195 ;;      Locals:         0       0       2       0       0       0       0       0       0       0       0       0       
      +0       0
  6196 ;;      Temps:          0       0       1       0       0       0       0       0       0       0       0       0       
      +0       0
  6197 ;;      Totals:         0       0       3       0       0       0       0       0       0       0       0       0       
      +0       0
  6198 ;;Total ram usage:        3 bytes
  6199 ;; Hardware stack levels used:    1
  6200 ;; Hardware stack levels required when called:   11
  6201 ;; This function calls:
  6202 ;;		_i2c_wait
  6203 ;; This function is called by:
  6204 ;;		_i2c_reg_read
  6205 ;; This function uses a non-reentrant model
  6206 ;;
  6207                           
  6208                           
  6209                           ;psect for function _i2c_read_byte
  6210  1F1E                     _i2c_read_byte:	
  6211                           
  6212                           ;incstack = 0
  6213                           ; Regs used in _i2c_read_byte: [wreg+status,2+status,0+pclath+cstack]
  6214                           ;i2c_read_byte@ack stored from wreg
  6215  1F1E  0021               	movlb	1	; select bank1
  6216  1F1F  00AE               	movwf	i2c_read_byte@ack^(0+128)
  6217                           
  6218                           ;i2c-lib.c: 101: SSP1CON2bits.RCEN = 1;
  6219  1F20  0024               	movlb	4	; select bank4
  6220  1F21  1596               	bsf	22,3	;volatile
  6221                           
  6222                           ;i2c-lib.c: 102: i2c_wait();
  6223  1F22  319D  259B  319F   	fcall	_i2c_wait
  6224                           
  6225                           ;i2c-lib.c: 103: unsigned char data = SSP1BUF;
  6226  1F25  0811               	movf	17,w	;volatile
  6227  1F26  0021               	movlb	1	; select bank1
  6228  1F27  00AD               	movwf	??_i2c_read_byte^(0+128)
  6229  1F28  082D               	movf	??_i2c_read_byte^(0+128),w
  6230  1F29  00AF               	movwf	i2c_read_byte@data^(0+128)
  6231                           
  6232                           ;i2c-lib.c: 104: i2c_wait();
  6233  1F2A  319D  259B  319F   	fcall	_i2c_wait
  6234                           
  6235                           ;i2c-lib.c: 106: if(ack) SSP1CON2bits.ACKDT = 0;
  6236  1F2D  0021               	movlb	1	; select bank1
  6237  1F2E  082E               	movf	i2c_read_byte@ack^(0+128),w
  6238  1F2F  1903               	btfsc	3,2
  6239  1F30  2F34               	goto	l43
  6240  1F31  0024               	movlb	4	; select bank4
  6241  1F32  1296               	bcf	22,5	;volatile
  6242  1F33  2F36               	goto	l44
  6243  1F34                     l43:	
  6244                           
  6245                           ;i2c-lib.c: 107: else SSP1CON2bits.ACKDT = 1;
  6246  1F34  0024               	movlb	4	; select bank4
  6247  1F35  1696               	bsf	22,5	;volatile
  6248  1F36                     l44:	
  6249                           
  6250                           ;i2c-lib.c: 109: SSP1CON2bits.ACKEN = 1;
  6251  1F36  1616               	bsf	22,4	;volatile
  6252                           
  6253                           ;i2c-lib.c: 111: i2c_wait();
  6254  1F37  319D  259B         	fcall	_i2c_wait
  6255                           
  6256                           ;i2c-lib.c: 112: return data;
  6257  1F39  0021               	movlb	1	; select bank1
  6258  1F3A  082F               	movf	i2c_read_byte@data^(0+128),w
  6259  1F3B  0008               	return
  6260  1F3C                     __end_of_i2c_read_byte:	
  6261                           
  6262                           	psect	text23
  6263  1608                     __ptext23:	
  6264 ;; *************** function ___ftmul *****************
  6265 ;; Defined at:
  6266 ;;		line 62 in file "C:\Program Files (x86)\Microchip\xc8\v2.10\pic\sources\c90\common\ftmul.c"
  6267 ;; Parameters:    Size  Location     Type
  6268 ;;  f1              3   15[BANK3 ] float 
  6269 ;;  f2              3   18[BANK3 ] float 
  6270 ;; Auto vars:     Size  Location     Type
  6271 ;;  f3_as_produc    3   26[BANK3 ] unsigned um
  6272 ;;  sign            1   30[BANK3 ] unsigned char 
  6273 ;;  cntr            1   29[BANK3 ] unsigned char 
  6274 ;;  exp             1   25[BANK3 ] unsigned char 
  6275 ;; Return value:  Size  Location     Type
  6276 ;;                  3   15[BANK3 ] float 
  6277 ;; Registers used:
  6278 ;;		wreg, status,2, status,0, pclath, cstack
  6279 ;; Tracked objects:
  6280 ;;		On entry : 1F/3
  6281 ;;		On exit  : 1F/3
  6282 ;;		Unchanged: 0/0
  6283 ;; Data sizes:     COMMON   BANK0   BANK1   BANK2   BANK3   BANK4   BANK5   BANK6   BANK7   BANK8   BANK9  BANK10  BANK1
      +1  BANK12
  6284 ;;      Params:         0       0       0       0       6       0       0       0       0       0       0       0       
      +0       0
  6285 ;;      Locals:         0       0       0       0       6       0       0       0       0       0       0       0       
      +0       0
  6286 ;;      Temps:          0       0       0       0       4       0       0       0       0       0       0       0       
      +0       0
  6287 ;;      Totals:         0       0       0       0      16       0       0       0       0       0       0       0       
      +0       0
  6288 ;;Total ram usage:       16 bytes
  6289 ;; Hardware stack levels used:    1
  6290 ;; Hardware stack levels required when called:   11
  6291 ;; This function calls:
  6292 ;;		___ftpack
  6293 ;; This function is called by:
  6294 ;;		_get_voltage
  6295 ;;		_get_current
  6296 ;; This function uses a non-reentrant model
  6297 ;;
  6298                           
  6299                           
  6300                           ;psect for function ___ftmul
  6301  1608                     ___ftmul:	
  6302                           
  6303                           ;incstack = 0
  6304                           ; Regs used in ___ftmul: [wreg+status,2+status,0+pclath+cstack]
  6305  1608  084F               	movf	___ftmul@f1^(0+384),w
  6306  1609  00D5               	movwf	??___ftmul^(0+384)
  6307  160A  0850               	movf	(___ftmul@f1+1)^(0+384),w
  6308  160B  00D6               	movwf	(??___ftmul^(0+384)+1)
  6309  160C  0851               	movf	(___ftmul@f1+2)^(0+384),w
  6310  160D  00D7               	movwf	(??___ftmul^(0+384)+2)
  6311  160E  1003               	clrc
  6312  160F  0D56               	rlf	(??___ftmul^(0+384)+1),w
  6313  1610  0D57               	rlf	(??___ftmul^(0+384)+2),w
  6314  1611  00D8               	movwf	(??___ftmul+3)^(0+384)
  6315  1612  0858               	movf	(??___ftmul+3)^(0+384),w
  6316  1613  00D9               	movwf	___ftmul@exp^(0+384)
  6317  1614  0859               	movf	___ftmul@exp^(0+384),w
  6318  1615  1D03               	btfss	3,2
  6319  1616  2E1E               	goto	l4945
  6320  1617  3000               	movlw	0
  6321  1618  00CF               	movwf	?___ftmul^(0+384)
  6322  1619  3000               	movlw	0
  6323  161A  00D0               	movwf	(?___ftmul+1)^(0+384)
  6324  161B  3000               	movlw	0
  6325  161C  00D1               	movwf	(?___ftmul+2)^(0+384)
  6326  161D  0008               	return
  6327  161E                     l4945:	
  6328  161E  0852               	movf	___ftmul@f2^(0+384),w
  6329  161F  00D5               	movwf	??___ftmul^(0+384)
  6330  1620  0853               	movf	(___ftmul@f2+1)^(0+384),w
  6331  1621  00D6               	movwf	(??___ftmul^(0+384)+1)
  6332  1622  0854               	movf	(___ftmul@f2+2)^(0+384),w
  6333  1623  00D7               	movwf	(??___ftmul^(0+384)+2)
  6334  1624  1003               	clrc
  6335  1625  0D56               	rlf	(??___ftmul^(0+384)+1),w
  6336  1626  0D57               	rlf	(??___ftmul^(0+384)+2),w
  6337  1627  00D8               	movwf	(??___ftmul+3)^(0+384)
  6338  1628  0858               	movf	(??___ftmul+3)^(0+384),w
  6339  1629  00DE               	movwf	___ftmul@sign^(0+384)
  6340  162A  085E               	movf	___ftmul@sign^(0+384),w
  6341  162B  1D03               	btfss	3,2
  6342  162C  2E34               	goto	l4951
  6343  162D  3000               	movlw	0
  6344  162E  00CF               	movwf	?___ftmul^(0+384)
  6345  162F  3000               	movlw	0
  6346  1630  00D0               	movwf	(?___ftmul+1)^(0+384)
  6347  1631  3000               	movlw	0
  6348  1632  00D1               	movwf	(?___ftmul+2)^(0+384)
  6349  1633  0008               	return
  6350  1634                     l4951:	
  6351  1634  085E               	movf	___ftmul@sign^(0+384),w
  6352  1635  3E7B               	addlw	123
  6353  1636  00D5               	movwf	??___ftmul^(0+384)
  6354  1637  0855               	movf	??___ftmul^(0+384),w
  6355  1638  07D9               	addwf	___ftmul@exp^(0+384),f
  6356  1639  0851               	movf	(___ftmul@f1^(0+384)+2),w
  6357  163A  00D5               	movwf	??___ftmul^(0+384)
  6358  163B  0855               	movf	??___ftmul^(0+384),w
  6359  163C  00DE               	movwf	___ftmul@sign^(0+384)
  6360  163D  0854               	movf	(___ftmul@f2^(0+384)+2),w
  6361  163E  00D5               	movwf	??___ftmul^(0+384)
  6362  163F  0855               	movf	??___ftmul^(0+384),w
  6363  1640  06DE               	xorwf	___ftmul@sign^(0+384),f
  6364  1641  3080               	movlw	128
  6365  1642  00D5               	movwf	??___ftmul^(0+384)
  6366  1643  0855               	movf	??___ftmul^(0+384),w
  6367  1644  05DE               	andwf	___ftmul@sign^(0+384),f
  6368  1645  17D0               	bsf	(___ftmul@f1^(0+384)+1),7
  6369  1646  17D3               	bsf	(___ftmul@f2^(0+384)+1),7
  6370  1647  30FF               	movlw	255
  6371  1648  05D2               	andwf	___ftmul@f2^(0+384),f
  6372  1649  30FF               	movlw	255
  6373  164A  05D3               	andwf	(___ftmul@f2+1)^(0+384),f
  6374  164B  3000               	movlw	0
  6375  164C  05D4               	andwf	(___ftmul@f2+2)^(0+384),f
  6376  164D  3000               	movlw	0
  6377  164E  00DA               	movwf	___ftmul@f3_as_product^(0+384)
  6378  164F  3000               	movlw	0
  6379  1650  00DB               	movwf	(___ftmul@f3_as_product+1)^(0+384)
  6380  1651  3000               	movlw	0
  6381  1652  00DC               	movwf	(___ftmul@f3_as_product+2)^(0+384)
  6382  1653  3007               	movlw	7
  6383  1654  00D5               	movwf	??___ftmul^(0+384)
  6384  1655  0855               	movf	??___ftmul^(0+384),w
  6385  1656  00DD               	movwf	___ftmul@cntr^(0+384)
  6386  1657                     l4969:	
  6387  1657  1C4F               	btfss	___ftmul@f1^(0+384),0
  6388  1658  2E5F               	goto	l4973
  6389  1659  0852               	movf	___ftmul@f2^(0+384),w
  6390  165A  07DA               	addwf	___ftmul@f3_as_product^(0+384),f
  6391  165B  0853               	movf	(___ftmul@f2+1)^(0+384),w
  6392  165C  3DDB               	addwfc	(___ftmul@f3_as_product+1)^(0+384),f
  6393  165D  0854               	movf	(___ftmul@f2+2)^(0+384),w
  6394  165E  3DDC               	addwfc	(___ftmul@f3_as_product+2)^(0+384),f
  6395  165F                     l4973:	
  6396  165F  3001               	movlw	1
  6397  1660                     u5425:	
  6398  1660  36D1               	lsrf	(___ftmul@f1+2)^(0+384),f
  6399  1661  0CD0               	rrf	(___ftmul@f1+1)^(0+384),f
  6400  1662  0CCF               	rrf	___ftmul@f1^(0+384),f
  6401  1663  0B89               	decfsz	9,f
  6402  1664  2E60               	goto	u5425
  6403  1665  3001               	movlw	1
  6404  1666                     u5435:	
  6405  1666  35D2               	lslf	___ftmul@f2^(0+384),f
  6406  1667  0DD3               	rlf	(___ftmul@f2+1)^(0+384),f
  6407  1668  0DD4               	rlf	(___ftmul@f2+2)^(0+384),f
  6408  1669  0B89               	decfsz	9,f
  6409  166A  2E66               	goto	u5435
  6410  166B  3001               	movlw	1
  6411  166C  02DD               	subwf	___ftmul@cntr^(0+384),f
  6412  166D  1D03               	btfss	3,2
  6413  166E  2E57               	goto	l4969
  6414  166F  3009               	movlw	9
  6415  1670  00D5               	movwf	??___ftmul^(0+384)
  6416  1671  0855               	movf	??___ftmul^(0+384),w
  6417  1672  00DD               	movwf	___ftmul@cntr^(0+384)
  6418  1673                     l4981:	
  6419  1673  1C4F               	btfss	___ftmul@f1^(0+384),0
  6420  1674  2E7B               	goto	l4985
  6421  1675  0852               	movf	___ftmul@f2^(0+384),w
  6422  1676  07DA               	addwf	___ftmul@f3_as_product^(0+384),f
  6423  1677  0853               	movf	(___ftmul@f2+1)^(0+384),w
  6424  1678  3DDB               	addwfc	(___ftmul@f3_as_product+1)^(0+384),f
  6425  1679  0854               	movf	(___ftmul@f2+2)^(0+384),w
  6426  167A  3DDC               	addwfc	(___ftmul@f3_as_product+2)^(0+384),f
  6427  167B                     l4985:	
  6428  167B  3001               	movlw	1
  6429  167C                     u5465:	
  6430  167C  36D1               	lsrf	(___ftmul@f1+2)^(0+384),f
  6431  167D  0CD0               	rrf	(___ftmul@f1+1)^(0+384),f
  6432  167E  0CCF               	rrf	___ftmul@f1^(0+384),f
  6433  167F  0B89               	decfsz	9,f
  6434  1680  2E7C               	goto	u5465
  6435  1681  3001               	movlw	1
  6436  1682                     u5475:	
  6437  1682  36DC               	lsrf	(___ftmul@f3_as_product+2)^(0+384),f
  6438  1683  0CDB               	rrf	(___ftmul@f3_as_product+1)^(0+384),f
  6439  1684  0CDA               	rrf	___ftmul@f3_as_product^(0+384),f
  6440  1685  0B89               	decfsz	9,f
  6441  1686  2E82               	goto	u5475
  6442  1687  3001               	movlw	1
  6443  1688  02DD               	subwf	___ftmul@cntr^(0+384),f
  6444  1689  1D03               	btfss	3,2
  6445  168A  2E73               	goto	l4981
  6446  168B  085A               	movf	___ftmul@f3_as_product^(0+384),w
  6447  168C  0021               	movlb	1	; select bank1
  6448  168D  00AD               	movwf	___ftpack@arg^(0+128)
  6449  168E  0023               	movlb	3	; select bank3
  6450  168F  085B               	movf	(___ftmul@f3_as_product+1)^(0+384),w
  6451  1690  0021               	movlb	1	; select bank1
  6452  1691  00AE               	movwf	(___ftpack@arg+1)^(0+128)
  6453  1692  0023               	movlb	3	; select bank3
  6454  1693  085C               	movf	(___ftmul@f3_as_product+2)^(0+384),w
  6455  1694  0021               	movlb	1	; select bank1
  6456  1695  00AF               	movwf	(___ftpack@arg+2)^(0+128)
  6457  1696  0023               	movlb	3	; select bank3
  6458  1697  0859               	movf	___ftmul@exp^(0+384),w
  6459  1698  00D5               	movwf	??___ftmul^(0+384)
  6460  1699  0855               	movf	??___ftmul^(0+384),w
  6461  169A  0021               	movlb	1	; select bank1
  6462  169B  00B0               	movwf	___ftpack@exp^(0+128)
  6463  169C  0023               	movlb	3	; select bank3
  6464  169D  085E               	movf	___ftmul@sign^(0+384),w
  6465  169E  00D6               	movwf	(??___ftmul+1)^(0+384)
  6466  169F  0856               	movf	(??___ftmul+1)^(0+384),w
  6467  16A0  0021               	movlb	1	; select bank1
  6468  16A1  00B1               	movwf	___ftpack@sign^(0+128)
  6469  16A2  3193  236A         	fcall	___ftpack
  6470  16A4  082D               	movf	?___ftpack^(0+128),w
  6471  16A5  0023               	movlb	3	; select bank3
  6472  16A6  00CF               	movwf	?___ftmul^(0+384)
  6473  16A7  0021               	movlb	1	; select bank1
  6474  16A8  082E               	movf	(?___ftpack+1)^(0+128),w
  6475  16A9  0023               	movlb	3	; select bank3
  6476  16AA  00D0               	movwf	(?___ftmul+1)^(0+384)
  6477  16AB  0021               	movlb	1	; select bank1
  6478  16AC  082F               	movf	(?___ftpack+2)^(0+128),w
  6479  16AD  0023               	movlb	3	; select bank3
  6480  16AE  00D1               	movwf	(?___ftmul+2)^(0+384)
  6481  16AF  0008               	return
  6482  16B0                     __end_of___ftmul:	
  6483                           
  6484                           	psect	text24
  6485  0A4E                     __ptext24:	
  6486 ;; *************** function ___ftadd *****************
  6487 ;; Defined at:
  6488 ;;		line 86 in file "C:\Program Files (x86)\Microchip\xc8\v2.10\pic\sources\c90\common\ftadd.c"
  6489 ;; Parameters:    Size  Location     Type
  6490 ;;  f1              3   31[BANK3 ] float 
  6491 ;;  f2              3   34[BANK3 ] float 
  6492 ;; Auto vars:     Size  Location     Type
  6493 ;;  exp1            1    2[BANK4 ] unsigned char 
  6494 ;;  exp2            1    1[BANK4 ] unsigned char 
  6495 ;;  sign            1    0[BANK4 ] unsigned char 
  6496 ;; Return value:  Size  Location     Type
  6497 ;;                  3   31[BANK3 ] float 
  6498 ;; Registers used:
  6499 ;;		wreg, status,2, status,0, pclath, cstack
  6500 ;; Tracked objects:
  6501 ;;		On entry : 1F/3
  6502 ;;		On exit  : 18/0
  6503 ;;		Unchanged: 0/0
  6504 ;; Data sizes:     COMMON   BANK0   BANK1   BANK2   BANK3   BANK4   BANK5   BANK6   BANK7   BANK8   BANK9  BANK10  BANK1
      +1  BANK12
  6505 ;;      Params:         0       0       0       0       6       0       0       0       0       0       0       0       
      +0       0
  6506 ;;      Locals:         0       0       0       0       0       3       0       0       0       0       0       0       
      +0       0
  6507 ;;      Temps:          0       0       0       0       4       0       0       0       0       0       0       0       
      +0       0
  6508 ;;      Totals:         0       0       0       0      10       3       0       0       0       0       0       0       
      +0       0
  6509 ;;Total ram usage:       13 bytes
  6510 ;; Hardware stack levels used:    1
  6511 ;; Hardware stack levels required when called:   11
  6512 ;; This function calls:
  6513 ;;		___ftpack
  6514 ;; This function is called by:
  6515 ;;		_get_voltage
  6516 ;;		_get_current
  6517 ;; This function uses a non-reentrant model
  6518 ;;
  6519                           
  6520                           
  6521                           ;psect for function ___ftadd
  6522  0A4E                     ___ftadd:	
  6523                           
  6524                           ;incstack = 0
  6525                           ; Regs used in ___ftadd: [wreg+status,2+status,0+pclath+cstack]
  6526  0A4E  085F               	movf	___ftadd@f1^(0+384),w
  6527  0A4F  00E5               	movwf	??___ftadd^(0+384)
  6528  0A50  0860               	movf	(___ftadd@f1+1)^(0+384),w
  6529  0A51  00E6               	movwf	(??___ftadd^(0+384)+1)
  6530  0A52  0861               	movf	(___ftadd@f1+2)^(0+384),w
  6531  0A53  00E7               	movwf	(??___ftadd^(0+384)+2)
  6532  0A54  1003               	clrc
  6533  0A55  0D66               	rlf	(??___ftadd^(0+384)+1),w
  6534  0A56  0D67               	rlf	(??___ftadd^(0+384)+2),w
  6535  0A57  00E8               	movwf	(??___ftadd+3)^(0+384)
  6536  0A58  0868               	movf	(??___ftadd+3)^(0+384),w
  6537  0A59  0024               	movlb	4	; select bank4
  6538  0A5A  00A2               	movwf	___ftadd@exp1^(0+512)
  6539  0A5B  0023               	movlb	3	; select bank3
  6540  0A5C  0862               	movf	___ftadd@f2^(0+384),w
  6541  0A5D  00E5               	movwf	??___ftadd^(0+384)
  6542  0A5E  0863               	movf	(___ftadd@f2+1)^(0+384),w
  6543  0A5F  00E6               	movwf	(??___ftadd^(0+384)+1)
  6544  0A60  0864               	movf	(___ftadd@f2+2)^(0+384),w
  6545  0A61  00E7               	movwf	(??___ftadd^(0+384)+2)
  6546  0A62  1003               	clrc
  6547  0A63  0D66               	rlf	(??___ftadd^(0+384)+1),w
  6548  0A64  0D67               	rlf	(??___ftadd^(0+384)+2),w
  6549  0A65  00E8               	movwf	(??___ftadd+3)^(0+384)
  6550  0A66  0868               	movf	(??___ftadd+3)^(0+384),w
  6551  0A67  0024               	movlb	4	; select bank4
  6552  0A68  00A1               	movwf	___ftadd@exp2^(0+512)
  6553  0A69  0822               	movf	___ftadd@exp1^(0+512),w
  6554  0A6A  1903               	btfsc	3,2
  6555  0A6B  2A7B               	goto	l4875
  6556  0A6C  0821               	movf	___ftadd@exp2^(0+512),w
  6557  0A6D  0222               	subwf	___ftadd@exp1^(0+512),w
  6558  0A6E  1803               	skipnc
  6559  0A6F  2A83               	goto	l4879
  6560  0A70  0821               	movf	___ftadd@exp2^(0+512),w
  6561  0A71  0023               	movlb	3	; select bank3
  6562  0A72  00E5               	movwf	??___ftadd^(0+384)
  6563  0A73  0024               	movlb	4	; select bank4
  6564  0A74  0822               	movf	___ftadd@exp1^(0+512),w
  6565  0A75  0023               	movlb	3	; select bank3
  6566  0A76  02E5               	subwf	??___ftadd^(0+384),f
  6567  0A77  3019               	movlw	25
  6568  0A78  0265               	subwf	??___ftadd^(0+384),w
  6569  0A79  1C03               	skipc
  6570  0A7A  2A83               	goto	l4879
  6571  0A7B                     l4875:	
  6572  0A7B  0023               	movlb	3	; select bank3
  6573  0A7C  0862               	movf	___ftadd@f2^(0+384),w
  6574  0A7D  00DF               	movwf	?___ftadd^(0+384)
  6575  0A7E  0863               	movf	(___ftadd@f2+1)^(0+384),w
  6576  0A7F  00E0               	movwf	(?___ftadd+1)^(0+384)
  6577  0A80  0864               	movf	(___ftadd@f2+2)^(0+384),w
  6578  0A81  00E1               	movwf	(?___ftadd+2)^(0+384)
  6579  0A82  0008               	return
  6580  0A83                     l4879:	
  6581  0A83  0024               	movlb	4	; select bank4
  6582  0A84  0821               	movf	___ftadd@exp2^(0+512),w
  6583  0A85  1903               	btfsc	3,2
  6584  0A86  0008               	return
  6585  0A87  0822               	movf	___ftadd@exp1^(0+512),w
  6586  0A88  0221               	subwf	___ftadd@exp2^(0+512),w
  6587  0A89  1803               	skipnc
  6588  0A8A  2A96               	goto	l4885
  6589  0A8B  0822               	movf	___ftadd@exp1^(0+512),w
  6590  0A8C  0023               	movlb	3	; select bank3
  6591  0A8D  00E5               	movwf	??___ftadd^(0+384)
  6592  0A8E  0024               	movlb	4	; select bank4
  6593  0A8F  0821               	movf	___ftadd@exp2^(0+512),w
  6594  0A90  0023               	movlb	3	; select bank3
  6595  0A91  02E5               	subwf	??___ftadd^(0+384),f
  6596  0A92  3019               	movlw	25
  6597  0A93  0265               	subwf	??___ftadd^(0+384),w
  6598  0A94  1803               	btfsc	3,0
  6599  0A95  0008               	return
  6600  0A96                     l4885:	
  6601  0A96  3006               	movlw	6
  6602  0A97  0023               	movlb	3	; select bank3
  6603  0A98  00E5               	movwf	??___ftadd^(0+384)
  6604  0A99  0865               	movf	??___ftadd^(0+384),w
  6605  0A9A  0024               	movlb	4	; select bank4
  6606  0A9B  00A0               	movwf	___ftadd@sign^(0+512)
  6607  0A9C  0023               	movlb	3	; select bank3
  6608  0A9D  1FE1               	btfss	(___ftadd@f1+2)^(0+384),7
  6609  0A9E  2AA1               	goto	l1083
  6610  0A9F  0024               	movlb	4	; select bank4
  6611  0AA0  17A0               	bsf	___ftadd@sign^(0+512),7
  6612  0AA1                     l1083:	
  6613  0AA1  0023               	movlb	3	; select bank3
  6614  0AA2  1FE4               	btfss	(___ftadd@f2+2)^(0+384),7
  6615  0AA3  2AA6               	goto	l1084
  6616  0AA4  0024               	movlb	4	; select bank4
  6617  0AA5  1720               	bsf	___ftadd@sign^(0+512),6
  6618  0AA6                     l1084:	
  6619  0AA6  0023               	movlb	3	; select bank3
  6620  0AA7  17E0               	bsf	(___ftadd@f1^(0+384)+1),7
  6621  0AA8  30FF               	movlw	255
  6622  0AA9  05DF               	andwf	___ftadd@f1^(0+384),f
  6623  0AAA  30FF               	movlw	255
  6624  0AAB  05E0               	andwf	(___ftadd@f1+1)^(0+384),f
  6625  0AAC  3000               	movlw	0
  6626  0AAD  05E1               	andwf	(___ftadd@f1+2)^(0+384),f
  6627  0AAE  17E3               	bsf	(___ftadd@f2^(0+384)+1),7
  6628  0AAF  30FF               	movlw	255
  6629  0AB0  05E2               	andwf	___ftadd@f2^(0+384),f
  6630  0AB1  30FF               	movlw	255
  6631  0AB2  05E3               	andwf	(___ftadd@f2+1)^(0+384),f
  6632  0AB3  3000               	movlw	0
  6633  0AB4  05E4               	andwf	(___ftadd@f2+2)^(0+384),f
  6634  0AB5  0024               	movlb	4	; select bank4
  6635  0AB6  0821               	movf	___ftadd@exp2^(0+512),w
  6636  0AB7  0222               	subwf	___ftadd@exp1^(0+512),w
  6637  0AB8  1803               	skipnc
  6638  0AB9  2AE0               	goto	l4907
  6639  0ABA                     l4897:	
  6640  0ABA  3001               	movlw	1
  6641  0ABB                     u5255:	
  6642  0ABB  0023               	movlb	3	; select bank3
  6643  0ABC  35E2               	lslf	___ftadd@f2^(0+384),f
  6644  0ABD  0DE3               	rlf	(___ftadd@f2+1)^(0+384),f
  6645  0ABE  0DE4               	rlf	(___ftadd@f2+2)^(0+384),f
  6646  0ABF  0B89               	decfsz	9,f
  6647  0AC0  2ABB               	goto	u5255
  6648  0AC1  3001               	movlw	1
  6649  0AC2  0024               	movlb	4	; select bank4
  6650  0AC3  02A1               	subwf	___ftadd@exp2^(0+512),f
  6651  0AC4  0821               	movf	___ftadd@exp2^(0+512),w
  6652  0AC5  0622               	xorwf	___ftadd@exp1^(0+512),w
  6653  0AC6  1903               	skipnz
  6654  0AC7  2ADB               	goto	l4905
  6655  0AC8  3001               	movlw	1
  6656  0AC9  02A0               	subwf	___ftadd@sign^(0+512),f
  6657  0ACA  0820               	movf	___ftadd@sign^(0+512),w
  6658  0ACB  3907               	andlw	7
  6659  0ACC  1903               	btfsc	3,2
  6660  0ACD  2ADB               	goto	l4905
  6661  0ACE  2ABA               	goto	l4897
  6662  0ACF                     l4903:	
  6663  0ACF  3001               	movlw	1
  6664  0AD0                     u5285:	
  6665  0AD0  0023               	movlb	3	; select bank3
  6666  0AD1  36E1               	lsrf	(___ftadd@f1+2)^(0+384),f
  6667  0AD2  0CE0               	rrf	(___ftadd@f1+1)^(0+384),f
  6668  0AD3  0CDF               	rrf	___ftadd@f1^(0+384),f
  6669  0AD4  0B89               	decfsz	9,f
  6670  0AD5  2AD0               	goto	u5285
  6671  0AD6  3001               	movlw	1
  6672  0AD7  00E5               	movwf	??___ftadd^(0+384)
  6673  0AD8  0865               	movf	??___ftadd^(0+384),w
  6674  0AD9  0024               	movlb	4	; select bank4
  6675  0ADA  07A2               	addwf	___ftadd@exp1^(0+512),f
  6676  0ADB                     l4905:	
  6677  0ADB  0822               	movf	___ftadd@exp1^(0+512),w
  6678  0ADC  0621               	xorwf	___ftadd@exp2^(0+512),w
  6679  0ADD  1903               	btfsc	3,2
  6680  0ADE  2B09               	goto	l1093
  6681  0ADF  2ACF               	goto	l4903
  6682  0AE0                     l4907:	
  6683  0AE0  0822               	movf	___ftadd@exp1^(0+512),w
  6684  0AE1  0221               	subwf	___ftadd@exp2^(0+512),w
  6685  0AE2  1803               	skipnc
  6686  0AE3  2B09               	goto	l1093
  6687  0AE4                     l4909:	
  6688  0AE4  3001               	movlw	1
  6689  0AE5                     u5315:	
  6690  0AE5  0023               	movlb	3	; select bank3
  6691  0AE6  35DF               	lslf	___ftadd@f1^(0+384),f
  6692  0AE7  0DE0               	rlf	(___ftadd@f1+1)^(0+384),f
  6693  0AE8  0DE1               	rlf	(___ftadd@f1+2)^(0+384),f
  6694  0AE9  0B89               	decfsz	9,f
  6695  0AEA  2AE5               	goto	u5315
  6696  0AEB  3001               	movlw	1
  6697  0AEC  0024               	movlb	4	; select bank4
  6698  0AED  02A2               	subwf	___ftadd@exp1^(0+512),f
  6699  0AEE  0821               	movf	___ftadd@exp2^(0+512),w
  6700  0AEF  0622               	xorwf	___ftadd@exp1^(0+512),w
  6701  0AF0  1903               	skipnz
  6702  0AF1  2B05               	goto	l4917
  6703  0AF2  3001               	movlw	1
  6704  0AF3  02A0               	subwf	___ftadd@sign^(0+512),f
  6705  0AF4  0820               	movf	___ftadd@sign^(0+512),w
  6706  0AF5  3907               	andlw	7
  6707  0AF6  1903               	btfsc	3,2
  6708  0AF7  2B05               	goto	l4917
  6709  0AF8  2AE4               	goto	l4909
  6710  0AF9                     l4915:	
  6711  0AF9  3001               	movlw	1
  6712  0AFA                     u5345:	
  6713  0AFA  0023               	movlb	3	; select bank3
  6714  0AFB  36E4               	lsrf	(___ftadd@f2+2)^(0+384),f
  6715  0AFC  0CE3               	rrf	(___ftadd@f2+1)^(0+384),f
  6716  0AFD  0CE2               	rrf	___ftadd@f2^(0+384),f
  6717  0AFE  0B89               	decfsz	9,f
  6718  0AFF  2AFA               	goto	u5345
  6719  0B00  3001               	movlw	1
  6720  0B01  00E5               	movwf	??___ftadd^(0+384)
  6721  0B02  0865               	movf	??___ftadd^(0+384),w
  6722  0B03  0024               	movlb	4	; select bank4
  6723  0B04  07A1               	addwf	___ftadd@exp2^(0+512),f
  6724  0B05                     l4917:	
  6725  0B05  0822               	movf	___ftadd@exp1^(0+512),w
  6726  0B06  0621               	xorwf	___ftadd@exp2^(0+512),w
  6727  0B07  1D03               	skipz
  6728  0B08  2AF9               	goto	l4915
  6729  0B09                     l1093:	
  6730  0B09  1FA0               	btfss	___ftadd@sign^(0+512),7
  6731  0B0A  2B1C               	goto	l4921
  6732  0B0B  30FF               	movlw	255
  6733  0B0C  0023               	movlb	3	; select bank3
  6734  0B0D  06DF               	xorwf	___ftadd@f1^(0+384),f
  6735  0B0E  30FF               	movlw	255
  6736  0B0F  06E0               	xorwf	(___ftadd@f1+1)^(0+384),f
  6737  0B10  30FF               	movlw	255
  6738  0B11  06E1               	xorwf	(___ftadd@f1+2)^(0+384),f
  6739  0B12  3001               	movlw	1
  6740  0B13  07DF               	addwf	___ftadd@f1^(0+384),f
  6741  0B14  3000               	movlw	0
  6742  0B15  1803               	skipnc
  6743  0B16  3001               	movlw	1
  6744  0B17  07E0               	addwf	(___ftadd@f1+1)^(0+384),f
  6745  0B18  3000               	movlw	0
  6746  0B19  1803               	skipnc
  6747  0B1A  3001               	movlw	1
  6748  0B1B  07E1               	addwf	(___ftadd@f1+2)^(0+384),f
  6749  0B1C                     l4921:	
  6750  0B1C  0024               	movlb	4	; select bank4
  6751  0B1D  1F20               	btfss	___ftadd@sign^(0+512),6
  6752  0B1E  2B30               	goto	l4925
  6753  0B1F  30FF               	movlw	255
  6754  0B20  0023               	movlb	3	; select bank3
  6755  0B21  06E2               	xorwf	___ftadd@f2^(0+384),f
  6756  0B22  30FF               	movlw	255
  6757  0B23  06E3               	xorwf	(___ftadd@f2+1)^(0+384),f
  6758  0B24  30FF               	movlw	255
  6759  0B25  06E4               	xorwf	(___ftadd@f2+2)^(0+384),f
  6760  0B26  3001               	movlw	1
  6761  0B27  07E2               	addwf	___ftadd@f2^(0+384),f
  6762  0B28  3000               	movlw	0
  6763  0B29  1803               	skipnc
  6764  0B2A  3001               	movlw	1
  6765  0B2B  07E3               	addwf	(___ftadd@f2+1)^(0+384),f
  6766  0B2C  3000               	movlw	0
  6767  0B2D  1803               	skipnc
  6768  0B2E  3001               	movlw	1
  6769  0B2F  07E4               	addwf	(___ftadd@f2+2)^(0+384),f
  6770  0B30                     l4925:	
  6771  0B30  0024               	movlb	4	; select bank4
  6772  0B31  01A0               	clrf	___ftadd@sign^(0+512)
  6773  0B32  0023               	movlb	3	; select bank3
  6774  0B33  085F               	movf	___ftadd@f1^(0+384),w
  6775  0B34  07E2               	addwf	___ftadd@f2^(0+384),f
  6776  0B35  0860               	movf	(___ftadd@f1+1)^(0+384),w
  6777  0B36  3DE3               	addwfc	(___ftadd@f2+1)^(0+384),f
  6778  0B37  0861               	movf	(___ftadd@f1+2)^(0+384),w
  6779  0B38  3DE4               	addwfc	(___ftadd@f2+2)^(0+384),f
  6780  0B39  1FE4               	btfss	(___ftadd@f2+2)^(0+384),7
  6781  0B3A  2B4E               	goto	l4935
  6782  0B3B  30FF               	movlw	255
  6783  0B3C  06E2               	xorwf	___ftadd@f2^(0+384),f
  6784  0B3D  30FF               	movlw	255
  6785  0B3E  06E3               	xorwf	(___ftadd@f2+1)^(0+384),f
  6786  0B3F  30FF               	movlw	255
  6787  0B40  06E4               	xorwf	(___ftadd@f2+2)^(0+384),f
  6788  0B41  3001               	movlw	1
  6789  0B42  07E2               	addwf	___ftadd@f2^(0+384),f
  6790  0B43  3000               	movlw	0
  6791  0B44  1803               	skipnc
  6792  0B45  3001               	movlw	1
  6793  0B46  07E3               	addwf	(___ftadd@f2+1)^(0+384),f
  6794  0B47  3000               	movlw	0
  6795  0B48  1803               	skipnc
  6796  0B49  3001               	movlw	1
  6797  0B4A  07E4               	addwf	(___ftadd@f2+2)^(0+384),f
  6798  0B4B  0024               	movlb	4	; select bank4
  6799  0B4C  01A0               	clrf	___ftadd@sign^(0+512)
  6800  0B4D  0AA0               	incf	___ftadd@sign^(0+512),f
  6801  0B4E                     l4935:	
  6802  0B4E  0023               	movlb	3	; select bank3
  6803  0B4F  0862               	movf	___ftadd@f2^(0+384),w
  6804  0B50  0021               	movlb	1	; select bank1
  6805  0B51  00AD               	movwf	___ftpack@arg^(0+128)
  6806  0B52  0023               	movlb	3	; select bank3
  6807  0B53  0863               	movf	(___ftadd@f2+1)^(0+384),w
  6808  0B54  0021               	movlb	1	; select bank1
  6809  0B55  00AE               	movwf	(___ftpack@arg+1)^(0+128)
  6810  0B56  0023               	movlb	3	; select bank3
  6811  0B57  0864               	movf	(___ftadd@f2+2)^(0+384),w
  6812  0B58  0021               	movlb	1	; select bank1
  6813  0B59  00AF               	movwf	(___ftpack@arg+2)^(0+128)
  6814  0B5A  0024               	movlb	4	; select bank4
  6815  0B5B  0822               	movf	___ftadd@exp1^(0+512),w
  6816  0B5C  0023               	movlb	3	; select bank3
  6817  0B5D  00E5               	movwf	??___ftadd^(0+384)
  6818  0B5E  0865               	movf	??___ftadd^(0+384),w
  6819  0B5F  0021               	movlb	1	; select bank1
  6820  0B60  00B0               	movwf	___ftpack@exp^(0+128)
  6821  0B61  0024               	movlb	4	; select bank4
  6822  0B62  0820               	movf	___ftadd@sign^(0+512),w
  6823  0B63  0023               	movlb	3	; select bank3
  6824  0B64  00E6               	movwf	(??___ftadd+1)^(0+384)
  6825  0B65  0866               	movf	(??___ftadd+1)^(0+384),w
  6826  0B66  0021               	movlb	1	; select bank1
  6827  0B67  00B1               	movwf	___ftpack@sign^(0+128)
  6828  0B68  3193  236A         	fcall	___ftpack
  6829  0B6A  082D               	movf	?___ftpack^(0+128),w
  6830  0B6B  0023               	movlb	3	; select bank3
  6831  0B6C  00DF               	movwf	?___ftadd^(0+384)
  6832  0B6D  0021               	movlb	1	; select bank1
  6833  0B6E  082E               	movf	(?___ftpack+1)^(0+128),w
  6834  0B6F  0023               	movlb	3	; select bank3
  6835  0B70  00E0               	movwf	(?___ftadd+1)^(0+384)
  6836  0B71  0021               	movlb	1	; select bank1
  6837  0B72  082F               	movf	(?___ftpack+2)^(0+128),w
  6838  0B73  0023               	movlb	3	; select bank3
  6839  0B74  00E1               	movwf	(?___ftadd+2)^(0+384)
  6840  0B75  0008               	return
  6841  0B76                     __end_of___ftadd:	
  6842                           
  6843                           	psect	text25
  6844  10CF                     __ptext25:	
  6845 ;; *************** function ___awtoft *****************
  6846 ;; Defined at:
  6847 ;;		line 32 in file "C:\Program Files (x86)\Microchip\xc8\v2.10\pic\sources\c90\common\awtoft.c"
  6848 ;; Parameters:    Size  Location     Type
  6849 ;;  c               2   10[BANK3 ] int 
  6850 ;; Auto vars:     Size  Location     Type
  6851 ;;  sign            1   21[BANK1 ] unsigned char 
  6852 ;; Return value:  Size  Location     Type
  6853 ;;                  3   10[BANK3 ] float 
  6854 ;; Registers used:
  6855 ;;		wreg, status,2, status,0, pclath, cstack
  6856 ;; Tracked objects:
  6857 ;;		On entry : 1F/3
  6858 ;;		On exit  : 1F/3
  6859 ;;		Unchanged: 0/0
  6860 ;; Data sizes:     COMMON   BANK0   BANK1   BANK2   BANK3   BANK4   BANK5   BANK6   BANK7   BANK8   BANK9  BANK10  BANK1
      +1  BANK12
  6861 ;;      Params:         0       0       0       0       3       0       0       0       0       0       0       0       
      +0       0
  6862 ;;      Locals:         0       0       1       0       0       0       0       0       0       0       0       0       
      +0       0
  6863 ;;      Temps:          0       0       0       0       2       0       0       0       0       0       0       0       
      +0       0
  6864 ;;      Totals:         0       0       1       0       5       0       0       0       0       0       0       0       
      +0       0
  6865 ;;Total ram usage:        6 bytes
  6866 ;; Hardware stack levels used:    1
  6867 ;; Hardware stack levels required when called:   11
  6868 ;; This function calls:
  6869 ;;		___ftpack
  6870 ;; This function is called by:
  6871 ;;		_get_voltage
  6872 ;;		_get_current
  6873 ;; This function uses a non-reentrant model
  6874 ;;
  6875                           
  6876                           
  6877                           ;psect for function ___awtoft
  6878  10CF                     ___awtoft:	
  6879                           
  6880                           ;incstack = 0
  6881                           ; Regs used in ___awtoft: [wreg+status,2+status,0+pclath+cstack]
  6882  10CF  0021               	movlb	1	; select bank1
  6883  10D0  01B5               	clrf	___awtoft@sign^(0+128)
  6884  10D1  0023               	movlb	3	; select bank3
  6885  10D2  1FCB               	btfss	(___awtoft@c+1)^(0+384),7
  6886  10D3  28DC               	goto	l4865
  6887  10D4  09CA               	comf	___awtoft@c^(0+384),f
  6888  10D5  09CB               	comf	(___awtoft@c+1)^(0+384),f
  6889  10D6  0ACA               	incf	___awtoft@c^(0+384),f
  6890  10D7  1903               	skipnz
  6891  10D8  0ACB               	incf	(___awtoft@c+1)^(0+384),f
  6892  10D9  0021               	movlb	1	; select bank1
  6893  10DA  01B5               	clrf	___awtoft@sign^(0+128)
  6894  10DB  0AB5               	incf	___awtoft@sign^(0+128),f
  6895  10DC                     l4865:	
  6896  10DC  0023               	movlb	3	; select bank3
  6897  10DD  084A               	movf	___awtoft@c^(0+384),w
  6898  10DE  0021               	movlb	1	; select bank1
  6899  10DF  00AD               	movwf	___ftpack@arg^(0+128)
  6900  10E0  0023               	movlb	3	; select bank3
  6901  10E1  084B               	movf	(___awtoft@c+1)^(0+384),w
  6902  10E2  0021               	movlb	1	; select bank1
  6903  10E3  00AE               	movwf	(___ftpack@arg+1)^(0+128)
  6904  10E4  01AF               	clrf	(___ftpack@arg+2)^(0+128)
  6905  10E5  308E               	movlw	142
  6906  10E6  0023               	movlb	3	; select bank3
  6907  10E7  00CD               	movwf	??___awtoft^(0+384)
  6908  10E8  084D               	movf	??___awtoft^(0+384),w
  6909  10E9  0021               	movlb	1	; select bank1
  6910  10EA  00B0               	movwf	___ftpack@exp^(0+128)
  6911  10EB  0835               	movf	___awtoft@sign^(0+128),w
  6912  10EC  0023               	movlb	3	; select bank3
  6913  10ED  00CE               	movwf	(??___awtoft+1)^(0+384)
  6914  10EE  084E               	movf	(??___awtoft+1)^(0+384),w
  6915  10EF  0021               	movlb	1	; select bank1
  6916  10F0  00B1               	movwf	___ftpack@sign^(0+128)
  6917  10F1  3193  236A         	fcall	___ftpack
  6918  10F3  082D               	movf	?___ftpack^(0+128),w
  6919  10F4  0023               	movlb	3	; select bank3
  6920  10F5  00CA               	movwf	?___awtoft^(0+384)
  6921  10F6  0021               	movlb	1	; select bank1
  6922  10F7  082E               	movf	(?___ftpack+1)^(0+128),w
  6923  10F8  0023               	movlb	3	; select bank3
  6924  10F9  00CB               	movwf	(?___awtoft+1)^(0+384)
  6925  10FA  0021               	movlb	1	; select bank1
  6926  10FB  082F               	movf	(?___ftpack+2)^(0+128),w
  6927  10FC  0023               	movlb	3	; select bank3
  6928  10FD  00CC               	movwf	(?___awtoft+2)^(0+384)
  6929  10FE  0008               	return
  6930  10FF                     __end_of___awtoft:	
  6931                           
  6932                           	psect	text26
  6933  136A                     __ptext26:	
  6934 ;; *************** function ___ftpack *****************
  6935 ;; Defined at:
  6936 ;;		line 62 in file "C:\Program Files (x86)\Microchip\xc8\v2.10\pic\sources\c90\common\float.c"
  6937 ;; Parameters:    Size  Location     Type
  6938 ;;  arg             3   13[BANK1 ] unsigned um
  6939 ;;  exp             1   16[BANK1 ] unsigned char 
  6940 ;;  sign            1   17[BANK1 ] unsigned char 
  6941 ;; Auto vars:     Size  Location     Type
  6942 ;;		None
  6943 ;; Return value:  Size  Location     Type
  6944 ;;                  3   13[BANK1 ] float 
  6945 ;; Registers used:
  6946 ;;		wreg, status,2, status,0
  6947 ;; Tracked objects:
  6948 ;;		On entry : 1F/1
  6949 ;;		On exit  : 1F/1
  6950 ;;		Unchanged: 0/0
  6951 ;; Data sizes:     COMMON   BANK0   BANK1   BANK2   BANK3   BANK4   BANK5   BANK6   BANK7   BANK8   BANK9  BANK10  BANK1
      +1  BANK12
  6952 ;;      Params:         0       0       5       0       0       0       0       0       0       0       0       0       
      +0       0
  6953 ;;      Locals:         0       0       0       0       0       0       0       0       0       0       0       0       
      +0       0
  6954 ;;      Temps:          0       0       3       0       0       0       0       0       0       0       0       0       
      +0       0
  6955 ;;      Totals:         0       0       8       0       0       0       0       0       0       0       0       0       
      +0       0
  6956 ;;Total ram usage:        8 bytes
  6957 ;; Hardware stack levels used:    1
  6958 ;; Hardware stack levels required when called:   10
  6959 ;; This function calls:
  6960 ;;		Nothing
  6961 ;; This function is called by:
  6962 ;;		___awtoft
  6963 ;;		___ftadd
  6964 ;;		___ftmul
  6965 ;; This function uses a non-reentrant model
  6966 ;;
  6967                           
  6968                           
  6969                           ;psect for function ___ftpack
  6970  136A                     ___ftpack:	
  6971                           
  6972                           ;incstack = 0
  6973                           ; Regs used in ___ftpack: [wreg+status,2+status,0]
  6974  136A  0830               	movf	___ftpack@exp^(0+128),w
  6975  136B  1903               	btfsc	3,2
  6976  136C  2B72               	goto	l4769
  6977  136D  082F               	movf	(___ftpack@arg+2)^(0+128),w
  6978  136E  042E               	iorwf	(___ftpack@arg+1)^(0+128),w
  6979  136F  042D               	iorwf	___ftpack@arg^(0+128),w
  6980  1370  1D03               	skipz
  6981  1371  2B83               	goto	l4775
  6982  1372                     l4769:	
  6983  1372  3000               	movlw	0
  6984  1373  00AD               	movwf	?___ftpack^(0+128)
  6985  1374  3000               	movlw	0
  6986  1375  00AE               	movwf	(?___ftpack+1)^(0+128)
  6987  1376  3000               	movlw	0
  6988  1377  00AF               	movwf	(?___ftpack+2)^(0+128)
  6989  1378  0008               	return
  6990  1379                     l4773:	
  6991  1379  3001               	movlw	1
  6992  137A  00B2               	movwf	??___ftpack^(0+128)
  6993  137B  0832               	movf	??___ftpack^(0+128),w
  6994  137C  07B0               	addwf	___ftpack@exp^(0+128),f
  6995  137D  3001               	movlw	1
  6996  137E                     u4975:	
  6997  137E  36AF               	lsrf	(___ftpack@arg+2)^(0+128),f
  6998  137F  0CAE               	rrf	(___ftpack@arg+1)^(0+128),f
  6999  1380  0CAD               	rrf	___ftpack@arg^(0+128),f
  7000  1381  0B89               	decfsz	9,f
  7001  1382  2B7E               	goto	u4975
  7002  1383                     l4775:	
  7003  1383  30FE               	movlw	254
  7004  1384  052F               	andwf	(___ftpack@arg+2)^(0+128),w
  7005  1385  1903               	btfsc	3,2
  7006  1386  2B9C               	goto	l1062
  7007  1387  2B79               	goto	l4773
  7008  1388                     l4777:	
  7009  1388  3001               	movlw	1
  7010  1389  00B2               	movwf	??___ftpack^(0+128)
  7011  138A  0832               	movf	??___ftpack^(0+128),w
  7012  138B  07B0               	addwf	___ftpack@exp^(0+128),f
  7013  138C  3001               	movlw	1
  7014  138D  07AD               	addwf	___ftpack@arg^(0+128),f
  7015  138E  3000               	movlw	0
  7016  138F  1803               	skipnc
  7017  1390  3001               	movlw	1
  7018  1391  07AE               	addwf	(___ftpack@arg+1)^(0+128),f
  7019  1392  3000               	movlw	0
  7020  1393  1803               	skipnc
  7021  1394  3001               	movlw	1
  7022  1395  07AF               	addwf	(___ftpack@arg+2)^(0+128),f
  7023  1396  3001               	movlw	1
  7024  1397                     u4995:	
  7025  1397  36AF               	lsrf	(___ftpack@arg+2)^(0+128),f
  7026  1398  0CAE               	rrf	(___ftpack@arg+1)^(0+128),f
  7027  1399  0CAD               	rrf	___ftpack@arg^(0+128),f
  7028  139A  0B89               	decfsz	9,f
  7029  139B  2B97               	goto	u4995
  7030  139C                     l1062:	
  7031  139C  30FF               	movlw	255
  7032  139D  052F               	andwf	(___ftpack@arg+2)^(0+128),w
  7033  139E  1903               	btfsc	3,2
  7034  139F  2BAD               	goto	l4785
  7035  13A0  2B88               	goto	l4777
  7036  13A1                     l4787:	
  7037  13A1  3002               	movlw	2
  7038  13A2  0230               	subwf	___ftpack@exp^(0+128),w
  7039  13A3  1C03               	btfss	3,0
  7040  13A4  2BAF               	goto	l1069
  7041  13A5  3001               	movlw	1
  7042  13A6  02B0               	subwf	___ftpack@exp^(0+128),f
  7043  13A7  3001               	movlw	1
  7044  13A8                     u5015:	
  7045  13A8  35AD               	lslf	___ftpack@arg^(0+128),f
  7046  13A9  0DAE               	rlf	(___ftpack@arg+1)^(0+128),f
  7047  13AA  0DAF               	rlf	(___ftpack@arg+2)^(0+128),f
  7048  13AB  0B89               	decfsz	9,f
  7049  13AC  2BA8               	goto	u5015
  7050  13AD                     l4785:	
  7051  13AD  1FAE               	btfss	(___ftpack@arg+1)^(0+128),7
  7052  13AE  2BA1               	goto	l4787
  7053  13AF                     l1069:	
  7054  13AF  1830               	btfsc	___ftpack@exp^(0+128),0
  7055  13B0  2BB7               	goto	l1070
  7056  13B1  30FF               	movlw	255
  7057  13B2  05AD               	andwf	___ftpack@arg^(0+128),f
  7058  13B3  307F               	movlw	127
  7059  13B4  05AE               	andwf	(___ftpack@arg+1)^(0+128),f
  7060  13B5  30FF               	movlw	255
  7061  13B6  05AF               	andwf	(___ftpack@arg+2)^(0+128),f
  7062  13B7                     l1070:	
  7063  13B7  1003               	clrc
  7064  13B8  0CB0               	rrf	___ftpack@exp^(0+128),f
  7065  13B9  0830               	movf	___ftpack@exp^(0+128),w
  7066  13BA  00B2               	movwf	??___ftpack^(0+128)
  7067  13BB  01B3               	clrf	(??___ftpack^(0+128)+1)
  7068  13BC  01B4               	clrf	(??___ftpack^(0+128)+2)
  7069  13BD  3010               	movlw	16
  7070  13BE                     u5055:	
  7071  13BE  35B2               	lslf	??___ftpack^(0+128),f
  7072  13BF  0DB3               	rlf	(??___ftpack^(0+128)+1),f
  7073  13C0  0DB4               	rlf	(??___ftpack^(0+128)+2),f
  7074  13C1  0B89               	decfsz	9,f
  7075  13C2  2BBE               	goto	u5055
  7076  13C3  0832               	movf	??___ftpack^(0+128),w
  7077  13C4  04AD               	iorwf	___ftpack@arg^(0+128),f
  7078  13C5  0833               	movf	(??___ftpack+1)^(0+128),w
  7079  13C6  04AE               	iorwf	(___ftpack@arg+1)^(0+128),f
  7080  13C7  0834               	movf	(??___ftpack+2)^(0+128),w
  7081  13C8  04AF               	iorwf	(___ftpack@arg+2)^(0+128),f
  7082  13C9  0831               	movf	___ftpack@sign^(0+128),w
  7083  13CA  1903               	btfsc	3,2
  7084  13CB  0008               	return
  7085  13CC  17AF               	bsf	(___ftpack@arg^(0+128)+2),7
  7086  13CD  0008               	return
  7087  13CE                     __end_of___ftpack:	
  7088                           
  7089                           	psect	text27
  7090  0809                     __ptext27:	
  7091 ;; *************** function _dmm_init *****************
  7092 ;; Defined at:
  7093 ;;		line 69 in file "../dmm_func.c"
  7094 ;; Parameters:    Size  Location     Type
  7095 ;;		None
  7096 ;; Auto vars:     Size  Location     Type
  7097 ;;		None
  7098 ;; Return value:  Size  Location     Type
  7099 ;;                  1    wreg      void 
  7100 ;; Registers used:
  7101 ;;		wreg, fsr0l, fsr0h, status,2, status,0, pclath, cstack
  7102 ;; Tracked objects:
  7103 ;;		On entry : B1F/7
  7104 ;;		On exit  : 1F/4
  7105 ;;		Unchanged: 0/0
  7106 ;; Data sizes:     COMMON   BANK0   BANK1   BANK2   BANK3   BANK4   BANK5   BANK6   BANK7   BANK8   BANK9  BANK10  BANK1
      +1  BANK12
  7107 ;;      Params:         0       0       0       0       0       0       0       0       0       0       0       0       
      +0       0
  7108 ;;      Locals:         0       0       0       0       0       0       0       0       0       0       0       0       
      +0       0
  7109 ;;      Temps:          0       0       0       0       0       0       0       0       0       0       0       0       
      +0       0
  7110 ;;      Totals:         0       0       0       0       0       0       0       0       0       0       0       0       
      +0       0
  7111 ;;Total ram usage:        0 bytes
  7112 ;; Hardware stack levels used:    1
  7113 ;; Hardware stack levels required when called:   14
  7114 ;; This function calls:
  7115 ;;		_i2c_enable
  7116 ;;		_set_autorange_threshould
  7117 ;; This function is called by:
  7118 ;;		_main
  7119 ;; This function uses a non-reentrant model
  7120 ;;
  7121                           
  7122                           
  7123                           ;psect for function _dmm_init
  7124  0809                     _dmm_init:	
  7125                           
  7126                           ;dmm_func.c: 70: LATC = 0x0;
  7127                           
  7128                           ;incstack = 0
  7129                           ; Regs used in _dmm_init: [wreg-fsr0h+status,2+status,0+pclath+cstack]
  7130  0809  0022               	movlb	2	; select bank2
  7131  080A  018E               	clrf	14	;volatile
  7132                           
  7133                           ;dmm_func.c: 71: ANSELC = 0x00;
  7134  080B  0023               	movlb	3	; select bank3
  7135  080C  018E               	clrf	14	;volatile
  7136                           
  7137                           ;dmm_func.c: 72: PORTC = 0x00;
  7138  080D  0020               	movlb	0	; select bank0
  7139  080E  018E               	clrf	14	;volatile
  7140                           
  7141                           ;dmm_func.c: 73: TRISC = 0x07;
  7142  080F  3007               	movlw	7
  7143  0810  0021               	movlb	1	; select bank1
  7144  0811  008E               	movwf	14	;volatile
  7145                           
  7146                           ;dmm_func.c: 75: WPUA = 0x38;
  7147  0812  3038               	movlw	56
  7148  0813  0024               	movlb	4	; select bank4
  7149  0814  008C               	movwf	12	;volatile
  7150                           
  7151                           ;dmm_func.c: 76: OPTION_REGbits.nWPUEN = 0;
  7152  0815  0021               	movlb	1	; select bank1
  7153  0816  1395               	bcf	21,7	;volatile
  7154                           
  7155                           ;dmm_func.c: 79: lowCurrentSlope = NVM_LOW_CURRENT_SLOPE;
  7156  0817  3080               	movlw	128
  7157  0818  0084               	movwf	4
  7158  0819  309F               	movlw	159
  7159  081A  0085               	movwf	5
  7160  081B  3F00               	moviw [0]fsr0
  7161  081C  0024               	movlb	4	; select bank4
  7162  081D  00D5               	movwf	_lowCurrentSlope^(0+512)
  7163  081E  3F01               	moviw [1]fsr0
  7164  081F  00D6               	movwf	(_lowCurrentSlope+1)^(0+512)
  7165  0820  3F02               	moviw [2]fsr0
  7166  0821  00D7               	movwf	(_lowCurrentSlope+2)^(0+512)
  7167                           
  7168                           ;dmm_func.c: 80: lowCurrentOffset = NVM_LOW_CURRENT_OFFSET;
  7169  0822  3083               	movlw	131
  7170  0823  0084               	movwf	4
  7171  0824  309F               	movlw	159
  7172  0825  0085               	movwf	5
  7173  0826  3F00               	moviw [0]fsr0
  7174  0827  00D2               	movwf	_lowCurrentOffset^(0+512)
  7175  0828  3F01               	moviw [1]fsr0
  7176  0829  00D3               	movwf	(_lowCurrentOffset+1)^(0+512)
  7177  082A  3F02               	moviw [2]fsr0
  7178  082B  00D4               	movwf	(_lowCurrentOffset+2)^(0+512)
  7179                           
  7180                           ;dmm_func.c: 81: highCurrentSlope = NVM_HIGH_CURRENT_SLOPE;
  7181  082C  3086               	movlw	134
  7182  082D  0084               	movwf	4
  7183  082E  309F               	movlw	159
  7184  082F  0085               	movwf	5
  7185  0830  3F00               	moviw [0]fsr0
  7186  0831  00CF               	movwf	_highCurrentSlope^(0+512)
  7187  0832  3F01               	moviw [1]fsr0
  7188  0833  00D0               	movwf	(_highCurrentSlope+1)^(0+512)
  7189  0834  3F02               	moviw [2]fsr0
  7190  0835  00D1               	movwf	(_highCurrentSlope+2)^(0+512)
  7191                           
  7192                           ;dmm_func.c: 82: highCurrentOffset = NVM_HIGH_CURRENT_OFFSET;
  7193  0836  3089               	movlw	137
  7194  0837  0084               	movwf	4
  7195  0838  309F               	movlw	159
  7196  0839  0085               	movwf	5
  7197  083A  3F00               	moviw [0]fsr0
  7198  083B  00CC               	movwf	_highCurrentOffset^(0+512)
  7199  083C  3F01               	moviw [1]fsr0
  7200  083D  00CD               	movwf	(_highCurrentOffset+1)^(0+512)
  7201  083E  3F02               	moviw [2]fsr0
  7202  083F  00CE               	movwf	(_highCurrentOffset+2)^(0+512)
  7203                           
  7204                           ;dmm_func.c: 83: lowVoltageSlope = NVM_LOW_VOLTAGE_SLOPE;
  7205  0840  308C               	movlw	140
  7206  0841  0084               	movwf	4
  7207  0842  309F               	movlw	159
  7208  0843  0085               	movwf	5
  7209  0844  3F00               	moviw [0]fsr0
  7210  0845  00C9               	movwf	_lowVoltageSlope^(0+512)
  7211  0846  3F01               	moviw [1]fsr0
  7212  0847  00CA               	movwf	(_lowVoltageSlope+1)^(0+512)
  7213  0848  3F02               	moviw [2]fsr0
  7214  0849  00CB               	movwf	(_lowVoltageSlope+2)^(0+512)
  7215                           
  7216                           ;dmm_func.c: 84: lowVoltageOffset = NVM_LOW_VOLTAGE_OFFSET;
  7217  084A  308F               	movlw	143
  7218  084B  0084               	movwf	4
  7219  084C  309F               	movlw	159
  7220  084D  0085               	movwf	5
  7221  084E  3F00               	moviw [0]fsr0
  7222  084F  00C6               	movwf	_lowVoltageOffset^(0+512)
  7223  0850  3F01               	moviw [1]fsr0
  7224  0851  00C7               	movwf	(_lowVoltageOffset+1)^(0+512)
  7225  0852  3F02               	moviw [2]fsr0
  7226  0853  00C8               	movwf	(_lowVoltageOffset+2)^(0+512)
  7227                           
  7228                           ;dmm_func.c: 85: highVoltageSlope = NVM_HIGH_VOLTAGE_SLOPE;
  7229  0854  3092               	movlw	146
  7230  0855  0084               	movwf	4
  7231  0856  309F               	movlw	159
  7232  0857  0085               	movwf	5
  7233  0858  3F00               	moviw [0]fsr0
  7234  0859  00C3               	movwf	_highVoltageSlope^(0+512)
  7235  085A  3F01               	moviw [1]fsr0
  7236  085B  00C4               	movwf	(_highVoltageSlope+1)^(0+512)
  7237  085C  3F02               	moviw [2]fsr0
  7238  085D  00C5               	movwf	(_highVoltageSlope+2)^(0+512)
  7239                           
  7240                           ;dmm_func.c: 86: highVoltageOffset = NVM_HIGH_VOLTAGE_OFFSET;
  7241  085E  3095               	movlw	149
  7242  085F  0084               	movwf	4
  7243  0860  309F               	movlw	159
  7244  0861  0085               	movwf	5
  7245  0862  3F00               	moviw [0]fsr0
  7246  0863  00C0               	movwf	_highVoltageOffset^(0+512)
  7247  0864  3F01               	moviw [1]fsr0
  7248  0865  00C1               	movwf	(_highVoltageOffset+1)^(0+512)
  7249  0866  3F02               	moviw [2]fsr0
  7250  0867  00C2               	movwf	(_highVoltageOffset+2)^(0+512)
  7251                           
  7252                           ;dmm_func.c: 88: i2c_enable();
  7253  0868  319D  2577  3188   	fcall	_i2c_enable
  7254                           
  7255                           ;dmm_func.c: 89: set_autorange_threshould();
  7256  086B  319D  25E3         	fcall	_set_autorange_threshould
  7257  086D  0008               	return
  7258  086E                     __end_of_dmm_init:	
  7259                           
  7260                           	psect	text28
  7261  1DE3                     __ptext28:	
  7262 ;; *************** function _set_autorange_threshould *****************
  7263 ;; Defined at:
  7264 ;;		line 127 in file "../dmm_func.c"
  7265 ;; Parameters:    Size  Location     Type
  7266 ;;		None
  7267 ;; Auto vars:     Size  Location     Type
  7268 ;;		None
  7269 ;; Return value:  Size  Location     Type
  7270 ;;                  1    wreg      void 
  7271 ;; Registers used:
  7272 ;;		wreg, status,2, status,0, pclath, cstack
  7273 ;; Tracked objects:
  7274 ;;		On entry : B1F/4
  7275 ;;		On exit  : 1F/4
  7276 ;;		Unchanged: 0/0
  7277 ;; Data sizes:     COMMON   BANK0   BANK1   BANK2   BANK3   BANK4   BANK5   BANK6   BANK7   BANK8   BANK9  BANK10  BANK1
      +1  BANK12
  7278 ;;      Params:         0       0       0       0       0       0       0       0       0       0       0       0       
      +0       0
  7279 ;;      Locals:         0       0       0       0       0       0       0       0       0       0       0       0       
      +0       0
  7280 ;;      Temps:          0       0       2       0       0       0       0       0       0       0       0       0       
      +0       0
  7281 ;;      Totals:         0       0       2       0       0       0       0       0       0       0       0       0       
      +0       0
  7282 ;;Total ram usage:        2 bytes
  7283 ;; Hardware stack levels used:    1
  7284 ;; Hardware stack levels required when called:   13
  7285 ;; This function calls:
  7286 ;;		_i2c_reg_write
  7287 ;; This function is called by:
  7288 ;;		_dmm_init
  7289 ;; This function uses a non-reentrant model
  7290 ;;
  7291                           
  7292                           
  7293                           ;psect for function _set_autorange_threshould
  7294  1DE3                     _set_autorange_threshould:	
  7295                           
  7296                           ;dmm_func.c: 130: i2c_reg_write(0x09, 0x05, 0xD8);
  7297                           
  7298                           ;incstack = 0
  7299                           ; Regs used in _set_autorange_threshould: [wreg+status,2+status,0+pclath+cstack]
  7300  1DE3  3005               	movlw	5
  7301  1DE4  0021               	movlb	1	; select bank1
  7302  1DE5  00B1               	movwf	??_set_autorange_threshould^(0+128)
  7303  1DE6  0831               	movf	??_set_autorange_threshould^(0+128),w
  7304  1DE7  00AE               	movwf	i2c_reg_write@dat0^(0+128)
  7305  1DE8  30D8               	movlw	216
  7306  1DE9  00B2               	movwf	(??_set_autorange_threshould+1)^(0+128)
  7307  1DEA  0832               	movf	(??_set_autorange_threshould+1)^(0+128),w
  7308  1DEB  00AF               	movwf	i2c_reg_write@dat1^(0+128)
  7309  1DEC  3009               	movlw	9
  7310  1DED  319E  26AE         	fcall	_i2c_reg_write
  7311  1DEF  0008               	return
  7312  1DF0                     __end_of_set_autorange_threshould:	
  7313                           
  7314                           	psect	text29
  7315  1EAE                     __ptext29:	
  7316 ;; *************** function _i2c_reg_write *****************
  7317 ;; Defined at:
  7318 ;;		line 92 in file "../dmm_func.c"
  7319 ;; Parameters:    Size  Location     Type
  7320 ;;  regAddr         1    wreg     unsigned char 
  7321 ;;  dat0            1   14[BANK1 ] unsigned char 
  7322 ;;  dat1            1   15[BANK1 ] unsigned char 
  7323 ;; Auto vars:     Size  Location     Type
  7324 ;;  regAddr         1   16[BANK1 ] unsigned char 
  7325 ;; Return value:  Size  Location     Type
  7326 ;;                  1    wreg      void 
  7327 ;; Registers used:
  7328 ;;		wreg, status,2, status,0, pclath, cstack
  7329 ;; Tracked objects:
  7330 ;;		On entry : 1A/4
  7331 ;;		On exit  : 1F/4
  7332 ;;		Unchanged: 0/0
  7333 ;; Data sizes:     COMMON   BANK0   BANK1   BANK2   BANK3   BANK4   BANK5   BANK6   BANK7   BANK8   BANK9  BANK10  BANK1
      +1  BANK12
  7334 ;;      Params:         0       0       2       0       0       0       0       0       0       0       0       0       
      +0       0
  7335 ;;      Locals:         0       0       1       0       0       0       0       0       0       0       0       0       
      +0       0
  7336 ;;      Temps:          0       0       0       0       0       0       0       0       0       0       0       0       
      +0       0
  7337 ;;      Totals:         0       0       3       0       0       0       0       0       0       0       0       0       
      +0       0
  7338 ;;Total ram usage:        3 bytes
  7339 ;; Hardware stack levels used:    1
  7340 ;; Hardware stack levels required when called:   12
  7341 ;; This function calls:
  7342 ;;		_i2c_send_byte
  7343 ;;		_i2c_start
  7344 ;;		_i2c_stop
  7345 ;; This function is called by:
  7346 ;;		_main
  7347 ;;		_set_autorange_threshould
  7348 ;; This function uses a non-reentrant model
  7349 ;;
  7350                           
  7351                           
  7352                           ;psect for function _i2c_reg_write
  7353  1EAE                     _i2c_reg_write:	
  7354                           
  7355                           ;incstack = 0
  7356                           ; Regs used in _i2c_reg_write: [wreg+status,2+status,0+pclath+cstack]
  7357                           ;i2c_reg_write@regAddr stored from wreg
  7358  1EAE  0021               	movlb	1	; select bank1
  7359  1EAF  00B0               	movwf	i2c_reg_write@regAddr^(0+128)
  7360                           
  7361                           ;dmm_func.c: 94: i2c_start();
  7362  1EB0  319D  2568  319E   	fcall	_i2c_start
  7363                           
  7364                           ;dmm_func.c: 95: i2c_send_byte(0x40 << 1 | 0);
  7365  1EB3  3080               	movlw	128
  7366  1EB4  319D  25A3  319E   	fcall	_i2c_send_byte
  7367                           
  7368                           ;dmm_func.c: 96: i2c_send_byte(regAddr);
  7369  1EB7  0021               	movlb	1	; select bank1
  7370  1EB8  0830               	movf	i2c_reg_write@regAddr^(0+128),w
  7371  1EB9  319D  25A3  319E   	fcall	_i2c_send_byte
  7372                           
  7373                           ;dmm_func.c: 97: i2c_send_byte(dat0);
  7374  1EBC  0021               	movlb	1	; select bank1
  7375  1EBD  082E               	movf	i2c_reg_write@dat0^(0+128),w
  7376  1EBE  319D  25A3  319E   	fcall	_i2c_send_byte
  7377                           
  7378                           ;dmm_func.c: 98: i2c_send_byte(dat1);
  7379  1EC1  0021               	movlb	1	; select bank1
  7380  1EC2  082F               	movf	i2c_reg_write@dat1^(0+128),w
  7381  1EC3  319D  25A3  319E   	fcall	_i2c_send_byte
  7382                           
  7383                           ;dmm_func.c: 99: i2c_stop();
  7384  1EC6  319D  256D         	fcall	_i2c_stop
  7385  1EC8  0008               	return
  7386  1EC9                     __end_of_i2c_reg_write:	
  7387                           
  7388                           	psect	text30
  7389  1D6D                     __ptext30:	
  7390 ;; *************** function _i2c_stop *****************
  7391 ;; Defined at:
  7392 ;;		line 80 in file "../../lib/i2c-lib.c"
  7393 ;; Parameters:    Size  Location     Type
  7394 ;;		None
  7395 ;; Auto vars:     Size  Location     Type
  7396 ;;		None
  7397 ;; Return value:  Size  Location     Type
  7398 ;;                  1    wreg      void 
  7399 ;; Registers used:
  7400 ;;		wreg, status,2, status,0, pclath, cstack
  7401 ;; Tracked objects:
  7402 ;;		On entry : 18/3
  7403 ;;		On exit  : 1F/4
  7404 ;;		Unchanged: 0/0
  7405 ;; Data sizes:     COMMON   BANK0   BANK1   BANK2   BANK3   BANK4   BANK5   BANK6   BANK7   BANK8   BANK9  BANK10  BANK1
      +1  BANK12
  7406 ;;      Params:         0       0       0       0       0       0       0       0       0       0       0       0       
      +0       0
  7407 ;;      Locals:         0       0       0       0       0       0       0       0       0       0       0       0       
      +0       0
  7408 ;;      Temps:          0       0       0       0       0       0       0       0       0       0       0       0       
      +0       0
  7409 ;;      Totals:         0       0       0       0       0       0       0       0       0       0       0       0       
      +0       0
  7410 ;;Total ram usage:        0 bytes
  7411 ;; Hardware stack levels used:    1
  7412 ;; Hardware stack levels required when called:   11
  7413 ;; This function calls:
  7414 ;;		_i2c_wait
  7415 ;; This function is called by:
  7416 ;;		_i2c_reg_write
  7417 ;;		_i2c_reg_read
  7418 ;; This function uses a non-reentrant model
  7419 ;;
  7420                           
  7421                           
  7422                           ;psect for function _i2c_stop
  7423  1D6D                     _i2c_stop:	
  7424                           
  7425                           ;i2c-lib.c: 81: SSP1CON2bits.PEN = 1;
  7426                           
  7427                           ;incstack = 0
  7428                           ; Regs used in _i2c_stop: [wreg+status,2+status,0+pclath+cstack]
  7429  1D6D  0024               	movlb	4	; select bank4
  7430  1D6E  1516               	bsf	22,2	;volatile
  7431                           
  7432                           ;i2c-lib.c: 82: i2c_wait();
  7433  1D6F  319D  259B         	fcall	_i2c_wait
  7434  1D71  0008               	return
  7435  1D72                     __end_of_i2c_stop:	
  7436                           
  7437                           	psect	text31
  7438  1D68                     __ptext31:	
  7439 ;; *************** function _i2c_start *****************
  7440 ;; Defined at:
  7441 ;;		line 68 in file "../../lib/i2c-lib.c"
  7442 ;; Parameters:    Size  Location     Type
  7443 ;;		None
  7444 ;; Auto vars:     Size  Location     Type
  7445 ;;		None
  7446 ;; Return value:  Size  Location     Type
  7447 ;;                  1    wreg      void 
  7448 ;; Registers used:
  7449 ;;		wreg, status,2, status,0, pclath, cstack
  7450 ;; Tracked objects:
  7451 ;;		On entry : 1D/3
  7452 ;;		On exit  : 1F/4
  7453 ;;		Unchanged: 0/0
  7454 ;; Data sizes:     COMMON   BANK0   BANK1   BANK2   BANK3   BANK4   BANK5   BANK6   BANK7   BANK8   BANK9  BANK10  BANK1
      +1  BANK12
  7455 ;;      Params:         0       0       0       0       0       0       0       0       0       0       0       0       
      +0       0
  7456 ;;      Locals:         0       0       0       0       0       0       0       0       0       0       0       0       
      +0       0
  7457 ;;      Temps:          0       0       0       0       0       0       0       0       0       0       0       0       
      +0       0
  7458 ;;      Totals:         0       0       0       0       0       0       0       0       0       0       0       0       
      +0       0
  7459 ;;Total ram usage:        0 bytes
  7460 ;; Hardware stack levels used:    1
  7461 ;; Hardware stack levels required when called:   11
  7462 ;; This function calls:
  7463 ;;		_i2c_wait
  7464 ;; This function is called by:
  7465 ;;		_i2c_reg_write
  7466 ;;		_i2c_reg_read
  7467 ;; This function uses a non-reentrant model
  7468 ;;
  7469                           
  7470                           
  7471                           ;psect for function _i2c_start
  7472  1D68                     _i2c_start:	
  7473                           
  7474                           ;i2c-lib.c: 69: SSP1CON2bits.SEN = 1;
  7475                           
  7476                           ;incstack = 0
  7477                           ; Regs used in _i2c_start: [wreg+status,2+status,0+pclath+cstack]
  7478  1D68  0024               	movlb	4	; select bank4
  7479  1D69  1416               	bsf	22,0	;volatile
  7480                           
  7481                           ;i2c-lib.c: 70: i2c_wait();
  7482  1D6A  319D  259B         	fcall	_i2c_wait
  7483  1D6C  0008               	return
  7484  1D6D                     __end_of_i2c_start:	
  7485                           
  7486                           	psect	text32
  7487  1DA3                     __ptext32:	
  7488 ;; *************** function _i2c_send_byte *****************
  7489 ;; Defined at:
  7490 ;;		line 92 in file "../../lib/i2c-lib.c"
  7491 ;; Parameters:    Size  Location     Type
  7492 ;;  data            1    wreg     const unsigned char 
  7493 ;; Auto vars:     Size  Location     Type
  7494 ;;  data            1   13[BANK1 ] const unsigned char 
  7495 ;; Return value:  Size  Location     Type
  7496 ;;                  1    wreg      void 
  7497 ;; Registers used:
  7498 ;;		wreg, status,2, status,0, pclath, cstack
  7499 ;; Tracked objects:
  7500 ;;		On entry : 18/4
  7501 ;;		On exit  : 1F/4
  7502 ;;		Unchanged: 0/0
  7503 ;; Data sizes:     COMMON   BANK0   BANK1   BANK2   BANK3   BANK4   BANK5   BANK6   BANK7   BANK8   BANK9  BANK10  BANK1
      +1  BANK12
  7504 ;;      Params:         0       0       0       0       0       0       0       0       0       0       0       0       
      +0       0
  7505 ;;      Locals:         0       0       1       0       0       0       0       0       0       0       0       0       
      +0       0
  7506 ;;      Temps:          0       0       0       0       0       0       0       0       0       0       0       0       
      +0       0
  7507 ;;      Totals:         0       0       1       0       0       0       0       0       0       0       0       0       
      +0       0
  7508 ;;Total ram usage:        1 bytes
  7509 ;; Hardware stack levels used:    1
  7510 ;; Hardware stack levels required when called:   11
  7511 ;; This function calls:
  7512 ;;		_i2c_wait
  7513 ;; This function is called by:
  7514 ;;		_i2c_reg_write
  7515 ;;		_i2c_reg_read
  7516 ;; This function uses a non-reentrant model
  7517 ;;
  7518                           
  7519                           
  7520                           ;psect for function _i2c_send_byte
  7521  1DA3                     _i2c_send_byte:	
  7522                           
  7523                           ;incstack = 0
  7524                           ; Regs used in _i2c_send_byte: [wreg+status,2+status,0+pclath+cstack]
  7525                           ;i2c_send_byte@data stored from wreg
  7526  1DA3  0021               	movlb	1	; select bank1
  7527  1DA4  00AD               	movwf	i2c_send_byte@data^(0+128)
  7528                           
  7529                           ;i2c-lib.c: 93: SSP1BUF = data;
  7530  1DA5  082D               	movf	i2c_send_byte@data^(0+128),w
  7531  1DA6  0024               	movlb	4	; select bank4
  7532  1DA7  0091               	movwf	17	;volatile
  7533                           
  7534                           ;i2c-lib.c: 94: i2c_wait();
  7535  1DA8  319D  259B         	fcall	_i2c_wait
  7536  1DAA  0008               	return
  7537  1DAB                     __end_of_i2c_send_byte:	
  7538                           
  7539                           	psect	text33
  7540  1D9B                     __ptext33:	
  7541 ;; *************** function _i2c_wait *****************
  7542 ;; Defined at:
  7543 ;;		line 86 in file "../../lib/i2c-lib.c"
  7544 ;; Parameters:    Size  Location     Type
  7545 ;;		None
  7546 ;; Auto vars:     Size  Location     Type
  7547 ;;		None
  7548 ;; Return value:  Size  Location     Type
  7549 ;;                  1    wreg      void 
  7550 ;; Registers used:
  7551 ;;		wreg, status,2
  7552 ;; Tracked objects:
  7553 ;;		On entry : 1A/4
  7554 ;;		On exit  : 1F/4
  7555 ;;		Unchanged: 0/0
  7556 ;; Data sizes:     COMMON   BANK0   BANK1   BANK2   BANK3   BANK4   BANK5   BANK6   BANK7   BANK8   BANK9  BANK10  BANK1
      +1  BANK12
  7557 ;;      Params:         0       0       0       0       0       0       0       0       0       0       0       0       
      +0       0
  7558 ;;      Locals:         0       0       0       0       0       0       0       0       0       0       0       0       
      +0       0
  7559 ;;      Temps:          0       0       0       0       0       0       0       0       0       0       0       0       
      +0       0
  7560 ;;      Totals:         0       0       0       0       0       0       0       0       0       0       0       0       
      +0       0
  7561 ;;Total ram usage:        0 bytes
  7562 ;; Hardware stack levels used:    1
  7563 ;; Hardware stack levels required when called:   10
  7564 ;; This function calls:
  7565 ;;		Nothing
  7566 ;; This function is called by:
  7567 ;;		_i2c_start
  7568 ;;		_i2c_repeat_start
  7569 ;;		_i2c_stop
  7570 ;;		_i2c_send_byte
  7571 ;;		_i2c_read_byte
  7572 ;; This function uses a non-reentrant model
  7573 ;;
  7574                           
  7575                           
  7576                           ;psect for function _i2c_wait
  7577  1D9B                     _i2c_wait:	
  7578  1D9B                     l4693:	
  7579                           ;i2c-lib.c: 87: while ( ( SSP1CON2 & 0x1F ) || ( SSP1STATbits.R_nW ) );
  7580                           
  7581                           ;incstack = 0
  7582                           ; Regs used in _i2c_wait: [wreg+status,2]
  7583                           
  7584  1D9B  0024               	movlb	4	; select bank4
  7585  1D9C  0816               	movf	22,w	;volatile
  7586  1D9D  391F               	andlw	31
  7587  1D9E  1D03               	btfss	3,2
  7588  1D9F  2D9B               	goto	l4693
  7589  1DA0  1D14               	btfss	20,2	;volatile
  7590  1DA1  0008               	return
  7591  1DA2  2D9B               	goto	l4693
  7592  1DA3                     __end_of_i2c_wait:	
  7593                           
  7594                           	psect	text34
  7595  1D77                     __ptext34:	
  7596 ;; *************** function _i2c_enable *****************
  7597 ;; Defined at:
  7598 ;;		line 49 in file "../../lib/i2c-lib.c"
  7599 ;; Parameters:    Size  Location     Type
  7600 ;;		None
  7601 ;; Auto vars:     Size  Location     Type
  7602 ;;		None
  7603 ;; Return value:  Size  Location     Type
  7604 ;;                  1    wreg      void 
  7605 ;; Registers used:
  7606 ;;		wreg, status,2
  7607 ;; Tracked objects:
  7608 ;;		On entry : B1F/4
  7609 ;;		On exit  : B1F/4
  7610 ;;		Unchanged: B00/0
  7611 ;; Data sizes:     COMMON   BANK0   BANK1   BANK2   BANK3   BANK4   BANK5   BANK6   BANK7   BANK8   BANK9  BANK10  BANK1
      +1  BANK12
  7612 ;;      Params:         0       0       0       0       0       0       0       0       0       0       0       0       
      +0       0
  7613 ;;      Locals:         0       0       0       0       0       0       0       0       0       0       0       0       
      +0       0
  7614 ;;      Temps:          0       0       0       0       0       0       0       0       0       0       0       0       
      +0       0
  7615 ;;      Totals:         0       0       0       0       0       0       0       0       0       0       0       0       
      +0       0
  7616 ;;Total ram usage:        0 bytes
  7617 ;; Hardware stack levels used:    1
  7618 ;; Hardware stack levels required when called:   10
  7619 ;; This function calls:
  7620 ;;		Nothing
  7621 ;; This function is called by:
  7622 ;;		_dmm_init
  7623 ;; This function uses a non-reentrant model
  7624 ;;
  7625                           
  7626                           
  7627                           ;psect for function _i2c_enable
  7628  1D77                     _i2c_enable:	
  7629                           
  7630                           ;i2c-lib.c: 52: SSP1STAT = 0b00000000;
  7631                           
  7632                           ;incstack = 0
  7633                           ; Regs used in _i2c_enable: [wreg+status,2]
  7634  1D77  0194               	clrf	20	;volatile
  7635                           
  7636                           ;i2c-lib.c: 53: SSP1ADD = 26;
  7637  1D78  301A               	movlw	26
  7638  1D79  0092               	movwf	18	;volatile
  7639                           
  7640                           ;i2c-lib.c: 54: SSP1CON1 = 0b00101000;
  7641  1D7A  3028               	movlw	40
  7642  1D7B  0095               	movwf	21	;volatile
  7643  1D7C  0008               	return
  7644  1D7D                     __end_of_i2c_enable:	
  7645                           
  7646                           	psect	intentry
  7647  0204                     __pintentry:	
  7648 ;; *************** function _isr *****************
  7649 ;; Defined at:
  7650 ;;		line 301 in file "../main.c"
  7651 ;; Parameters:    Size  Location     Type
  7652 ;;		None
  7653 ;; Auto vars:     Size  Location     Type
  7654 ;;		None
  7655 ;; Return value:  Size  Location     Type
  7656 ;;                  1    wreg      void 
  7657 ;; Registers used:
  7658 ;;		wreg, fsr0l, fsr0h, fsr1l, fsr1h, status,2, status,0, pclath, cstack
  7659 ;; Tracked objects:
  7660 ;;		On entry : 0/0
  7661 ;;		On exit  : 1F/0
  7662 ;;		Unchanged: 0/0
  7663 ;; Data sizes:     COMMON   BANK0   BANK1   BANK2   BANK3   BANK4   BANK5   BANK6   BANK7   BANK8   BANK9  BANK10  BANK1
      +1  BANK12
  7664 ;;      Params:         0       0       0       0       0       0       0       0       0       0       0       0       
      +0       0
  7665 ;;      Locals:         0       0       0       0       0       0       0       0       0       0       0       0       
      +0       0
  7666 ;;      Temps:          0       0       0       0       0       0       0       0       0       0       0       0       
      +0       0
  7667 ;;      Totals:         0       0       0       0       0       0       0       0       0       0       0       0       
      +0       0
  7668 ;;Total ram usage:        0 bytes
  7669 ;; Hardware stack levels used:    1
  7670 ;; Hardware stack levels required when called:    9
  7671 ;; This function calls:
  7672 ;;		_usb_service
  7673 ;; This function is called by:
  7674 ;;		Interrupt level 1
  7675 ;; This function uses a non-reentrant model
  7676 ;;
  7677                           
  7678  0204                     _isr:	
  7679                           
  7680                           ;incstack = 0
  7681  0204  147E               	bsf	126,0	;set compiler interrupt flag (level 1)
  7682                           
  7683                           ; Regs used in _isr: [wreg-fsr1h+status,2+status,0+pclath+cstack]
  7684  0205  3182               	pagesel	$
  7685                           
  7686                           ;main.c: 302: usb_service();
  7687  0206  3189  2144         	fcall	_usb_service
  7688  0208  107E               	bcf	126,0	;clear compiler interrupt flag (level 1)
  7689  0209  0009               	retfie
  7690  020A                     __end_of_isr:	
  7691                           
  7692                           	psect	text36
  7693  0944                     __ptext36:	
  7694 ;; *************** function _usb_service *****************
  7695 ;; Defined at:
  7696 ;;		line 1391 in file "../../../usb/src/usb.c"
  7697 ;; Parameters:    Size  Location     Type
  7698 ;;		None
  7699 ;; Auto vars:     Size  Location     Type
  7700 ;;  ep              2    8[BANK1 ] PTR volatile struct .
  7701 ;;		 -> UEP0(1), 
  7702 ;;  pid             1   12[BANK1 ] unsigned char 
  7703 ;;  i               2   10[BANK1 ] int 
  7704 ;; Return value:  Size  Location     Type
  7705 ;;                  1    wreg      void 
  7706 ;; Registers used:
  7707 ;;		wreg, fsr0l, fsr0h, fsr1l, fsr1h, status,2, status,0, pclath, cstack
  7708 ;; Tracked objects:
  7709 ;;		On entry : 0/0
  7710 ;;		On exit  : 1F/0
  7711 ;;		Unchanged: 0/0
  7712 ;; Data sizes:     COMMON   BANK0   BANK1   BANK2   BANK3   BANK4   BANK5   BANK6   BANK7   BANK8   BANK9  BANK10  BANK1
      +1  BANK12
  7713 ;;      Params:         0       0       0       0       0       0       0       0       0       0       0       0       
      +0       0
  7714 ;;      Locals:         0       0       5       0       0       0       0       0       0       0       0       0       
      +0       0
  7715 ;;      Temps:          0       0       5       0       0       0       0       0       0       0       0       0       
      +0       0
  7716 ;;      Totals:         0       0      10       0       0       0       0       0       0       0       0       0       
      +0       0
  7717 ;;Total ram usage:       10 bytes
  7718 ;; Hardware stack levels used:    1
  7719 ;; Hardware stack levels required when called:    8
  7720 ;; This function calls:
  7721 ;;		_app_in_transaction_complete_callback
  7722 ;;		_app_out_transaction_callback
  7723 ;;		_app_start_of_frame_callback
  7724 ;;		_app_usb_reset_callback
  7725 ;;		_handle_ep0_in
  7726 ;;		_handle_ep0_out
  7727 ;;		_handle_ep0_setup
  7728 ;;		_reset_bd0_out
  7729 ;;		_stall_ep0
  7730 ;;		_stall_ep_in
  7731 ;;		_stall_ep_out
  7732 ;;		i1___wmul
  7733 ;;		i1_usb_init
  7734 ;; This function is called by:
  7735 ;;		_isr
  7736 ;; This function uses a non-reentrant model
  7737 ;;
  7738                           
  7739                           
  7740                           ;psect for function _usb_service
  7741  0944                     _usb_service:	
  7742                           
  7743                           ;usb.c: 1393: if (UIRbits.URSTIF) {
  7744                           
  7745                           ;incstack = 0
  7746                           ; Regs used in _usb_service: [wreg-fsr1h+status,2+status,0+pclath+cstack]
  7747  0944  003D               	movlb	29	; select bank29
  7748  0945  1C10               	btfss	16,0	;volatile
  7749  0946  294F               	goto	i1l4179
  7750                           
  7751                           ;usb.c: 1396: app_usb_reset_callback();
  7752  0947  319D  254A  3189   	fcall	_app_usb_reset_callback
  7753                           
  7754                           ;usb.c: 1398: usb_init();
  7755  094A  3192  22AA  3189   	fcall	i1_usb_init
  7756                           
  7757                           ;usb.c: 1399: UIRbits.URSTIF = 0;
  7758  094D  003D               	movlb	29	; select bank29
  7759  094E  1010               	bcf	16,0	;volatile
  7760  094F                     i1l4179:	
  7761                           
  7762                           ;usb.c: 1401: };usb.c: 1403: if (UIRbits.STALLIF) {
  7763  094F  1E90               	btfss	16,5	;volatile
  7764  0950  297B               	goto	i1l377
  7765                           
  7766                           ;usb.c: 1409: int i;;usb.c: 1410: for (i = 1; i <= 1; i++) {
  7767  0951  3001               	movlw	1
  7768  0952  0021               	movlb	1	; select bank1
  7769  0953  00AA               	movwf	usb_service@i^(0+128)
  7770  0954  3000               	movlw	0
  7771  0955  00AB               	movwf	(usb_service@i^(0+128)+1)
  7772  0956                     i1l4185:	
  7773                           
  7774                           ;usb.c: 1411: volatile UEP1bits_t *ep = ((UEP1bits_t*) (&UEP0 + 1 * (i)));
  7775  0956  3098               	movlw	152
  7776  0957  0021               	movlb	1	; select bank1
  7777  0958  00A3               	movwf	??_usb_service^(0+128)
  7778  0959  300E               	movlw	14
  7779  095A  00A4               	movwf	(??_usb_service^(0+128)+1)
  7780  095B  082A               	movf	usb_service@i^(0+128),w
  7781  095C  0723               	addwf	??_usb_service^(0+128),w
  7782  095D  00A5               	movwf	(??_usb_service+2)^(0+128)
  7783  095E  082B               	movf	(usb_service@i+1)^(0+128),w
  7784  095F  3D24               	addwfc	(??_usb_service+1)^(0+128),w
  7785  0960  00A6               	movwf	(??_usb_service+3)^(0+128)
  7786  0961  0825               	movf	(??_usb_service+2)^(0+128),w
  7787  0962  00A8               	movwf	usb_service@ep^(0+128)
  7788  0963  0826               	movf	(??_usb_service+3)^(0+128),w
  7789  0964  00A9               	movwf	(usb_service@ep+1)^(0+128)
  7790                           
  7791                           ;usb.c: 1412: ep->EPSTALL = 0;
  7792  0965  0828               	movf	usb_service@ep^(0+128),w
  7793  0966  0086               	movwf	6
  7794  0967  0829               	movf	(usb_service@ep+1)^(0+128),w
  7795  0968  0087               	movwf	7
  7796  0969  1001               	bcf	1,0
  7797  096A  3001               	movlw	1
  7798  096B  07AA               	addwf	usb_service@i^(0+128),f
  7799  096C  3000               	movlw	0
  7800  096D  3DAB               	addwfc	(usb_service@i+1)^(0+128),f
  7801  096E  082B               	movf	(usb_service@i+1)^(0+128),w
  7802  096F  3A80               	xorlw	128
  7803  0970  00A3               	movwf	??_usb_service^(0+128)
  7804  0971  3080               	movlw	128
  7805  0972  0223               	subwf	??_usb_service^(0+128),w
  7806  0973  1D03               	skipz
  7807  0974  2977               	goto	u436_25
  7808  0975  3002               	movlw	2
  7809  0976  022A               	subwf	usb_service@i^(0+128),w
  7810  0977                     u436_25:	
  7811  0977  1C03               	skipc
  7812  0978  2956               	goto	i1l4185
  7813                           
  7814                           ;usb.c: 1413: };usb.c: 1415: UIRbits.STALLIF = 0;
  7815  0979  003D               	movlb	29	; select bank29
  7816  097A  1290               	bcf	16,5	;volatile
  7817  097B                     i1l377:	
  7818                           
  7819                           ;usb.c: 1416: };usb.c: 1420: if (UIRbits.TRNIF && UIEbits.TRNIE) {
  7820  097B  1990               	btfsc	16,3	;volatile
  7821  097C  1D92               	btfss	18,3	;volatile
  7822  097D  2A43               	goto	i1l380
  7823                           
  7824                           ;usb.c: 1427: if (USTATbits.ENDP == 0 && USTATbits.DIR == 0 ) {
  7825  097E  0C0F               	rrf	15,w	;volatile
  7826  097F  0021               	movlb	1	; select bank1
  7827  0980  00A3               	movwf	??_usb_service^(0+128)
  7828  0981  0CA3               	rrf	??_usb_service^(0+128),f
  7829  0982  0C23               	rrf	??_usb_service^(0+128),w
  7830  0983  390F               	andlw	15
  7831  0984  3A00               	xorlw	0
  7832  0985  1D03               	skipz
  7833  0986  29AC               	goto	i1l4213
  7834  0987  003D               	movlb	29	; select bank29
  7835  0988  190F               	btfsc	15,2	;volatile
  7836  0989  29AC               	goto	i1l4213
  7837                           
  7838                           ;usb.c: 1434: uint8_t pid = bds[0].STAT.PID;
  7839  098A  0020               	movlb	0	; select bank0
  7840  098B  0C20               	rrf	32,w
  7841  098C  0C89               	rrf	9,f
  7842  098D  390F               	andlw	15
  7843  098E  0021               	movlb	1	; select bank1
  7844  098F  00A3               	movwf	??_usb_service^(0+128)
  7845  0990  0823               	movf	??_usb_service^(0+128),w
  7846  0991  00AC               	movwf	usb_service@pid^(0+128)
  7847                           
  7848                           ;usb.c: 1436: if (pid == PID_SETUP) {
  7849  0992  300D               	movlw	13
  7850  0993  062C               	xorwf	usb_service@pid^(0+128),w
  7851  0994  1D03               	btfss	3,2
  7852  0995  299A               	goto	i1l4203
  7853                           
  7854                           ;usb.c: 1437: handle_ep0_setup();
  7855  0996  3191  21F3  3189   	fcall	_handle_ep0_setup
  7856                           
  7857                           ;usb.c: 1438: }
  7858  0999  29A8               	goto	i1l383
  7859  099A                     i1l4203:	
  7860                           
  7861                           ;usb.c: 1439: else if (pid == PID_IN) {
  7862  099A  3009               	movlw	9
  7863  099B  062C               	xorwf	usb_service@pid^(0+128),w
  7864  099C  1903               	btfsc	3,2
  7865  099D  29A8               	goto	i1l383
  7866                           
  7867                           ;usb.c: 1443: else if (pid == PID_OUT) {
  7868  099E  032C               	decf	usb_service@pid^(0+128),w
  7869  099F  1D03               	btfss	3,2
  7870  09A0  29A5               	goto	i1l4211
  7871                           
  7872                           ;usb.c: 1444: handle_ep0_out();
  7873  09A1  3195  2570  3189   	fcall	_handle_ep0_out
  7874                           
  7875                           ;usb.c: 1445: }
  7876  09A4  29A8               	goto	i1l383
  7877  09A5                     i1l4211:	
  7878                           
  7879                           ;usb.c: 1446: else {;usb.c: 1448: ;;usb.c: 1449: stall_ep0();
  7880  09A5  319D  25AB  3189   	fcall	_stall_ep0
  7881  09A8                     i1l383:	
  7882                           
  7883                           ;usb.c: 1450: };usb.c: 1452: reset_bd0_out();
  7884  09A8  319D  2593  3189   	fcall	_reset_bd0_out
  7885                           
  7886                           ;usb.c: 1453: }
  7887  09AB  2A41               	goto	i1l388
  7888  09AC                     i1l4213:	
  7889                           
  7890                           ;usb.c: 1454: else if (USTATbits.ENDP == 0 && USTATbits.DIR == 1 ) {
  7891  09AC  003D               	movlb	29	; select bank29
  7892  09AD  0C0F               	rrf	15,w	;volatile
  7893  09AE  0021               	movlb	1	; select bank1
  7894  09AF  00A3               	movwf	??_usb_service^(0+128)
  7895  09B0  0CA3               	rrf	??_usb_service^(0+128),f
  7896  09B1  0C23               	rrf	??_usb_service^(0+128),w
  7897  09B2  390F               	andlw	15
  7898  09B3  3A00               	xorlw	0
  7899  09B4  1D03               	skipz
  7900  09B5  29BD               	goto	i1l4219
  7901  09B6  003D               	movlb	29	; select bank29
  7902  09B7  1D0F               	btfss	15,2	;volatile
  7903  09B8  29BD               	goto	i1l4219
  7904                           
  7905                           ;usb.c: 1459: handle_ep0_in();
  7906  09B9  3194  24E2  3189   	fcall	_handle_ep0_in
  7907                           
  7908                           ;usb.c: 1460: }
  7909  09BC  2A41               	goto	i1l388
  7910  09BD                     i1l4219:	
  7911                           
  7912                           ;usb.c: 1461: else if (USTATbits.ENDP > 0 && USTATbits.ENDP <= 1) {
  7913  09BD  003D               	movlb	29	; select bank29
  7914  09BE  0C0F               	rrf	15,w	;volatile
  7915  09BF  0021               	movlb	1	; select bank1
  7916  09C0  00A3               	movwf	??_usb_service^(0+128)
  7917  09C1  0CA3               	rrf	??_usb_service^(0+128),f
  7918  09C2  0C23               	rrf	??_usb_service^(0+128),w
  7919  09C3  390F               	andlw	15
  7920  09C4  3A00               	xorlw	0
  7921  09C5  1903               	skipnz
  7922  09C6  2A41               	goto	i1l388
  7923  09C7  003D               	movlb	29	; select bank29
  7924  09C8  0C0F               	rrf	15,w	;volatile
  7925  09C9  0021               	movlb	1	; select bank1
  7926  09CA  00A3               	movwf	??_usb_service^(0+128)
  7927  09CB  0CA3               	rrf	??_usb_service^(0+128),f
  7928  09CC  0C23               	rrf	??_usb_service^(0+128),w
  7929  09CD  390F               	andlw	15
  7930  09CE  00A4               	movwf	(??_usb_service+1)^(0+128)
  7931  09CF  3002               	movlw	2
  7932  09D0  0224               	subwf	(??_usb_service+1)^(0+128),w
  7933  09D1  1803               	skipnc
  7934  09D2  2A41               	goto	i1l388
  7935                           
  7936                           ;usb.c: 1462: if (USTATbits.DIR == 1 ) {
  7937  09D3  003D               	movlb	29	; select bank29
  7938  09D4  1D0F               	btfss	15,2	;volatile
  7939  09D5  2A0C               	goto	i1l4231
  7940                           
  7941                           ;usb.c: 1464: ;;usb.c: 1465: if (ep_buf[USTATbits.ENDP].flags & 0x2)
  7942  09D6  0C0F               	rrf	15,w	;volatile
  7943  09D7  0021               	movlb	1	; select bank1
  7944  09D8  00A3               	movwf	??_usb_service^(0+128)
  7945  09D9  0CA3               	rrf	??_usb_service^(0+128),f
  7946  09DA  0C23               	rrf	??_usb_service^(0+128),w
  7947  09DB  390F               	andlw	15
  7948  09DC  00A4               	movwf	(??_usb_service+1)^(0+128)
  7949  09DD  01A5               	clrf	((??_usb_service+1)^(0+128)+1)
  7950  09DE  0824               	movf	(??_usb_service+1)^(0+128),w
  7951  09DF  00F0               	movwf	i1___wmul@multiplier
  7952  09E0  0825               	movf	(??_usb_service+2)^(0+128),w
  7953  09E1  00F1               	movwf	i1___wmul@multiplier+1
  7954  09E2  3007               	movlw	7
  7955  09E3  00F2               	movwf	i1___wmul@multiplicand
  7956  09E4  3000               	movlw	0
  7957  09E5  00F3               	movwf	i1___wmul@multiplicand+1
  7958  09E6  319E  2678  3189   	fcall	i1___wmul
  7959  09E9  305E               	movlw	low (_ep_buf+6)
  7960  09EA  0021               	movlb	1	; select bank1
  7961  09EB  00A6               	movwf	(??_usb_service+3)^(0+128)
  7962  09EC  3002               	movlw	high (_ep_buf+6)
  7963  09ED  00A7               	movwf	((??_usb_service+3)^(0+128)+1)
  7964  09EE  0870               	movf	?i1___wmul,w
  7965  09EF  0726               	addwf	(??_usb_service+3)^(0+128),w
  7966  09F0  0086               	movwf	6
  7967  09F1  0871               	movf	?i1___wmul+1,w
  7968  09F2  3D27               	addwfc	(??_usb_service+4)^(0+128),w
  7969  09F3  0087               	movwf	7
  7970  09F4  1C81               	btfss	1,1
  7971  09F5  2A01               	goto	i1l4229
  7972                           
  7973                           ;usb.c: 1466: stall_ep_in(USTATbits.ENDP);
  7974  09F6  003D               	movlb	29	; select bank29
  7975  09F7  0C0F               	rrf	15,w	;volatile
  7976  09F8  0021               	movlb	1	; select bank1
  7977  09F9  00A3               	movwf	??_usb_service^(0+128)
  7978  09FA  0CA3               	rrf	??_usb_service^(0+128),f
  7979  09FB  0C23               	rrf	??_usb_service^(0+128),w
  7980  09FC  390F               	andlw	15
  7981  09FD  3191  2131  3189   	fcall	_stall_ep_in
  7982  0A00  2A41               	goto	i1l388
  7983  0A01                     i1l4229:	
  7984                           
  7985                           ;usb.c: 1467: else {;usb.c: 1469: app_in_transaction_complete_callback(USTATbits.ENDP);
  7986  0A01  003D               	movlb	29	; select bank29
  7987  0A02  0C0F               	rrf	15,w	;volatile
  7988  0A03  0021               	movlb	1	; select bank1
  7989  0A04  00A3               	movwf	??_usb_service^(0+128)
  7990  0A05  0CA3               	rrf	??_usb_service^(0+128),f
  7991  0A06  0C23               	rrf	??_usb_service^(0+128),w
  7992  0A07  390F               	andlw	15
  7993  0A08  319D  2547  3189   	fcall	_app_in_transaction_complete_callback
  7994  0A0B  2A41               	goto	i1l388
  7995  0A0C                     i1l4231:	
  7996                           
  7997                           ;usb.c: 1473: else {;usb.c: 1475: ;;usb.c: 1476: if (ep_buf[USTATbits.ENDP].flags & 0x1)
  7998  0A0C  0C0F               	rrf	15,w	;volatile
  7999  0A0D  0021               	movlb	1	; select bank1
  8000  0A0E  00A3               	movwf	??_usb_service^(0+128)
  8001  0A0F  0CA3               	rrf	??_usb_service^(0+128),f
  8002  0A10  0C23               	rrf	??_usb_service^(0+128),w
  8003  0A11  390F               	andlw	15
  8004  0A12  00A4               	movwf	(??_usb_service+1)^(0+128)
  8005  0A13  01A5               	clrf	((??_usb_service+1)^(0+128)+1)
  8006  0A14  0824               	movf	(??_usb_service+1)^(0+128),w
  8007  0A15  00F0               	movwf	i1___wmul@multiplier
  8008  0A16  0825               	movf	(??_usb_service+2)^(0+128),w
  8009  0A17  00F1               	movwf	i1___wmul@multiplier+1
  8010  0A18  3007               	movlw	7
  8011  0A19  00F2               	movwf	i1___wmul@multiplicand
  8012  0A1A  3000               	movlw	0
  8013  0A1B  00F3               	movwf	i1___wmul@multiplicand+1
  8014  0A1C  319E  2678  3189   	fcall	i1___wmul
  8015  0A1F  305E               	movlw	low (_ep_buf+6)
  8016  0A20  0021               	movlb	1	; select bank1
  8017  0A21  00A6               	movwf	(??_usb_service+3)^(0+128)
  8018  0A22  3002               	movlw	high (_ep_buf+6)
  8019  0A23  00A7               	movwf	((??_usb_service+3)^(0+128)+1)
  8020  0A24  0870               	movf	?i1___wmul,w
  8021  0A25  0726               	addwf	(??_usb_service+3)^(0+128),w
  8022  0A26  0086               	movwf	6
  8023  0A27  0871               	movf	?i1___wmul+1,w
  8024  0A28  3D27               	addwfc	(??_usb_service+4)^(0+128),w
  8025  0A29  0087               	movwf	7
  8026  0A2A  1C01               	btfss	1,0
  8027  0A2B  2A37               	goto	i1l4235
  8028                           
  8029                           ;usb.c: 1477: stall_ep_out(USTATbits.ENDP);
  8030  0A2C  003D               	movlb	29	; select bank29
  8031  0A2D  0C0F               	rrf	15,w	;volatile
  8032  0A2E  0021               	movlb	1	; select bank1
  8033  0A2F  00A3               	movwf	??_usb_service^(0+128)
  8034  0A30  0CA3               	rrf	??_usb_service^(0+128),f
  8035  0A31  0C23               	rrf	??_usb_service^(0+128),w
  8036  0A32  390F               	andlw	15
  8037  0A33  319F  2701  3189   	fcall	_stall_ep_out
  8038  0A36  2A41               	goto	i1l388
  8039  0A37                     i1l4235:	
  8040                           
  8041                           ;usb.c: 1478: else {;usb.c: 1480: app_out_transaction_callback(USTATbits.ENDP);
  8042  0A37  003D               	movlb	29	; select bank29
  8043  0A38  0C0F               	rrf	15,w	;volatile
  8044  0A39  0021               	movlb	1	; select bank1
  8045  0A3A  00A3               	movwf	??_usb_service^(0+128)
  8046  0A3B  0CA3               	rrf	??_usb_service^(0+128),f
  8047  0A3C  0C23               	rrf	??_usb_service^(0+128),w
  8048  0A3D  390F               	andlw	15
  8049  0A3E  319D  2548  3189   	fcall	_app_out_transaction_callback
  8050  0A41                     i1l388:	
  8051                           
  8052                           ;usb.c: 1489: };usb.c: 1491: UIRbits.TRNIF = 0;
  8053  0A41  003D               	movlb	29	; select bank29
  8054  0A42  1190               	bcf	16,3	;volatile
  8055  0A43                     i1l380:	
  8056                           
  8057                           ;usb.c: 1492: };usb.c: 1495: if (UIRbits.SOFIF) {
  8058  0A43  1F10               	btfss	16,6	;volatile
  8059  0A44  2A49               	goto	i1l4241
  8060                           
  8061                           ;usb.c: 1497: app_start_of_frame_callback();
  8062  0A45  319D  2549  3189   	fcall	_app_start_of_frame_callback
  8063                           
  8064                           ;usb.c: 1499: UIRbits.SOFIF = 0;
  8065  0A48  1310               	bcf	16,6	;volatile
  8066  0A49                     i1l4241:	
  8067                           
  8068                           ;usb.c: 1500: };usb.c: 1503: if (PIR2bits.USBIF) {
  8069  0A49  0020               	movlb	0	; select bank0
  8070  0A4A  1D12               	btfss	18,2	;volatile
  8071  0A4B  0008               	return
  8072                           
  8073                           ;usb.c: 1504: PIR2bits.USBIF = 0;
  8074  0A4C  1112               	bcf	18,2	;volatile
  8075  0A4D  0008               	return
  8076  0A4E                     __end_of_usb_service:	
  8077                           
  8078                           	psect	text37
  8079  12AA                     __ptext37:	
  8080 ;; *************** function i1_usb_init *****************
  8081 ;; Defined at:
  8082 ;;		line 561 in file "../../../usb/src/usb.c"
  8083 ;; Parameters:    Size  Location     Type
  8084 ;;		None
  8085 ;; Auto vars:     Size  Location     Type
  8086 ;;  usb_init        2   22[BANK0 ] PTR volatile struct .
  8087 ;;		 -> UEP0(1), 
  8088 ;;  usb_init        1   21[BANK0 ] unsigned char 
  8089 ;; Return value:  Size  Location     Type
  8090 ;;                  1    wreg      void 
  8091 ;; Registers used:
  8092 ;;		wreg, fsr1l, fsr1h, status,2, status,0, pclath, cstack
  8093 ;; Tracked objects:
  8094 ;;		On entry : 1F/1D
  8095 ;;		On exit  : 1F/1
  8096 ;;		Unchanged: 0/0
  8097 ;; Data sizes:     COMMON   BANK0   BANK1   BANK2   BANK3   BANK4   BANK5   BANK6   BANK7   BANK8   BANK9  BANK10  BANK1
      +1  BANK12
  8098 ;;      Params:         0       0       0       0       0       0       0       0       0       0       0       0       
      +0       0
  8099 ;;      Locals:         0       3       0       0       0       0       0       0       0       0       0       0       
      +0       0
  8100 ;;      Temps:          2       0       0       0       0       0       0       0       0       0       0       0       
      +0       0
  8101 ;;      Totals:         2       3       0       0       0       0       0       0       0       0       0       0       
      +0       0
  8102 ;;Total ram usage:        5 bytes
  8103 ;; Hardware stack levels used:    1
  8104 ;; Hardware stack levels required when called:    3
  8105 ;; This function calls:
  8106 ;;		i1_init_endpoints
  8107 ;;		i1_memset
  8108 ;;		i1_reset_ep0_data_stage
  8109 ;; This function is called by:
  8110 ;;		_usb_service
  8111 ;; This function uses a non-reentrant model
  8112 ;;
  8113                           
  8114                           
  8115                           ;psect for function i1_usb_init
  8116  12AA                     i1_usb_init:	
  8117                           
  8118                           ;incstack = 0
  8119                           ; Regs used in i1_usb_init: [wreg+fsr1l+fsr1h+status,2+status,0+pclath+cstack]
  8120                           ;usb.c: 563: uint8_t i;;usb.c: 567: do { UCFGbits.PPB0 = 0 & 1; UCFGbits.PPB1 = (0 & 2)?
      +                           1: 0; } while (0);
  8121  12AA  1011               	bcf	17,0	;volatile
  8122  12AB  1091               	bcf	17,1	;volatile
  8123                           
  8124                           ;usb.c: 573: UIE = 0x0;
  8125  12AC  0192               	clrf	18	;volatile
  8126                           
  8127                           ;usb.c: 574: UEIE = 0x0;
  8128  12AD  0197               	clrf	23	;volatile
  8129                           
  8130                           ;usb.c: 576: UCONbits.USBEN = 1;
  8131  12AE  158E               	bsf	14,3	;volatile
  8132                           
  8133                           ;usb.c: 584: UCFGbits.UPUEN = 1;
  8134  12AF  1611               	bsf	17,4	;volatile
  8135                           
  8136                           ;usb.c: 592: UCFGbits.FSEN = 1;
  8137  12B0  1511               	bsf	17,2	;volatile
  8138                           
  8139                           ;usb.c: 595: UIRbits.TRNIF = 0;
  8140  12B1  1190               	bcf	16,3	;volatile
  8141                           
  8142                           ;usb.c: 596: UIRbits.TRNIF = 0;
  8143  12B2  1190               	bcf	16,3	;volatile
  8144                           
  8145                           ;usb.c: 597: UIRbits.TRNIF = 0;
  8146  12B3  1190               	bcf	16,3	;volatile
  8147                           
  8148                           ;usb.c: 598: UIRbits.TRNIF = 0;
  8149  12B4  1190               	bcf	16,3	;volatile
  8150                           
  8151                           ;usb.c: 600: UIR = 0;
  8152  12B5  0190               	clrf	16	;volatile
  8153                           
  8154                           ;usb.c: 603: UIEbits.TRNIE = 1;
  8155  12B6  1592               	bsf	18,3	;volatile
  8156                           
  8157                           ;usb.c: 604: UIEbits.STALLIE = 1;
  8158  12B7  1692               	bsf	18,5	;volatile
  8159                           
  8160                           ;usb.c: 605: UIEbits.URSTIE = 1;
  8161  12B8  1412               	bsf	18,0	;volatile
  8162                           
  8163                           ;usb.c: 607: UIEbits.SOFIE = 1;
  8164  12B9  1712               	bsf	18,6	;volatile
  8165                           
  8166                           ;usb.c: 650: memset(((UEP1bits_t*) (&UEP0 + 1 * (0))), 0x0, sizeof(*((UEP1bits_t*) (&UEP
      +                          0 + 1 * (0)))) * 16);
  8167  12BA  3098               	movlw	152
  8168  12BB  00F0               	movwf	i1memset@p1
  8169  12BC  300E               	movlw	14
  8170  12BD  00F1               	movwf	i1memset@p1+1
  8171  12BE  3000               	movlw	0
  8172  12BF  00F2               	movwf	i1memset@c
  8173  12C0  00F3               	movwf	i1memset@c+1
  8174  12C1  3010               	movlw	16
  8175  12C2  00F4               	movwf	i1memset@n
  8176  12C3  3000               	movlw	0
  8177  12C4  00F5               	movwf	i1memset@n+1
  8178  12C5  319E  2660  3192   	fcall	i1_memset
  8179                           
  8180                           ;usb.c: 653: ((UEP1bits_t*) (&UEP0 + 1 * (0)))->EPHSHK = 1;
  8181  12C8  003D               	movlb	29	; select bank29
  8182  12C9  1618               	bsf	24,4
  8183                           
  8184                           ;usb.c: 654: ((UEP1bits_t*) (&UEP0 + 1 * (0)))->EPCONDIS = 0;
  8185  12CA  1198               	bcf	24,3
  8186                           
  8187                           ;usb.c: 655: ((UEP1bits_t*) (&UEP0 + 1 * (0)))->EPOUTEN = 1;
  8188  12CB  1518               	bsf	24,2
  8189                           
  8190                           ;usb.c: 656: ((UEP1bits_t*) (&UEP0 + 1 * (0)))->EPINEN = 1;
  8191  12CC  1498               	bsf	24,1
  8192                           
  8193                           ;usb.c: 657: ((UEP1bits_t*) (&UEP0 + 1 * (0)))->EPSTALL = 0;
  8194  12CD  1018               	bcf	24,0
  8195                           
  8196                           ;usb.c: 659: for (i = 1; i <= 1; i++) {
  8197  12CE  0020               	movlb	0	; select bank0
  8198  12CF  01C5               	clrf	i1usb_init@i
  8199  12D0  0AC5               	incf	i1usb_init@i,f
  8200  12D1                     i1l4081:	
  8201                           
  8202                           ;usb.c: 660: volatile UEP1bits_t *ep = ((UEP1bits_t*) (&UEP0 + 1 * (i)));
  8203  12D1  0845               	movf	i1usb_init@i,w
  8204  12D2  3E98               	addlw	152
  8205  12D3  00FC               	movwf	??i1_usb_init
  8206  12D4  01FD               	clrf	??i1_usb_init+1
  8207  12D5  300E               	movlw	14
  8208  12D6  3DFD               	addwfc	??i1_usb_init+1,f
  8209  12D7  087C               	movf	??i1_usb_init,w
  8210  12D8  00C6               	movwf	i1usb_init@ep
  8211  12D9  087D               	movf	??i1_usb_init+1,w
  8212  12DA  00C7               	movwf	i1usb_init@ep+1
  8213                           
  8214                           ;usb.c: 661: ep->EPHSHK = 1;
  8215  12DB  0846               	movf	i1usb_init@ep,w
  8216  12DC  0086               	movwf	6
  8217  12DD  0847               	movf	i1usb_init@ep+1,w
  8218  12DE  0087               	movwf	7
  8219  12DF  1601               	bsf	1,4
  8220                           
  8221                           ;usb.c: 662: ep->EPCONDIS = 1;
  8222  12E0  0846               	movf	i1usb_init@ep,w
  8223  12E1  0086               	movwf	6
  8224  12E2  0847               	movf	i1usb_init@ep+1,w
  8225  12E3  0087               	movwf	7
  8226  12E4  1581               	bsf	1,3
  8227                           
  8228                           ;usb.c: 663: ep->EPOUTEN = 1;
  8229  12E5  0846               	movf	i1usb_init@ep,w
  8230  12E6  0086               	movwf	6
  8231  12E7  0847               	movf	i1usb_init@ep+1,w
  8232  12E8  0087               	movwf	7
  8233  12E9  1501               	bsf	1,2
  8234                           
  8235                           ;usb.c: 664: ep->EPINEN = 1;
  8236  12EA  0846               	movf	i1usb_init@ep,w
  8237  12EB  0086               	movwf	6
  8238  12EC  0847               	movf	i1usb_init@ep+1,w
  8239  12ED  0087               	movwf	7
  8240  12EE  1481               	bsf	1,1
  8241                           
  8242                           ;usb.c: 665: ep->EPSTALL = 0;
  8243  12EF  0846               	movf	i1usb_init@ep,w
  8244  12F0  0086               	movwf	6
  8245  12F1  0847               	movf	i1usb_init@ep+1,w
  8246  12F2  0087               	movwf	7
  8247  12F3  1001               	bcf	1,0
  8248  12F4  3001               	movlw	1
  8249  12F5  00FC               	movwf	??i1_usb_init
  8250  12F6  087C               	movf	??i1_usb_init,w
  8251  12F7  07C5               	addwf	i1usb_init@i,f
  8252  12F8  3002               	movlw	2
  8253  12F9  0245               	subwf	i1usb_init@i,w
  8254  12FA  1C03               	skipc
  8255  12FB  2AD1               	goto	i1l4081
  8256                           
  8257                           ;usb.c: 666: };usb.c: 669: UADDR = 0x0;
  8258  12FC  003D               	movlb	29	; select bank29
  8259  12FD  0196               	clrf	22	;volatile
  8260                           
  8261                           ;usb.c: 670: addr_pending = 0;
  8262  12FE  0023               	movlb	3	; select bank3
  8263  12FF  01EF               	clrf	_addr_pending^(0+384)
  8264                           
  8265                           ;usb.c: 671: g_configuration = 0;
  8266  1300  0020               	movlb	0	; select bank0
  8267  1301  01EF               	clrf	_g_configuration
  8268                           
  8269                           ;usb.c: 673: init_endpoints();
  8270  1302  318B  2376  3192   	fcall	i1_init_endpoints
  8271                           
  8272                           ;usb.c: 683: reset_ep0_data_stage();
  8273  1305  319D  25B5         	fcall	i1_reset_ep0_data_stage
  8274                           
  8275                           ;usb.c: 686: PIE2bits.USBIE = 1;
  8276  1307  1512               	bsf	18,2	;volatile
  8277  1308  0008               	return
  8278  1309                     __end_ofi1_usb_init:	
  8279                           
  8280                           	psect	text38
  8281  1D93                     __ptext38:	
  8282 ;; *************** function _reset_bd0_out *****************
  8283 ;; Defined at:
  8284 ;;		line 692 in file "../../../usb/src/usb.c"
  8285 ;; Parameters:    Size  Location     Type
  8286 ;;		None
  8287 ;; Auto vars:     Size  Location     Type
  8288 ;;		None
  8289 ;; Return value:  Size  Location     Type
  8290 ;;                  1    wreg      void 
  8291 ;; Registers used:
  8292 ;;		wreg
  8293 ;; Tracked objects:
  8294 ;;		On entry : 2/1D
  8295 ;;		On exit  : 1F/0
  8296 ;;		Unchanged: 0/0
  8297 ;; Data sizes:     COMMON   BANK0   BANK1   BANK2   BANK3   BANK4   BANK5   BANK6   BANK7   BANK8   BANK9  BANK10  BANK1
      +1  BANK12
  8298 ;;      Params:         0       0       0       0       0       0       0       0       0       0       0       0       
      +0       0
  8299 ;;      Locals:         0       0       0       0       0       0       0       0       0       0       0       0       
      +0       0
  8300 ;;      Temps:          1       0       0       0       0       0       0       0       0       0       0       0       
      +0       0
  8301 ;;      Totals:         1       0       0       0       0       0       0       0       0       0       0       0       
      +0       0
  8302 ;;Total ram usage:        1 bytes
  8303 ;; Hardware stack levels used:    1
  8304 ;; This function calls:
  8305 ;;		Nothing
  8306 ;; This function is called by:
  8307 ;;		_usb_service
  8308 ;; This function uses a non-reentrant model
  8309 ;;
  8310                           
  8311                           
  8312                           ;psect for function _reset_bd0_out
  8313  1D93                     _reset_bd0_out:	
  8314                           
  8315                           ;incstack = 0
  8316                           ; Regs used in _reset_bd0_out: [wreg]
  8317                           ;usb.c: 700: do { (bds[0]).BDnCNT = (8); (bds[0]).STAT.BDnSTAT = (0x80); } while(0);
  8318  1D93  3008               	movlw	8
  8319  1D94  0020               	movlb	0	; select bank0
  8320  1D95  00A1               	movwf	33
  8321  1D96  3080               	movlw	128
  8322  1D97  00F0               	movwf	??_reset_bd0_out
  8323  1D98  0870               	movf	??_reset_bd0_out,w
  8324  1D99  00A0               	movwf	32
  8325  1D9A  0008               	return
  8326  1D9B                     __end_of_reset_bd0_out:	
  8327                           
  8328                           	psect	text39
  8329  11F3                     __ptext39:	
  8330 ;; *************** function _handle_ep0_setup *****************
  8331 ;; Defined at:
  8332 ;;		line 1149 in file "../../../usb/src/usb.c"
  8333 ;; Parameters:    Size  Location     Type
  8334 ;;		None
  8335 ;; Auto vars:     Size  Location     Type
  8336 ;;  setup           2    1[BANK1 ] PTR struct setup_packet
  8337 ;;		 -> ep_buffers(144), 
  8338 ;;  res             1    0[BANK1 ] char 
  8339 ;; Return value:  Size  Location     Type
  8340 ;;                  1    wreg      void 
  8341 ;; Registers used:
  8342 ;;		wreg, fsr0l, fsr0h, fsr1l, fsr1h, status,2, status,0, pclath, cstack
  8343 ;; Tracked objects:
  8344 ;;		On entry : 1F/1
  8345 ;;		On exit  : 1F/1D
  8346 ;;		Unchanged: 0/0
  8347 ;; Data sizes:     COMMON   BANK0   BANK1   BANK2   BANK3   BANK4   BANK5   BANK6   BANK7   BANK8   BANK9  BANK10  BANK1
      +1  BANK12
  8348 ;;      Params:         0       0       0       0       0       0       0       0       0       0       0       0       
      +0       0
  8349 ;;      Locals:         0       0       3       0       0       0       0       0       0       0       0       0       
      +0       0
  8350 ;;      Temps:          0       1       0       0       0       0       0       0       0       0       0       0       
      +0       0
  8351 ;;      Totals:         0       1       3       0       0       0       0       0       0       0       0       0       
      +0       0
  8352 ;;Total ram usage:        4 bytes
  8353 ;; Hardware stack levels used:    1
  8354 ;; Hardware stack levels required when called:    7
  8355 ;; This function calls:
  8356 ;;		Absolute function
  8357 ;;		_app_unknown_setup_request_callback
  8358 ;;		_clear_ep0_stall
  8359 ;;		_get_report_callback
  8360 ;;		_handle_standard_control_request
  8361 ;;		_stall_ep0
  8362 ;;		i1_reset_ep0_data_stage
  8363 ;; This function is called by:
  8364 ;;		_usb_service
  8365 ;; This function uses a non-reentrant model
  8366 ;;
  8367                           
  8368                           
  8369                           ;psect for function _handle_ep0_setup
  8370  11F3                     _handle_ep0_setup:	
  8371                           
  8372                           ;usb.c: 1151: struct setup_packet *setup;;usb.c: 1158: setup = (struct setup_packet*) ep
      +                          0_buf.out;
  8373                           
  8374                           ;incstack = 0
  8375                           ; Regs used in _handle_ep0_setup: [wreg-fsr1h+status,2+status,0+pclath+cstack]
  8376  11F3  0023               	movlb	3	; select bank3
  8377  11F4  086B               	movf	(_ep0_buf+1)^(0+384),w
  8378  11F5  0021               	movlb	1	; select bank1
  8379  11F6  00A2               	movwf	(handle_ep0_setup@setup+1)^(0+128)
  8380  11F7  0023               	movlb	3	; select bank3
  8381  11F8  086A               	movf	_ep0_buf^(0+384),w
  8382  11F9  0021               	movlb	1	; select bank1
  8383  11FA  00A1               	movwf	handle_ep0_setup@setup^(0+128)
  8384                           
  8385                           ;usb.c: 1161: ep0_data_stage_direc = setup->REQUEST.direction;
  8386  11FB  0821               	movf	handle_ep0_setup@setup^(0+128),w
  8387  11FC  0086               	movwf	6
  8388  11FD  0822               	movf	(handle_ep0_setup@setup+1)^(0+128),w
  8389  11FE  0087               	movwf	7
  8390  11FF  3000               	movlw	0
  8391  1200  1B81               	btfsc	1,7
  8392  1201  3001               	movlw	1
  8393  1202  00BC               	movwf	_ep0_data_stage_direc^(0+128)
  8394                           
  8395                           ;usb.c: 1162: int8_t res;;usb.c: 1168: clear_ep0_stall();
  8396  1203  319D  2584  3191   	fcall	_clear_ep0_stall
  8397                           
  8398                           ;usb.c: 1189: if (bds[1].STAT.UOWN) {
  8399  1206  1FA4               	btfss	36,7
  8400  1207  2A0D               	goto	i1l3773
  8401  1208  3008               	movlw	8
  8402  1209  00ED               	movwf	??_handle_ep0_setup
  8403  120A  086D               	movf	??_handle_ep0_setup,w
  8404  120B  00A5               	movwf	37
  8405  120C  01A4               	clrf	36
  8406  120D                     i1l3773:	
  8407                           
  8408                           ;usb.c: 1191: };usb.c: 1194: if (ep0_data_stage_buf_remaining) {
  8409  120D  0021               	movlb	1	; select bank1
  8410  120E  0836               	movf	_ep0_data_stage_buf_remaining^(0+128),w
  8411  120F  0437               	iorwf	(_ep0_data_stage_buf_remaining+1)^(0+128),w
  8412  1210  1903               	btfsc	3,2
  8413  1211  2A25               	goto	i1l3781
  8414                           
  8415                           ;usb.c: 1199: if (ep0_data_stage_callback)
  8416  1212  083A               	movf	_ep0_data_stage_callback^(0+128),w
  8417  1213  043B               	iorwf	(_ep0_data_stage_callback+1)^(0+128),w
  8418  1214  1903               	btfsc	3,2
  8419  1215  2A22               	goto	i1l3779
  8420                           
  8421                           ;usb.c: 1200: ep0_data_stage_callback(0 , ep0_data_stage_context);
  8422  1216  01F0               	clrf	get_report_callback@transfer_ok
  8423  1217  083D               	movf	_ep0_data_stage_context^(0+128),w
  8424  1218  0020               	movlb	0	; select bank0
  8425  1219  00ED               	movwf	??_handle_ep0_setup
  8426  121A  086D               	movf	??_handle_ep0_setup,w
  8427  121B  00F1               	movwf	get_report_callback@context
  8428  121C  0021               	movlb	1	; select bank1
  8429  121D  083B               	movf	(_ep0_data_stage_callback+1)^(0+128),w
  8430  121E  008A               	movwf	10
  8431  121F  083A               	movf	_ep0_data_stage_callback^(0+128),w
  8432  1220  000A               	callw
  8433  1221  3191               	pagesel	$
  8434  1222                     i1l3779:	
  8435                           
  8436                           ;usb.c: 1202: reset_ep0_data_stage();
  8437  1222  319D  25B5  3191   	fcall	i1_reset_ep0_data_stage
  8438  1225                     i1l3781:	
  8439                           
  8440                           ;usb.c: 1203: };usb.c: 1205: if (setup->REQUEST.type == REQUEST_TYPE_STANDARD) {
  8441  1225  0821               	movf	handle_ep0_setup@setup^(0+128),w
  8442  1226  0086               	movwf	6
  8443  1227  0822               	movf	(handle_ep0_setup@setup+1)^(0+128),w
  8444  1228  0087               	movwf	7
  8445  1229  0E01               	swapf	1,w
  8446  122A  0C89               	rrf	9,f
  8447  122B  3903               	andlw	3
  8448  122C  3A00               	xorlw	0
  8449  122D  1D03               	skipz
  8450  122E  2A38               	goto	i1l3789
  8451                           
  8452                           ;usb.c: 1206: res = handle_standard_control_request();
  8453  122F  3182  2249  3191   	fcall	_handle_standard_control_request
  8454  1232  00ED               	movwf	??_handle_ep0_setup
  8455  1233  086D               	movf	??_handle_ep0_setup,w
  8456  1234  0021               	movlb	1	; select bank1
  8457  1235  00A0               	movwf	handle_ep0_setup@res^(0+128)
  8458                           
  8459                           ;usb.c: 1207: if (res < 0)
  8460  1236  1FA0               	btfss	handle_ep0_setup@res^(0+128),7
  8461  1237  2A4B               	goto	i1l335
  8462  1238                     i1l3789:	
  8463                           
  8464                           ;usb.c: 1242: res = app_unknown_setup_request_callback(setup);
  8465  1238  0822               	movf	(handle_ep0_setup@setup+1)^(0+128),w
  8466  1239  0020               	movlb	0	; select bank0
  8467  123A  00EC               	movwf	app_unknown_setup_request_callback@setup+1
  8468  123B  0021               	movlb	1	; select bank1
  8469  123C  0821               	movf	handle_ep0_setup@setup^(0+128),w
  8470  123D  0020               	movlb	0	; select bank0
  8471  123E  00EB               	movwf	app_unknown_setup_request_callback@setup
  8472  123F  319D  257D  3191   	fcall	_app_unknown_setup_request_callback
  8473  1242  0020               	movlb	0	; select bank0
  8474  1243  00ED               	movwf	??_handle_ep0_setup
  8475  1244  086D               	movf	??_handle_ep0_setup,w
  8476  1245  0021               	movlb	1	; select bank1
  8477  1246  00A0               	movwf	handle_ep0_setup@res^(0+128)
  8478                           
  8479                           ;usb.c: 1243: if (res < 0)
  8480  1247  1FA0               	btfss	handle_ep0_setup@res^(0+128),7
  8481  1248  2A4B               	goto	i1l335
  8482                           
  8483                           ;usb.c: 1244: stall_ep0();
  8484  1249  319D  25AB         	fcall	_stall_ep0
  8485  124B                     i1l335:	
  8486                           ;usb.c: 1249: };usb.c: 1255: out:
  8487                           
  8488                           
  8489                           ;usb.c: 1260: UCONbits.PKTDIS = 0;
  8490  124B  003D               	movlb	29	; select bank29
  8491  124C  120E               	bcf	14,4	;volatile
  8492  124D  0008               	return
  8493  124E                     __end_of_handle_ep0_setup:	
  8494                           
  8495                           	psect	text40
  8496  0249                     __ptext40:	
  8497 ;; *************** function _handle_standard_control_request *****************
  8498 ;; Defined at:
  8499 ;;		line 852 in file "../../../usb/src/usb.c"
  8500 ;; Parameters:    Size  Location     Type
  8501 ;;		None
  8502 ;; Auto vars:     Size  Location     Type
  8503 ;;  ep_num          1   52[BANK0 ] unsigned char 
  8504 ;;  ep_dir          1   47[BANK0 ] unsigned char 
  8505 ;;  ret             2   29[BANK0 ] unsigned char [2]
  8506 ;;  flags           1   45[BANK0 ] unsigned char 
  8507 ;;  desc            2   48[BANK0 ] PTR const void 
  8508 ;;		 -> product_string(24), vendor_string(24), str00(4), 
  8509 ;;  len             2   38[BANK0 ] int 
  8510 ;;  ep_num          1   44[BANK0 ] unsigned char 
  8511 ;;  ret             2   27[BANK0 ] unsigned int 
  8512 ;;  len             2   40[BANK0 ] int 
  8513 ;;  desc            1   42[BANK0 ] PTR const void 
  8514 ;;  desc            2   36[BANK0 ] PTR const struct configu
  8515 ;;		 -> configuration_1(41), 
  8516 ;;  stall           1   35[BANK0 ] unsigned char 
  8517 ;;  ret             1   46[BANK0 ] char 
  8518 ;;  res             1   33[BANK0 ] char 
  8519 ;;  req             1   43[BANK0 ] unsigned char 
  8520 ;;  descriptor_i    1   51[BANK0 ] unsigned char 
  8521 ;;  descriptor      1   50[BANK0 ] unsigned char 
  8522 ;;  setup           2   53[BANK0 ] PTR struct setup_packet
  8523 ;;		 -> ep_buffers(144), 
  8524 ;;  res             1   34[BANK0 ] char 
  8525 ;; Return value:  Size  Location     Type
  8526 ;;                  1    wreg      char 
  8527 ;; Registers used:
  8528 ;;		wreg, fsr0l, fsr0h, fsr1l, fsr1h, status,2, status,0, pclath, cstack
  8529 ;; Tracked objects:
  8530 ;;		On entry : 1F/1
  8531 ;;		On exit  : 1F/0
  8532 ;;		Unchanged: 0/0
  8533 ;; Data sizes:     COMMON   BANK0   BANK1   BANK2   BANK3   BANK4   BANK5   BANK6   BANK7   BANK8   BANK9  BANK10  BANK1
      +1  BANK12
  8534 ;;      Params:         0       0       0       0       0       0       0       0       0       0       0       0       
      +0       0
  8535 ;;      Locals:         0      28       0       0       0       0       0       0       0       0       0       0       
      +0       0
  8536 ;;      Temps:          0       6       0       0       0       0       0       0       0       0       0       0       
      +0       0
  8537 ;;      Totals:         0      34       0       0       0       0       0       0       0       0       0       0       
      +0       0
  8538 ;;Total ram usage:       34 bytes
  8539 ;; Hardware stack levels used:    1
  8540 ;; Hardware stack levels required when called:    4
  8541 ;; This function calls:
  8542 ;;		_app_endpoint_halt_callback
  8543 ;;		_app_get_device_status_callback
  8544 ;;		_app_get_interface_callback
  8545 ;;		_app_set_configuration_callback
  8546 ;;		_app_set_interface_callback
  8547 ;;		_app_unknown_get_descriptor_callback
  8548 ;;		_send_zero_length_packet_ep0
  8549 ;;		_stall_ep0
  8550 ;;		_start_control_return
  8551 ;;		_usb_application_get_string
  8552 ;;		_usb_halt_ep_in
  8553 ;;		_usb_halt_ep_out
  8554 ;;		i1___wmul
  8555 ;;		i1_init_endpoints
  8556 ;; This function is called by:
  8557 ;;		_handle_ep0_setup
  8558 ;; This function uses a non-reentrant model
  8559 ;;
  8560                           
  8561                           
  8562                           ;psect for function _handle_standard_control_request
  8563  0249                     _handle_standard_control_request:	
  8564                           
  8565                           ;usb.c: 854: struct setup_packet *setup;;usb.c: 855: int8_t res = 0;
  8566                           
  8567                           ;incstack = 0
  8568                           ; Regs used in _handle_standard_control_request: [wreg-fsr1h+status,2+status,0+pclath+cs
      +                          tack]
  8569  0249  0020               	movlb	0	; select bank0
  8570  024A  01D2               	clrf	handle_standard_control_request@res
  8571                           
  8572                           ;usb.c: 863: setup = (struct setup_packet*) ep0_buf.out;
  8573  024B  0023               	movlb	3	; select bank3
  8574  024C  086B               	movf	(_ep0_buf+1)^(0+384),w
  8575  024D  0020               	movlb	0	; select bank0
  8576  024E  00E6               	movwf	handle_standard_control_request@setup+1
  8577  024F  0023               	movlb	3	; select bank3
  8578  0250  086A               	movf	_ep0_buf^(0+384),w
  8579  0251  0020               	movlb	0	; select bank0
  8580  0252  00E5               	movwf	handle_standard_control_request@setup
  8581                           
  8582                           ;usb.c: 866: if (setup->bRequest == GET_DESCRIPTOR &&;usb.c: 867: setup->REQUEST.bmReque
      +                          stType == 0x80 ) {
  8583  0253  0865               	movf	handle_standard_control_request@setup,w
  8584  0254  0086               	movwf	6
  8585  0255  0866               	movf	handle_standard_control_request@setup+1,w
  8586  0256  0087               	movwf	7
  8587  0257  3141               	addfsr 1,1
  8588  0258  3006               	movlw	6
  8589  0259  0601               	xorwf	1,w
  8590  025A  1D03               	btfss	3,2
  8591  025B  2B19               	goto	i1l3519
  8592  025C  0865               	movf	handle_standard_control_request@setup,w
  8593  025D  0086               	movwf	6
  8594  025E  0866               	movf	handle_standard_control_request@setup+1,w
  8595  025F  0087               	movwf	7
  8596  0260  3080               	movlw	128
  8597  0261  0601               	xorwf	1,w
  8598  0262  1D03               	btfss	3,2
  8599  0263  2B19               	goto	i1l3519
  8600                           
  8601                           ;usb.c: 868: char descriptor = ((setup->wValue >> 8) & 0x00ff);
  8602  0264  0865               	movf	handle_standard_control_request@setup,w
  8603  0265  0086               	movwf	6
  8604  0266  0866               	movf	handle_standard_control_request@setup+1,w
  8605  0267  0087               	movwf	7
  8606  0268  3142               	addfsr 1,2
  8607  0269  3F40               	moviw [0]fsr1
  8608  026A  00C5               	movwf	??_handle_standard_control_request
  8609  026B  3F41               	moviw [1]fsr1
  8610  026C  00C6               	movwf	??_handle_standard_control_request+1
  8611  026D  0846               	movf	??_handle_standard_control_request+1,w
  8612  026E  00C7               	movwf	??_handle_standard_control_request+2
  8613  026F  0847               	movf	??_handle_standard_control_request+2,w
  8614  0270  00E2               	movwf	handle_standard_control_request@descriptor
  8615                           
  8616                           ;usb.c: 869: uint8_t descriptor_index = setup->wValue & 0x00ff;
  8617  0271  0865               	movf	handle_standard_control_request@setup,w
  8618  0272  0086               	movwf	6
  8619  0273  0866               	movf	handle_standard_control_request@setup+1,w
  8620  0274  0087               	movwf	7
  8621  0275  3142               	addfsr 1,2
  8622  0276  0801               	movf	1,w
  8623  0277  00C5               	movwf	??_handle_standard_control_request
  8624  0278  0845               	movf	??_handle_standard_control_request,w
  8625  0279  00E3               	movwf	handle_standard_control_request@descriptor_index
  8626                           
  8627                           ;usb.c: 871: if (descriptor == DESC_DEVICE) {
  8628  027A  0362               	decf	handle_standard_control_request@descriptor,w
  8629  027B  1D03               	btfss	3,2
  8630  027C  2A99               	goto	i1l3491
  8631                           
  8632                           ;usb.c: 872: ;;usb.c: 875: start_control_return(&this_device_descriptor, this_device_des
      +                          criptor.bLength, setup->wLength);
  8633  027D  308D               	movlw	low (_this_device_descriptor| (0+32768))
  8634  027E  00B1               	movwf	start_control_return@ptr
  8635  027F  3098               	movlw	high (_this_device_descriptor| (0+32768))
  8636  0280  00B2               	movwf	start_control_return@ptr+1
  8637  0281  308D               	movlw	low (_this_device_descriptor| (0+32768))
  8638  0282  0084               	movwf	4
  8639  0283  3098               	movlw	high (_this_device_descriptor| (0+32768))
  8640  0284  0085               	movwf	5
  8641  0285  0800               	movf	0,w	;code access
  8642  0286  00C5               	movwf	??_handle_standard_control_request
  8643  0287  01C6               	clrf	??_handle_standard_control_request+1
  8644  0288  0845               	movf	??_handle_standard_control_request,w
  8645  0289  00B3               	movwf	start_control_return@len
  8646  028A  0846               	movf	??_handle_standard_control_request+1,w
  8647  028B  00B4               	movwf	start_control_return@len+1
  8648  028C  0865               	movf	handle_standard_control_request@setup,w
  8649  028D  0086               	movwf	6
  8650  028E  0866               	movf	handle_standard_control_request@setup+1,w
  8651  028F  0087               	movwf	7
  8652  0290  3146               	addfsr 1,6
  8653  0291  3F40               	moviw [0]fsr1
  8654  0292  00B5               	movwf	start_control_return@bytes_asked_for
  8655  0293  3F41               	moviw [1]fsr1
  8656  0294  00B6               	movwf	start_control_return@bytes_asked_for+1
  8657  0295  3194  2456  3182   	fcall	_start_control_return
  8658                           
  8659                           ;usb.c: 876: }
  8660  0298  2D8A               	goto	i1l3645
  8661  0299                     i1l3491:	
  8662                           
  8663                           ;usb.c: 877: else if (descriptor == DESC_CONFIGURATION) {
  8664  0299  3002               	movlw	2
  8665  029A  0662               	xorwf	handle_standard_control_request@descriptor,w
  8666  029B  1D03               	btfss	3,2
  8667  029C  2ACC               	goto	i1l3501
  8668                           
  8669                           ;usb.c: 878: const struct configuration_descriptor *desc;;usb.c: 879: if (descriptor_ind
      +                          ex >= 1)
  8670  029D  0863               	movf	handle_standard_control_request@descriptor_index,w
  8671  029E  1903               	btfsc	3,2
  8672  029F  2AA4               	goto	i1l3497
  8673  02A0                     i1l3495:	
  8674                           
  8675                           ;usb.c: 880: stall_ep0();
  8676  02A0  319D  25AB  3182   	fcall	_stall_ep0
  8677  02A3  2D8A               	goto	i1l3645
  8678  02A4                     i1l3497:	
  8679                           
  8680                           ;usb.c: 881: else {;usb.c: 882: desc = usb_application_config_descs[descriptor_index];
  8681  02A4  3563               	lslf	handle_standard_control_request@descriptor_index,w
  8682  02A5  3EC1               	addlw	(low (_usb_application_config_descs| 0))& (0+255)
  8683  02A6  0086               	movwf	6
  8684  02A7  0187               	clrf	7
  8685  02A8  3F40               	moviw [0]fsr1
  8686  02A9  00D4               	movwf	handle_standard_control_request@desc
  8687  02AA  3F41               	moviw [1]fsr1
  8688  02AB  00D5               	movwf	handle_standard_control_request@desc+1
  8689                           
  8690                           ;usb.c: 883: start_control_return(desc, desc->wTotalLength, setup->wLength);
  8691  02AC  0855               	movf	handle_standard_control_request@desc+1,w
  8692  02AD  00B2               	movwf	start_control_return@ptr+1
  8693  02AE  0854               	movf	handle_standard_control_request@desc,w
  8694  02AF  00B1               	movwf	start_control_return@ptr
  8695  02B0  0855               	movf	handle_standard_control_request@desc+1,w
  8696  02B1  00C6               	movwf	??_handle_standard_control_request+1
  8697  02B2  0854               	movf	handle_standard_control_request@desc,w
  8698  02B3  00C5               	movwf	??_handle_standard_control_request
  8699  02B4  3002               	movlw	2
  8700  02B5  0745               	addwf	??_handle_standard_control_request,w
  8701  02B6  0084               	movwf	4
  8702  02B7  0846               	movf	??_handle_standard_control_request+1,w
  8703  02B8  1803               	skipnc
  8704  02B9  0A46               	incf	??_handle_standard_control_request+1,w
  8705  02BA  0085               	movwf	5
  8706  02BB  3F00               	moviw [0]fsr0
  8707  02BC  00B3               	movwf	start_control_return@len
  8708  02BD  3F01               	moviw [1]fsr0
  8709  02BE  00B4               	movwf	start_control_return@len+1
  8710  02BF  0865               	movf	handle_standard_control_request@setup,w
  8711  02C0  0086               	movwf	6
  8712  02C1  0866               	movf	handle_standard_control_request@setup+1,w
  8713  02C2  0087               	movwf	7
  8714  02C3  3146               	addfsr 1,6
  8715  02C4  3F40               	moviw [0]fsr1
  8716  02C5  00B5               	movwf	start_control_return@bytes_asked_for
  8717  02C6  3F41               	moviw [1]fsr1
  8718  02C7  00B6               	movwf	start_control_return@bytes_asked_for+1
  8719  02C8  3194  2456  3182   	fcall	_start_control_return
  8720  02CB  2D8A               	goto	i1l3645
  8721  02CC                     i1l3501:	
  8722                           
  8723                           ;usb.c: 886: else if (descriptor == DESC_STRING) {
  8724  02CC  3003               	movlw	3
  8725  02CD  0662               	xorwf	handle_standard_control_request@descriptor,w
  8726  02CE  1D03               	btfss	3,2
  8727  02CF  2AF3               	goto	i1l3511
  8728                           
  8729                           ;usb.c: 908: {;usb.c: 910: const void *desc;;usb.c: 911: int16_t len;;usb.c: 912: {;usb.
      +                          c: 913: len = usb_application_get_string(descriptor_index, &desc);
  8730  02D0  3060               	movlw	(low (handle_standard_control_request@desc_761| 0))& (0+255)
  8731  02D1  00C5               	movwf	??_handle_standard_control_request
  8732  02D2  0845               	movf	??_handle_standard_control_request,w
  8733  02D3  00F0               	movwf	usb_application_get_string@ptr
  8734  02D4  0863               	movf	handle_standard_control_request@descriptor_index,w
  8735  02D5  3190  20FF  3182   	fcall	_usb_application_get_string
  8736  02D8  0871               	movf	?_usb_application_get_string+1,w
  8737  02D9  00D7               	movwf	handle_standard_control_request@len+1
  8738  02DA  0870               	movf	?_usb_application_get_string,w
  8739  02DB  00D6               	movwf	handle_standard_control_request@len
  8740                           
  8741                           ;usb.c: 914: if (len < 0) {
  8742  02DC  1BD7               	btfsc	handle_standard_control_request@len+1,7
  8743  02DD  2AA0               	goto	i1l3495
  8744                           
  8745                           ;usb.c: 918: else;usb.c: 919: start_control_return(desc, len, setup->wLength);
  8746  02DE  0861               	movf	handle_standard_control_request@desc_761+1,w
  8747  02DF  00B2               	movwf	start_control_return@ptr+1
  8748  02E0  0860               	movf	handle_standard_control_request@desc_761,w
  8749  02E1  00B1               	movwf	start_control_return@ptr
  8750  02E2  0857               	movf	handle_standard_control_request@len+1,w
  8751  02E3  00B4               	movwf	start_control_return@len+1
  8752  02E4  0856               	movf	handle_standard_control_request@len,w
  8753  02E5  00B3               	movwf	start_control_return@len
  8754  02E6  0865               	movf	handle_standard_control_request@setup,w
  8755  02E7  0086               	movwf	6
  8756  02E8  0866               	movf	handle_standard_control_request@setup+1,w
  8757  02E9  0087               	movwf	7
  8758  02EA  3146               	addfsr 1,6
  8759  02EB  3F40               	moviw [0]fsr1
  8760  02EC  00B5               	movwf	start_control_return@bytes_asked_for
  8761  02ED  3F41               	moviw [1]fsr1
  8762  02EE  00B6               	movwf	start_control_return@bytes_asked_for+1
  8763  02EF  3194  2456  3182   	fcall	_start_control_return
  8764  02F2  2D8A               	goto	i1l3645
  8765  02F3                     i1l3511:	
  8766                           
  8767                           ;usb.c: 927: else {;usb.c: 929: int16_t len;;usb.c: 930: const void *desc;;usb.c: 931: l
      +                          en = app_unknown_get_descriptor_callback(setup, &desc);
  8768  02F3  0866               	movf	handle_standard_control_request@setup+1,w
  8769  02F4  00F1               	movwf	app_unknown_get_descriptor_callback@pkt+1
  8770  02F5  0865               	movf	handle_standard_control_request@setup,w
  8771  02F6  00F0               	movwf	app_unknown_get_descriptor_callback@pkt
  8772  02F7  305A               	movlw	(low (handle_standard_control_request@desc_764| 0))& (0+255)
  8773  02F8  00C5               	movwf	??_handle_standard_control_request
  8774  02F9  0845               	movf	??_handle_standard_control_request,w
  8775  02FA  00F2               	movwf	app_unknown_get_descriptor_callback@descriptor
  8776  02FB  319D  2563  3182   	fcall	_app_unknown_get_descriptor_callback
  8777  02FE  0871               	movf	?_app_unknown_get_descriptor_callback+1,w
  8778  02FF  00D9               	movwf	handle_standard_control_request@len_763+1
  8779  0300  0870               	movf	?_app_unknown_get_descriptor_callback,w
  8780  0301  00D8               	movwf	handle_standard_control_request@len_763
  8781                           
  8782                           ;usb.c: 932: if (len < 0) {
  8783  0302  1BD9               	btfsc	handle_standard_control_request@len_763+1,7
  8784  0303  2AA0               	goto	i1l3495
  8785                           
  8786                           ;usb.c: 936: else;usb.c: 937: start_control_return(desc, len, setup->wLength);
  8787  0304  085A               	movf	handle_standard_control_request@desc_764,w
  8788  0305  00B1               	movwf	start_control_return@ptr
  8789  0306  3000               	movlw	0
  8790  0307  00B2               	movwf	start_control_return@ptr+1
  8791  0308  0859               	movf	handle_standard_control_request@len_763+1,w
  8792  0309  00B4               	movwf	start_control_return@len+1
  8793  030A  0858               	movf	handle_standard_control_request@len_763,w
  8794  030B  00B3               	movwf	start_control_return@len
  8795  030C  0865               	movf	handle_standard_control_request@setup,w
  8796  030D  0086               	movwf	6
  8797  030E  0866               	movf	handle_standard_control_request@setup+1,w
  8798  030F  0087               	movwf	7
  8799  0310  3146               	addfsr 1,6
  8800  0311  3F40               	moviw [0]fsr1
  8801  0312  00B5               	movwf	start_control_return@bytes_asked_for
  8802  0313  3F41               	moviw [1]fsr1
  8803  0314  00B6               	movwf	start_control_return@bytes_asked_for+1
  8804  0315  3194  2456  3182   	fcall	_start_control_return
  8805  0318  2D8A               	goto	i1l3645
  8806  0319                     i1l3519:	
  8807                           
  8808                           ;usb.c: 946: else if (setup->bRequest == SET_ADDRESS) {
  8809  0319  0865               	movf	handle_standard_control_request@setup,w
  8810  031A  0086               	movwf	6
  8811  031B  0866               	movf	handle_standard_control_request@setup+1,w
  8812  031C  0087               	movwf	7
  8813  031D  3141               	addfsr 1,1
  8814  031E  3005               	movlw	5
  8815  031F  0601               	xorwf	1,w
  8816  0320  1D03               	btfss	3,2
  8817  0321  2B34               	goto	i1l3527
  8818                           
  8819                           ;usb.c: 949: addr_pending = 1;
  8820  0322  0023               	movlb	3	; select bank3
  8821  0323  01EF               	clrf	_addr_pending^(0+384)
  8822  0324  0AEF               	incf	_addr_pending^(0+384),f
  8823                           
  8824                           ;usb.c: 950: addr = setup->wValue;
  8825  0325  0020               	movlb	0	; select bank0
  8826  0326  0865               	movf	handle_standard_control_request@setup,w
  8827  0327  0086               	movwf	6
  8828  0328  0866               	movf	handle_standard_control_request@setup+1,w
  8829  0329  0087               	movwf	7
  8830  032A  3142               	addfsr 1,2
  8831  032B  0801               	movf	1,w
  8832  032C  00C5               	movwf	??_handle_standard_control_request
  8833  032D  0845               	movf	??_handle_standard_control_request,w
  8834  032E  0021               	movlb	1	; select bank1
  8835  032F  00C0               	movwf	_addr^(0+128)
  8836  0330                     i1l3525:	
  8837                           
  8838                           ;usb.c: 952: send_zero_length_packet_ep0();
  8839  0330  319D  258B  3182   	fcall	_send_zero_length_packet_ep0
  8840                           
  8841                           ;usb.c: 953: }
  8842  0333  2D8A               	goto	i1l3645
  8843  0334                     i1l3527:	
  8844                           
  8845                           ;usb.c: 954: else if (setup->bRequest == SET_CONFIGURATION) {
  8846  0334  0865               	movf	handle_standard_control_request@setup,w
  8847  0335  0086               	movwf	6
  8848  0336  0866               	movf	handle_standard_control_request@setup+1,w
  8849  0337  0087               	movwf	7
  8850  0338  3141               	addfsr 1,1
  8851  0339  3009               	movlw	9
  8852  033A  0601               	xorwf	1,w
  8853  033B  1D03               	btfss	3,2
  8854  033C  2B55               	goto	i1l3539
  8855                           
  8856                           ;usb.c: 958: uint8_t req = setup->wValue & 0x00ff;
  8857  033D  0865               	movf	handle_standard_control_request@setup,w
  8858  033E  0086               	movwf	6
  8859  033F  0866               	movf	handle_standard_control_request@setup+1,w
  8860  0340  0087               	movwf	7
  8861  0341  3142               	addfsr 1,2
  8862  0342  0801               	movf	1,w
  8863  0343  00C5               	movwf	??_handle_standard_control_request
  8864  0344  0845               	movf	??_handle_standard_control_request,w
  8865  0345  00DB               	movwf	handle_standard_control_request@req
  8866                           
  8867                           ;usb.c: 960: app_set_configuration_callback(req);
  8868  0346  085B               	movf	handle_standard_control_request@req,w
  8869  0347  3187  27FF  3182   	fcall	_app_set_configuration_callback
  8870                           
  8871                           ;usb.c: 967: init_endpoints();
  8872  034A  318B  2376  3182   	fcall	i1_init_endpoints
  8873                           
  8874                           ;usb.c: 969: send_zero_length_packet_ep0();
  8875  034D  319D  258B  3182   	fcall	_send_zero_length_packet_ep0
  8876                           
  8877                           ;usb.c: 970: g_configuration = req;
  8878  0350  085B               	movf	handle_standard_control_request@req,w
  8879  0351  00C5               	movwf	??_handle_standard_control_request
  8880  0352  0845               	movf	??_handle_standard_control_request,w
  8881  0353  00EF               	movwf	_g_configuration
  8882                           
  8883                           ;usb.c: 972: ;;usb.c: 973: ;;usb.c: 974: }
  8884  0354  2D8A               	goto	i1l3645
  8885  0355                     i1l3539:	
  8886                           
  8887                           ;usb.c: 975: else if (setup->bRequest == GET_CONFIGURATION) {
  8888  0355  0865               	movf	handle_standard_control_request@setup,w
  8889  0356  0086               	movwf	6
  8890  0357  0866               	movf	handle_standard_control_request@setup+1,w
  8891  0358  0087               	movwf	7
  8892  0359  3141               	addfsr 1,1
  8893  035A  3008               	movlw	8
  8894  035B  0601               	xorwf	1,w
  8895  035C  1D03               	btfss	3,2
  8896  035D  2B73               	goto	i1l3543
  8897                           
  8898                           ;usb.c: 977: ;;usb.c: 978: ;;usb.c: 980: start_control_return(&g_configuration, 1, setup
      +                          ->wLength);
  8899  035E  306F               	movlw	low _g_configuration
  8900  035F  00B1               	movwf	start_control_return@ptr
  8901  0360  3000               	movlw	high _g_configuration
  8902  0361  00B2               	movwf	start_control_return@ptr+1
  8903  0362  3001               	movlw	1
  8904  0363  00B3               	movwf	start_control_return@len
  8905  0364  3000               	movlw	0
  8906  0365  00B4               	movwf	start_control_return@len+1
  8907  0366  0865               	movf	handle_standard_control_request@setup,w
  8908  0367  0086               	movwf	6
  8909  0368  0866               	movf	handle_standard_control_request@setup+1,w
  8910  0369  0087               	movwf	7
  8911  036A  3146               	addfsr 1,6
  8912  036B  3F40               	moviw [0]fsr1
  8913  036C  00B5               	movwf	start_control_return@bytes_asked_for
  8914  036D  3F41               	moviw [1]fsr1
  8915  036E  00B6               	movwf	start_control_return@bytes_asked_for+1
  8916  036F  3194  2456  3182   	fcall	_start_control_return
  8917                           
  8918                           ;usb.c: 981: }
  8919  0372  2D8A               	goto	i1l3645
  8920  0373                     i1l3543:	
  8921                           
  8922                           ;usb.c: 982: else if (setup->bRequest == GET_STATUS) {
  8923  0373  0865               	movf	handle_standard_control_request@setup,w
  8924  0374  0086               	movwf	6
  8925  0375  0866               	movf	handle_standard_control_request@setup+1,w
  8926  0376  0087               	movwf	7
  8927  0377  3141               	addfsr 1,1
  8928  0378  0801               	movf	1,w
  8929  0379  1D03               	btfss	3,2
  8930  037A  2C06               	goto	i1l3575
  8931                           
  8932                           ;usb.c: 984: ;;usb.c: 985: ;;usb.c: 986: ;;usb.c: 988: if (setup->REQUEST.destination ==
      +                           0 ) {
  8933  037B  0865               	movf	handle_standard_control_request@setup,w
  8934  037C  0086               	movwf	6
  8935  037D  0866               	movf	handle_standard_control_request@setup+1,w
  8936  037E  0087               	movwf	7
  8937  037F  0801               	movf	1,w
  8938  0380  391F               	andlw	31
  8939  0381  3A00               	xorlw	0
  8940  0382  1D03               	skipz
  8941  0383  2BA0               	goto	i1l3551
  8942                           
  8943                           ;usb.c: 991: uint16_t ret;;usb.c: 993: ret = app_get_device_status_callback();
  8944  0384  319D  255D  3182   	fcall	_app_get_device_status_callback
  8945  0387  0871               	movf	?_app_get_device_status_callback+1,w
  8946  0388  00CC               	movwf	handle_standard_control_request@ret+1
  8947  0389  0870               	movf	?_app_get_device_status_callback,w
  8948  038A  00CB               	movwf	handle_standard_control_request@ret
  8949                           
  8950                           ;usb.c: 997: start_control_return(&ret, 2, setup->wLength);
  8951  038B  304B               	movlw	low handle_standard_control_request@ret
  8952  038C  00B1               	movwf	start_control_return@ptr
  8953  038D  3000               	movlw	high handle_standard_control_request@ret
  8954  038E  00B2               	movwf	start_control_return@ptr+1
  8955  038F  3002               	movlw	2
  8956  0390  00B3               	movwf	start_control_return@len
  8957  0391  3000               	movlw	0
  8958  0392  00B4               	movwf	start_control_return@len+1
  8959  0393  0865               	movf	handle_standard_control_request@setup,w
  8960  0394  0086               	movwf	6
  8961  0395  0866               	movf	handle_standard_control_request@setup+1,w
  8962  0396  0087               	movwf	7
  8963  0397  3146               	addfsr 1,6
  8964  0398  3F40               	moviw [0]fsr1
  8965  0399  00B5               	movwf	start_control_return@bytes_asked_for
  8966  039A  3F41               	moviw [1]fsr1
  8967  039B  00B6               	movwf	start_control_return@bytes_asked_for+1
  8968  039C  3194  2456  3182   	fcall	_start_control_return
  8969                           
  8970                           ;usb.c: 998: }
  8971  039F  2D8A               	goto	i1l3645
  8972  03A0                     i1l3551:	
  8973                           
  8974                           ;usb.c: 999: else if (setup->REQUEST.destination == 2 ) {
  8975  03A0  0865               	movf	handle_standard_control_request@setup,w
  8976  03A1  0086               	movwf	6
  8977  03A2  0866               	movf	handle_standard_control_request@setup+1,w
  8978  03A3  0087               	movwf	7
  8979  03A4  0801               	movf	1,w
  8980  03A5  391F               	andlw	31
  8981  03A6  3A02               	xorlw	2
  8982  03A7  1D03               	skipz
  8983  03A8  2AA0               	goto	i1l3495
  8984                           
  8985                           ;usb.c: 1001: uint8_t ep_num = setup->wIndex & 0x0f;
  8986  03A9  0865               	movf	handle_standard_control_request@setup,w
  8987  03AA  0086               	movwf	6
  8988  03AB  0866               	movf	handle_standard_control_request@setup+1,w
  8989  03AC  0087               	movwf	7
  8990  03AD  3144               	addfsr 1,4
  8991  03AE  0801               	movf	1,w
  8992  03AF  390F               	andlw	15
  8993  03B0  00C5               	movwf	??_handle_standard_control_request
  8994  03B1  0845               	movf	??_handle_standard_control_request,w
  8995  03B2  00DC               	movwf	handle_standard_control_request@ep_num
  8996                           
  8997                           ;usb.c: 1002: if (ep_num <= 1) {
  8998  03B3  3002               	movlw	2
  8999  03B4  025C               	subwf	handle_standard_control_request@ep_num,w
  9000  03B5  1803               	skipnc
  9001  03B6  2AA0               	goto	i1l3495
  9002                           
  9003                           ;usb.c: 1003: uint8_t flags = ep_buf[ep_num].flags;
  9004  03B7  085C               	movf	handle_standard_control_request@ep_num,w
  9005  03B8  00C5               	movwf	??_handle_standard_control_request
  9006  03B9  01C6               	clrf	??_handle_standard_control_request+1
  9007  03BA  0845               	movf	??_handle_standard_control_request,w
  9008  03BB  00F0               	movwf	i1___wmul@multiplier
  9009  03BC  0846               	movf	??_handle_standard_control_request+1,w
  9010  03BD  00F1               	movwf	i1___wmul@multiplier+1
  9011  03BE  3007               	movlw	7
  9012  03BF  00F2               	movwf	i1___wmul@multiplicand
  9013  03C0  3000               	movlw	0
  9014  03C1  00F3               	movwf	i1___wmul@multiplicand+1
  9015  03C2  319E  2678  3182   	fcall	i1___wmul
  9016  03C5  305E               	movlw	low (_ep_buf+6)
  9017  03C6  0020               	movlb	0	; select bank0
  9018  03C7  00C7               	movwf	??_handle_standard_control_request+2
  9019  03C8  3002               	movlw	high (_ep_buf+6)
  9020  03C9  00C8               	movwf	??_handle_standard_control_request+3
  9021  03CA  0870               	movf	?i1___wmul,w
  9022  03CB  0747               	addwf	??_handle_standard_control_request+2,w
  9023  03CC  0086               	movwf	6
  9024  03CD  0871               	movf	?i1___wmul+1,w
  9025  03CE  3D48               	addwfc	??_handle_standard_control_request+3,w
  9026  03CF  0087               	movwf	7
  9027  03D0  0801               	movf	1,w
  9028  03D1  00C9               	movwf	??_handle_standard_control_request+4
  9029  03D2  0849               	movf	??_handle_standard_control_request+4,w
  9030  03D3  00DD               	movwf	handle_standard_control_request@flags
  9031                           
  9032                           ;usb.c: 1004: uint8_t ret[2];;usb.c: 1005: ret[0] = ((setup->wIndex & 0x80) ?;usb.c: 100
      +                          6: flags & 0x2 :;usb.c: 1007: flags & 0x1) != 0;
  9033  03D4  0865               	movf	handle_standard_control_request@setup,w
  9034  03D5  0086               	movwf	6
  9035  03D6  0866               	movf	handle_standard_control_request@setup+1,w
  9036  03D7  0087               	movwf	7
  9037  03D8  3144               	addfsr 1,4
  9038  03D9  1B81               	btfsc	1,7
  9039  03DA  2BDE               	goto	i1l3563
  9040  03DB  085D               	movf	handle_standard_control_request@flags,w
  9041  03DC  3901               	andlw	1
  9042  03DD  2BE0               	goto	L4
  9043  03DE                     i1l3563:	
  9044  03DE  085D               	movf	handle_standard_control_request@flags,w
  9045  03DF  3902               	andlw	2
  9046  03E0                     L4:	
  9047  03E0  00C5               	movwf	??_handle_standard_control_request
  9048  03E1  01C6               	clrf	??_handle_standard_control_request+1
  9049  03E2  0845               	movf	??_handle_standard_control_request,w
  9050  03E3  00CF               	movwf	_handle_standard_control_request$774
  9051  03E4  0846               	movf	??_handle_standard_control_request+1,w
  9052  03E5  00D0               	movwf	_handle_standard_control_request$774+1
  9053  03E6  084F               	movf	_handle_standard_control_request$774,w
  9054  03E7  0450               	iorwf	_handle_standard_control_request$774+1,w
  9055  03E8  1903               	btfsc	3,2
  9056  03E9  2BEC               	goto	u330_20
  9057  03EA  3001               	movlw	1
  9058  03EB  2BED               	goto	u331_20
  9059  03EC                     u330_20:	
  9060  03EC  3000               	movlw	0
  9061  03ED                     u331_20:	
  9062  03ED  00C5               	movwf	??_handle_standard_control_request
  9063  03EE  0845               	movf	??_handle_standard_control_request,w
  9064  03EF  00CD               	movwf	handle_standard_control_request@ret_773
  9065                           
  9066                           ;usb.c: 1008: ret[1] = 0;
  9067  03F0  01CE               	clrf	handle_standard_control_request@ret_773+1
  9068                           
  9069                           ;usb.c: 1009: start_control_return(ret, 2, setup->wLength);
  9070  03F1  304D               	movlw	low handle_standard_control_request@ret_773
  9071  03F2  00B1               	movwf	start_control_return@ptr
  9072  03F3  3000               	movlw	high handle_standard_control_request@ret_773
  9073  03F4  00B2               	movwf	start_control_return@ptr+1
  9074  03F5  3002               	movlw	2
  9075  03F6  00B3               	movwf	start_control_return@len
  9076  03F7  3000               	movlw	0
  9077  03F8  00B4               	movwf	start_control_return@len+1
  9078  03F9  0865               	movf	handle_standard_control_request@setup,w
  9079  03FA  0086               	movwf	6
  9080  03FB  0866               	movf	handle_standard_control_request@setup+1,w
  9081  03FC  0087               	movwf	7
  9082  03FD  3146               	addfsr 1,6
  9083  03FE  3F40               	moviw [0]fsr1
  9084  03FF  00B5               	movwf	start_control_return@bytes_asked_for
  9085  0400  3F41               	moviw [1]fsr1
  9086  0401  00B6               	movwf	start_control_return@bytes_asked_for+1
  9087  0402  3194  2456  3182   	fcall	_start_control_return
  9088                           
  9089                           ;usb.c: 1010: }
  9090  0405  2D8A               	goto	i1l3645
  9091  0406                     i1l3575:	
  9092                           
  9093                           ;usb.c: 1023: else if (setup->bRequest == SET_INTERFACE) {
  9094  0406  0865               	movf	handle_standard_control_request@setup,w
  9095  0407  0086               	movwf	6
  9096  0408  0866               	movf	handle_standard_control_request@setup+1,w
  9097  0409  0087               	movwf	7
  9098  040A  3141               	addfsr 1,1
  9099  040B  300B               	movlw	11
  9100  040C  0601               	xorwf	1,w
  9101  040D  1D03               	btfss	3,2
  9102  040E  2C27               	goto	i1l3585
  9103                           
  9104                           ;usb.c: 1028: int8_t res;;usb.c: 1029: res = app_set_interface_callback(setup->wIndex, s
      +                          etup->wValue);
  9105  040F  0865               	movf	handle_standard_control_request@setup,w
  9106  0410  0086               	movwf	6
  9107  0411  0866               	movf	handle_standard_control_request@setup+1,w
  9108  0412  0087               	movwf	7
  9109  0413  3142               	addfsr 1,2
  9110  0414  0801               	movf	1,w
  9111  0415  00C5               	movwf	??_handle_standard_control_request
  9112  0416  0845               	movf	??_handle_standard_control_request,w
  9113  0417  00F0               	movwf	app_set_interface_callback@alt_setting
  9114  0418  0865               	movf	handle_standard_control_request@setup,w
  9115  0419  0086               	movwf	6
  9116  041A  0866               	movf	handle_standard_control_request@setup+1,w
  9117  041B  0087               	movwf	7
  9118  041C  3144               	addfsr 1,4
  9119  041D  0801               	movf	1,w
  9120  041E  319D  2559  3182   	fcall	_app_set_interface_callback
  9121  0421  00C6               	movwf	??_handle_standard_control_request+1
  9122  0422  0846               	movf	??_handle_standard_control_request+1,w
  9123  0423  00D1               	movwf	handle_standard_control_request@res_775
  9124                           
  9125                           ;usb.c: 1030: if (res < 0) {
  9126  0424  1BD1               	btfsc	handle_standard_control_request@res_775,7
  9127  0425  2AA0               	goto	i1l3495
  9128  0426  2B30               	goto	i1l3525
  9129  0427                     i1l3585:	
  9130                           
  9131                           ;usb.c: 1042: else if (setup->bRequest == GET_INTERFACE) {
  9132  0427  0865               	movf	handle_standard_control_request@setup,w
  9133  0428  0086               	movwf	6
  9134  0429  0866               	movf	handle_standard_control_request@setup+1,w
  9135  042A  0087               	movwf	7
  9136  042B  3141               	addfsr 1,1
  9137  042C  300A               	movlw	10
  9138  042D  0601               	xorwf	1,w
  9139  042E  1D03               	btfss	3,2
  9140  042F  2C53               	goto	i1l3595
  9141                           
  9142                           ;usb.c: 1043: int8_t ret;;usb.c: 1044: ;;usb.c: 1045: ;;usb.c: 1046: ;;usb.c: 1047: ;;us
      +                          b.c: 1048: ;;usb.c: 1050: ret = app_get_interface_callback(setup->wIndex);
  9143  0430  0865               	movf	handle_standard_control_request@setup,w
  9144  0431  0086               	movwf	6
  9145  0432  0866               	movf	handle_standard_control_request@setup+1,w
  9146  0433  0087               	movwf	7
  9147  0434  3144               	addfsr 1,4
  9148  0435  0801               	movf	1,w
  9149  0436  319D  2557  3182   	fcall	_app_get_interface_callback
  9150  0439  00C5               	movwf	??_handle_standard_control_request
  9151  043A  0845               	movf	??_handle_standard_control_request,w
  9152  043B  00DE               	movwf	handle_standard_control_request@ret_776
  9153                           
  9154                           ;usb.c: 1051: if (ret < 0)
  9155  043C  1BDE               	btfsc	handle_standard_control_request@ret_776,7
  9156  043D  2AA0               	goto	i1l3495
  9157                           
  9158                           ;usb.c: 1053: else {;usb.c: 1056: start_control_return(&ret, 1, setup->wLength);
  9159  043E  305E               	movlw	low handle_standard_control_request@ret_776
  9160  043F  00B1               	movwf	start_control_return@ptr
  9161  0440  3000               	movlw	high handle_standard_control_request@ret_776
  9162  0441  00B2               	movwf	start_control_return@ptr+1
  9163  0442  3001               	movlw	1
  9164  0443  00B3               	movwf	start_control_return@len
  9165  0444  3000               	movlw	0
  9166  0445  00B4               	movwf	start_control_return@len+1
  9167  0446  0865               	movf	handle_standard_control_request@setup,w
  9168  0447  0086               	movwf	6
  9169  0448  0866               	movf	handle_standard_control_request@setup+1,w
  9170  0449  0087               	movwf	7
  9171  044A  3146               	addfsr 1,6
  9172  044B  3F40               	moviw [0]fsr1
  9173  044C  00B5               	movwf	start_control_return@bytes_asked_for
  9174  044D  3F41               	moviw [1]fsr1
  9175  044E  00B6               	movwf	start_control_return@bytes_asked_for+1
  9176  044F  3194  2456  3182   	fcall	_start_control_return
  9177  0452  2D8A               	goto	i1l3645
  9178  0453                     i1l3595:	
  9179                           
  9180                           ;usb.c: 1067: else if (setup->bRequest == CLEAR_FEATURE || setup->bRequest == SET_FEATUR
      +                          E) {
  9181  0453  0865               	movf	handle_standard_control_request@setup,w
  9182  0454  0086               	movwf	6
  9183  0455  0866               	movf	handle_standard_control_request@setup+1,w
  9184  0456  0087               	movwf	7
  9185  0457  3141               	addfsr 1,1
  9186  0458  0301               	decf	1,w
  9187  0459  1903               	btfsc	3,2
  9188  045A  2C64               	goto	i1l305
  9189  045B  0865               	movf	handle_standard_control_request@setup,w
  9190  045C  0086               	movwf	6
  9191  045D  0866               	movf	handle_standard_control_request@setup+1,w
  9192  045E  0087               	movwf	7
  9193  045F  3141               	addfsr 1,1
  9194  0460  3003               	movlw	3
  9195  0461  0601               	xorwf	1,w
  9196  0462  1D03               	btfss	3,2
  9197  0463  2D88               	goto	i1l303
  9198  0464                     i1l305:	
  9199                           
  9200                           ;usb.c: 1068: uint8_t stall = 1;
  9201  0464  01D3               	clrf	handle_standard_control_request@stall
  9202  0465  0AD3               	incf	handle_standard_control_request@stall,f
  9203                           
  9204                           ;usb.c: 1072: };usb.c: 1074: if (setup->REQUEST.destination == 2 ) {
  9205  0466  0865               	movf	handle_standard_control_request@setup,w
  9206  0467  0086               	movwf	6
  9207  0468  0866               	movf	handle_standard_control_request@setup+1,w
  9208  0469  0087               	movwf	7
  9209  046A  0801               	movf	1,w
  9210  046B  391F               	andlw	31
  9211  046C  3A02               	xorlw	2
  9212  046D  1D03               	skipz
  9213  046E  2D84               	goto	i1l3639
  9214                           
  9215                           ;usb.c: 1075: if (setup->wValue == 0 ) {
  9216  046F  0865               	movf	handle_standard_control_request@setup,w
  9217  0470  0086               	movwf	6
  9218  0471  0866               	movf	handle_standard_control_request@setup+1,w
  9219  0472  0087               	movwf	7
  9220  0473  3142               	addfsr 1,2
  9221  0474  0016               	moviw fsr1++
  9222  0475  0401               	iorwf	1,w
  9223  0476  1D03               	btfss	3,2
  9224  0477  2D84               	goto	i1l3639
  9225                           
  9226                           ;usb.c: 1076: uint8_t ep_num = setup->wIndex & 0x0f;
  9227  0478  0865               	movf	handle_standard_control_request@setup,w
  9228  0479  0086               	movwf	6
  9229  047A  0866               	movf	handle_standard_control_request@setup+1,w
  9230  047B  0087               	movwf	7
  9231  047C  3144               	addfsr 1,4
  9232  047D  0801               	movf	1,w
  9233  047E  390F               	andlw	15
  9234  047F  00C5               	movwf	??_handle_standard_control_request
  9235  0480  0845               	movf	??_handle_standard_control_request,w
  9236  0481  00E4               	movwf	handle_standard_control_request@ep_num_778
  9237                           
  9238                           ;usb.c: 1077: uint8_t ep_dir = setup->wIndex & 0x80;
  9239  0482  0865               	movf	handle_standard_control_request@setup,w
  9240  0483  0086               	movwf	6
  9241  0484  0866               	movf	handle_standard_control_request@setup+1,w
  9242  0485  0087               	movwf	7
  9243  0486  3144               	addfsr 1,4
  9244  0487  0801               	movf	1,w
  9245  0488  3980               	andlw	128
  9246  0489  00C5               	movwf	??_handle_standard_control_request
  9247  048A  0845               	movf	??_handle_standard_control_request,w
  9248  048B  00DF               	movwf	handle_standard_control_request@ep_dir
  9249                           
  9250                           ;usb.c: 1078: if (ep_num <= 1) {
  9251  048C  3002               	movlw	2
  9252  048D  0264               	subwf	handle_standard_control_request@ep_num_778,w
  9253  048E  1803               	skipnc
  9254  048F  2D84               	goto	i1l3639
  9255                           
  9256                           ;usb.c: 1079: if (setup->bRequest == SET_FEATURE) {
  9257  0490  0865               	movf	handle_standard_control_request@setup,w
  9258  0491  0086               	movwf	6
  9259  0492  0866               	movf	handle_standard_control_request@setup+1,w
  9260  0493  0087               	movwf	7
  9261  0494  3141               	addfsr 1,1
  9262  0495  3003               	movlw	3
  9263  0496  0601               	xorwf	1,w
  9264  0497  1D03               	btfss	3,2
  9265  0498  2CA6               	goto	i1l3617
  9266                           
  9267                           ;usb.c: 1082: if (ep_dir) {
  9268  0499  085F               	movf	handle_standard_control_request@ep_dir,w
  9269  049A  1903               	btfsc	3,2
  9270  049B  2CA1               	goto	i1l3615
  9271                           
  9272                           ;usb.c: 1083: usb_halt_ep_in(ep_num);
  9273  049C  0864               	movf	handle_standard_control_request@ep_num_778,w
  9274  049D  3190  2029  3182   	fcall	_usb_halt_ep_in
  9275                           
  9276                           ;usb.c: 1084: }
  9277  04A0  2D6A               	goto	i1l3635
  9278  04A1                     i1l3615:	
  9279                           
  9280                           ;usb.c: 1085: else {;usb.c: 1086: usb_halt_ep_out(ep_num);
  9281  04A1  0864               	movf	handle_standard_control_request@ep_num_778,w
  9282  04A2  319F  275A  3182   	fcall	_usb_halt_ep_out
  9283  04A5  2D6A               	goto	i1l3635
  9284  04A6                     i1l3617:	
  9285                           
  9286                           ;usb.c: 1089: else {;usb.c: 1092: if (ep_dir) {
  9287  04A6  085F               	movf	handle_standard_control_request@ep_dir,w
  9288  04A7  1903               	btfsc	3,2
  9289  04A8  2CFC               	goto	i1l3627
  9290  04A9  0864               	movf	handle_standard_control_request@ep_num_778,w
  9291  04AA  00C5               	movwf	??_handle_standard_control_request
  9292  04AB  01C6               	clrf	??_handle_standard_control_request+1
  9293  04AC  0845               	movf	??_handle_standard_control_request,w
  9294  04AD  00F0               	movwf	i1___wmul@multiplier
  9295  04AE  0846               	movf	??_handle_standard_control_request+1,w
  9296  04AF  00F1               	movwf	i1___wmul@multiplier+1
  9297  04B0  3007               	movlw	7
  9298  04B1  00F2               	movwf	i1___wmul@multiplicand
  9299  04B2  3000               	movlw	0
  9300  04B3  00F3               	movwf	i1___wmul@multiplicand+1
  9301  04B4  319E  2678  3182   	fcall	i1___wmul
  9302  04B7  305D               	movlw	low (_ep_buf+5)
  9303  04B8  0020               	movlb	0	; select bank0
  9304  04B9  00C7               	movwf	??_handle_standard_control_request+2
  9305  04BA  3002               	movlw	high (_ep_buf+5)
  9306  04BB  00C8               	movwf	??_handle_standard_control_request+3
  9307  04BC  0870               	movf	?i1___wmul,w
  9308  04BD  0747               	addwf	??_handle_standard_control_request+2,w
  9309  04BE  0086               	movwf	6
  9310  04BF  0871               	movf	?i1___wmul+1,w
  9311  04C0  3D48               	addwfc	??_handle_standard_control_request+3,w
  9312  04C1  0087               	movwf	7
  9313  04C2  0801               	movf	1,w
  9314  04C3  00C9               	movwf	??_handle_standard_control_request+4
  9315  04C4  0864               	movf	handle_standard_control_request@ep_num_778,w
  9316  04C5  00CA               	movwf	??_handle_standard_control_request+5
  9317  04C6  3002               	movlw	2
  9318  04C7                     u344_25:	
  9319  04C7  35CA               	lslf	??_handle_standard_control_request+5,f
  9320  04C8  3EFF               	addlw	-1
  9321  04C9  1D03               	skipz
  9322  04CA  2CC7               	goto	u344_25
  9323  04CB  354A               	lslf	??_handle_standard_control_request+5,w
  9324  04CC  3E25               	addlw	37
  9325  04CD  0086               	movwf	6
  9326  04CE  0187               	clrf	7
  9327  04CF  0849               	movf	??_handle_standard_control_request+4,w
  9328  04D0  0081               	movwf	1
  9329  04D1  0864               	movf	handle_standard_control_request@ep_num_778,w
  9330  04D2  00C5               	movwf	??_handle_standard_control_request
  9331  04D3  3002               	movlw	2
  9332  04D4                     u345_25:	
  9333  04D4  35C5               	lslf	??_handle_standard_control_request,f
  9334  04D5  3EFF               	addlw	-1
  9335  04D6  1D03               	skipz
  9336  04D7  2CD4               	goto	u345_25
  9337  04D8  3545               	lslf	??_handle_standard_control_request,w
  9338  04D9  3E24               	addlw	36
  9339  04DA  0086               	movwf	6
  9340  04DB  0187               	clrf	7
  9341  04DC  0181               	clrf	1
  9342                           
  9343                           ;usb.c: 1100: ep_buf[ep_num].flags &= ~0x8;
  9344  04DD  30F7               	movlw	247
  9345  04DE  00C5               	movwf	??_handle_standard_control_request
  9346  04DF  0864               	movf	handle_standard_control_request@ep_num_778,w
  9347  04E0  00C6               	movwf	??_handle_standard_control_request+1
  9348  04E1  01C7               	clrf	??_handle_standard_control_request+2
  9349  04E2  0846               	movf	??_handle_standard_control_request+1,w
  9350  04E3  00F0               	movwf	i1___wmul@multiplier
  9351  04E4  0847               	movf	??_handle_standard_control_request+2,w
  9352  04E5  00F1               	movwf	i1___wmul@multiplier+1
  9353  04E6  3007               	movlw	7
  9354  04E7  00F2               	movwf	i1___wmul@multiplicand
  9355  04E8  3000               	movlw	0
  9356  04E9  00F3               	movwf	i1___wmul@multiplicand+1
  9357  04EA  319E  2678  3182   	fcall	i1___wmul
  9358  04ED  305E               	movlw	low (_ep_buf+6)
  9359  04EE  0020               	movlb	0	; select bank0
  9360  04EF  00C8               	movwf	??_handle_standard_control_request+3
  9361  04F0  3002               	movlw	high (_ep_buf+6)
  9362  04F1  00C9               	movwf	??_handle_standard_control_request+4
  9363  04F2  0870               	movf	?i1___wmul,w
  9364  04F3  0748               	addwf	??_handle_standard_control_request+3,w
  9365  04F4  0086               	movwf	6
  9366  04F5  0871               	movf	?i1___wmul+1,w
  9367  04F6  3D49               	addwfc	??_handle_standard_control_request+4,w
  9368  04F7  0087               	movwf	7
  9369  04F8  0845               	movf	??_handle_standard_control_request,w
  9370  04F9  0581               	andwf	1,f
  9371                           
  9372                           ;usb.c: 1102: ep_buf[ep_num].flags &= ~(0x2);
  9373  04FA  30FD               	movlw	253
  9374  04FB  2D4E               	goto	L5
  9375  04FC                     i1l3627:	
  9376                           ;usb.c: 1103: }
  9377                           
  9378  04FC  0864               	movf	handle_standard_control_request@ep_num_778,w
  9379  04FD  00C5               	movwf	??_handle_standard_control_request
  9380  04FE  01C6               	clrf	??_handle_standard_control_request+1
  9381  04FF  0845               	movf	??_handle_standard_control_request,w
  9382  0500  00F0               	movwf	i1___wmul@multiplier
  9383  0501  0846               	movf	??_handle_standard_control_request+1,w
  9384  0502  00F1               	movwf	i1___wmul@multiplier+1
  9385  0503  3007               	movlw	7
  9386  0504  00F2               	movwf	i1___wmul@multiplicand
  9387  0505  3000               	movlw	0
  9388  0506  00F3               	movwf	i1___wmul@multiplicand+1
  9389  0507  319E  2678  3182   	fcall	i1___wmul
  9390  050A  305C               	movlw	low (_ep_buf+4)
  9391  050B  0020               	movlb	0	; select bank0
  9392  050C  00C7               	movwf	??_handle_standard_control_request+2
  9393  050D  3002               	movlw	high (_ep_buf+4)
  9394  050E  00C8               	movwf	??_handle_standard_control_request+3
  9395  050F  0870               	movf	?i1___wmul,w
  9396  0510  0747               	addwf	??_handle_standard_control_request+2,w
  9397  0511  0086               	movwf	6
  9398  0512  0871               	movf	?i1___wmul+1,w
  9399  0513  3D48               	addwfc	??_handle_standard_control_request+3,w
  9400  0514  0087               	movwf	7
  9401  0515  0801               	movf	1,w
  9402  0516  00C9               	movwf	??_handle_standard_control_request+4
  9403  0517  0864               	movf	handle_standard_control_request@ep_num_778,w
  9404  0518  00CA               	movwf	??_handle_standard_control_request+5
  9405  0519  3002               	movlw	2
  9406  051A                     u346_25:	
  9407  051A  35CA               	lslf	??_handle_standard_control_request+5,f
  9408  051B  3EFF               	addlw	-1
  9409  051C  1D03               	skipz
  9410  051D  2D1A               	goto	u346_25
  9411  051E  354A               	lslf	??_handle_standard_control_request+5,w
  9412  051F  3E21               	addlw	33
  9413  0520  0086               	movwf	6
  9414  0521  0187               	clrf	7
  9415  0522  0849               	movf	??_handle_standard_control_request+4,w
  9416  0523  0081               	movwf	1
  9417  0524  3088               	movlw	136
  9418  0525  00C5               	movwf	??_handle_standard_control_request
  9419  0526  0864               	movf	handle_standard_control_request@ep_num_778,w
  9420  0527  00C6               	movwf	??_handle_standard_control_request+1
  9421  0528  3002               	movlw	2
  9422  0529                     u347_25:	
  9423  0529  35C6               	lslf	??_handle_standard_control_request+1,f
  9424  052A  3EFF               	addlw	-1
  9425  052B  1D03               	skipz
  9426  052C  2D29               	goto	u347_25
  9427  052D  3546               	lslf	??_handle_standard_control_request+1,w
  9428  052E  3E20               	addlw	32
  9429  052F  0086               	movwf	6
  9430  0530  0187               	clrf	7
  9431  0531  0845               	movf	??_handle_standard_control_request,w
  9432  0532  0081               	movwf	1
  9433                           
  9434                           ;usb.c: 1117: ep_buf[ep_num].flags |= 0x4;
  9435  0533  0864               	movf	handle_standard_control_request@ep_num_778,w
  9436  0534  00C5               	movwf	??_handle_standard_control_request
  9437  0535  01C6               	clrf	??_handle_standard_control_request+1
  9438  0536  0845               	movf	??_handle_standard_control_request,w
  9439  0537  00F0               	movwf	i1___wmul@multiplier
  9440  0538  0846               	movf	??_handle_standard_control_request+1,w
  9441  0539  00F1               	movwf	i1___wmul@multiplier+1
  9442  053A  3007               	movlw	7
  9443  053B  00F2               	movwf	i1___wmul@multiplicand
  9444  053C  3000               	movlw	0
  9445  053D  00F3               	movwf	i1___wmul@multiplicand+1
  9446  053E  319E  2678  3182   	fcall	i1___wmul
  9447  0541  305E               	movlw	low (_ep_buf+6)
  9448  0542  0020               	movlb	0	; select bank0
  9449  0543  00C7               	movwf	??_handle_standard_control_request+2
  9450  0544  3002               	movlw	high (_ep_buf+6)
  9451  0545  00C8               	movwf	??_handle_standard_control_request+3
  9452  0546  0870               	movf	?i1___wmul,w
  9453  0547  0747               	addwf	??_handle_standard_control_request+2,w
  9454  0548  0086               	movwf	6
  9455  0549  0871               	movf	?i1___wmul+1,w
  9456  054A  3D48               	addwfc	??_handle_standard_control_request+3,w
  9457  054B  0087               	movwf	7
  9458  054C  1501               	bsf	1,2
  9459                           
  9460                           ;usb.c: 1119: ep_buf[ep_num].flags &= ~(0x1);
  9461  054D  30FE               	movlw	254
  9462  054E                     L5:	
  9463  054E  00C5               	movwf	??_handle_standard_control_request
  9464  054F  0864               	movf	handle_standard_control_request@ep_num_778,w
  9465  0550  00C6               	movwf	??_handle_standard_control_request+1
  9466  0551  01C7               	clrf	??_handle_standard_control_request+2
  9467  0552  0846               	movf	??_handle_standard_control_request+1,w
  9468  0553  00F0               	movwf	i1___wmul@multiplier
  9469  0554  0847               	movf	??_handle_standard_control_request+2,w
  9470  0555  00F1               	movwf	i1___wmul@multiplier+1
  9471  0556  3007               	movlw	7
  9472  0557  00F2               	movwf	i1___wmul@multiplicand
  9473  0558  3000               	movlw	0
  9474  0559  00F3               	movwf	i1___wmul@multiplicand+1
  9475  055A  319E  2678  3182   	fcall	i1___wmul
  9476  055D  305E               	movlw	low (_ep_buf+6)
  9477  055E  0020               	movlb	0	; select bank0
  9478  055F  00C8               	movwf	??_handle_standard_control_request+3
  9479  0560  3002               	movlw	high (_ep_buf+6)
  9480  0561  00C9               	movwf	??_handle_standard_control_request+4
  9481  0562  0870               	movf	?i1___wmul,w
  9482  0563  0748               	addwf	??_handle_standard_control_request+3,w
  9483  0564  0086               	movwf	6
  9484  0565  0871               	movf	?i1___wmul+1,w
  9485  0566  3D49               	addwfc	??_handle_standard_control_request+4,w
  9486  0567  0087               	movwf	7
  9487  0568  0845               	movf	??_handle_standard_control_request,w
  9488  0569  0581               	andwf	1,f
  9489  056A                     i1l3635:	
  9490                           
  9491                           ;usb.c: 1120: };usb.c: 1121: };usb.c: 1123: app_endpoint_halt_callback(setup->wIndex, (s
      +                          etup->bRequest == SET_FEATURE));
  9492  056A  0020               	movlb	0	; select bank0
  9493  056B  0865               	movf	handle_standard_control_request@setup,w
  9494  056C  0086               	movwf	6
  9495  056D  0866               	movf	handle_standard_control_request@setup+1,w
  9496  056E  0087               	movwf	7
  9497  056F  3141               	addfsr 1,1
  9498  0570  3003               	movlw	3
  9499  0571  0601               	xorwf	1,w
  9500  0572  1D03               	btfss	3,2
  9501  0573  2D76               	goto	u348_20
  9502  0574  3001               	movlw	1
  9503  0575  2D77               	goto	u349_20
  9504  0576                     u348_20:	
  9505  0576  3000               	movlw	0
  9506  0577                     u349_20:	
  9507  0577  00C5               	movwf	??_handle_standard_control_request
  9508  0578  0845               	movf	??_handle_standard_control_request,w
  9509  0579  00F0               	movwf	app_endpoint_halt_callback@halted
  9510  057A  0865               	movf	handle_standard_control_request@setup,w
  9511  057B  0086               	movwf	6
  9512  057C  0866               	movf	handle_standard_control_request@setup+1,w
  9513  057D  0087               	movwf	7
  9514  057E  3144               	addfsr 1,4
  9515  057F  0801               	movf	1,w
  9516  0580  3182  2203  3182   	fcall	_app_endpoint_halt_callback
  9517                           
  9518                           ;usb.c: 1125: stall = 0;
  9519  0583  01D3               	clrf	handle_standard_control_request@stall
  9520  0584                     i1l3639:	
  9521                           
  9522                           ;usb.c: 1126: };usb.c: 1127: };usb.c: 1128: };usb.c: 1130: if (!stall) {
  9523  0584  0853               	movf	handle_standard_control_request@stall,w
  9524  0585  1903               	btfsc	3,2
  9525  0586  2B30               	goto	i1l3525
  9526  0587  2AA0               	goto	i1l3495
  9527  0588                     i1l303:	
  9528                           
  9529                           ;usb.c: 1136: else {;usb.c: 1137: res = -1;
  9530  0588  01D2               	clrf	handle_standard_control_request@res
  9531  0589  03D2               	decf	handle_standard_control_request@res,f
  9532  058A                     i1l3645:	
  9533                           
  9534                           ;usb.c: 1144: };usb.c: 1146: return res;
  9535  058A  0020               	movlb	0	; select bank0
  9536  058B  0852               	movf	handle_standard_control_request@res,w
  9537  058C  0008               	return
  9538  058D                     __end_of_handle_standard_control_request:	
  9539                           
  9540                           	psect	text41
  9541  0B76                     __ptext41:	
  9542 ;; *************** function i1_init_endpoints *****************
  9543 ;; Defined at:
  9544 ;;		line 495 in file "../../../usb/src/usb.c"
  9545 ;; Parameters:    Size  Location     Type
  9546 ;;		None
  9547 ;; Auto vars:     Size  Location     Type
  9548 ;;  init_endpoin    1   20[BANK0 ] unsigned char 
  9549 ;; Return value:  Size  Location     Type
  9550 ;;                  1    wreg      void 
  9551 ;; Registers used:
  9552 ;;		wreg, fsr1l, fsr1h, status,2, status,0, pclath, cstack
  9553 ;; Tracked objects:
  9554 ;;		On entry : 1F/0
  9555 ;;		On exit  : 1F/1D
  9556 ;;		Unchanged: 0/0
  9557 ;; Data sizes:     COMMON   BANK0   BANK1   BANK2   BANK3   BANK4   BANK5   BANK6   BANK7   BANK8   BANK9  BANK10  BANK1
      +1  BANK12
  9558 ;;      Params:         0       0       0       0       0       0       0       0       0       0       0       0       
      +0       0
  9559 ;;      Locals:         0       3       0       0       0       0       0       0       0       0       0       0       
      +0       0
  9560 ;;      Temps:          0       6       0       0       0       0       0       0       0       0       0       0       
      +0       0
  9561 ;;      Totals:         0       9       0       0       0       0       0       0       0       0       0       0       
      +0       0
  9562 ;;Total ram usage:        9 bytes
  9563 ;; Hardware stack levels used:    1
  9564 ;; Hardware stack levels required when called:    2
  9565 ;; This function calls:
  9566 ;;		i1___wmul
  9567 ;;		i1_memset
  9568 ;;		i1_pic16_linear_addr
  9569 ;; This function is called by:
  9570 ;;		_handle_standard_control_request
  9571 ;;		i1_usb_init
  9572 ;; This function uses a non-reentrant model
  9573 ;;
  9574                           
  9575                           
  9576                           ;psect for function i1_init_endpoints
  9577  0B76                     i1_init_endpoints:	
  9578                           
  9579                           ;usb.c: 497: uint8_t i;;usb.c: 501: UCONbits.PPBRST = 1;
  9580                           
  9581                           ;incstack = 0
  9582                           ; Regs used in i1_init_endpoints: [wreg+fsr1l+fsr1h+status,2+status,0+pclath+cstack]
  9583  0B76  003D               	movlb	29	; select bank29
  9584  0B77  170E               	bsf	14,6	;volatile
  9585                           
  9586                           ;usb.c: 503: ep0_buf.flags = 0;
  9587  0B78  0023               	movlb	3	; select bank3
  9588  0B79  01EE               	clrf	(_ep0_buf^(0+384)+4)
  9589                           
  9590                           ;usb.c: 504: for (i = 0; i <= 1; i++) {
  9591  0B7A  0020               	movlb	0	; select bank0
  9592  0B7B  01C4               	clrf	i1init_endpoints@i
  9593  0B7C                     i1l3411:	
  9594                           
  9595                           ;usb.c: 508: ep_buf[i].flags = 0x4;
  9596  0B7C  0844               	movf	i1init_endpoints@i,w
  9597  0B7D  00BC               	movwf	??i1_init_endpoints
  9598  0B7E  01BD               	clrf	??i1_init_endpoints+1
  9599  0B7F  083C               	movf	??i1_init_endpoints,w
  9600  0B80  00F0               	movwf	i1___wmul@multiplier
  9601  0B81  083D               	movf	??i1_init_endpoints+1,w
  9602  0B82  00F1               	movwf	i1___wmul@multiplier+1
  9603  0B83  3007               	movlw	7
  9604  0B84  00F2               	movwf	i1___wmul@multiplicand
  9605  0B85  3000               	movlw	0
  9606  0B86  00F3               	movwf	i1___wmul@multiplicand+1
  9607  0B87  319E  2678  318B   	fcall	i1___wmul
  9608  0B8A  305E               	movlw	low (_ep_buf+6)
  9609  0B8B  0020               	movlb	0	; select bank0
  9610  0B8C  00BE               	movwf	??i1_init_endpoints+2
  9611  0B8D  3002               	movlw	high (_ep_buf+6)
  9612  0B8E  00BF               	movwf	??i1_init_endpoints+3
  9613  0B8F  0870               	movf	?i1___wmul,w
  9614  0B90  073E               	addwf	??i1_init_endpoints+2,w
  9615  0B91  00C0               	movwf	??i1_init_endpoints+4
  9616  0B92  0871               	movf	?i1___wmul+1,w
  9617  0B93  3D3F               	addwfc	??i1_init_endpoints+3,w
  9618  0B94  00C1               	movwf	??i1_init_endpoints+5
  9619  0B95  0840               	movf	??i1_init_endpoints+4,w
  9620  0B96  0086               	movwf	6
  9621  0B97  0841               	movf	??i1_init_endpoints+5,w
  9622  0B98  0087               	movwf	7
  9623  0B99  3004               	movlw	4
  9624  0B9A  0081               	movwf	1
  9625  0B9B  3001               	movlw	1
  9626  0B9C  00BC               	movwf	??i1_init_endpoints
  9627  0B9D  083C               	movf	??i1_init_endpoints,w
  9628  0B9E  07C4               	addwf	i1init_endpoints@i,f
  9629  0B9F  3002               	movlw	2
  9630  0BA0  0244               	subwf	i1init_endpoints@i,w
  9631  0BA1  1C03               	skipc
  9632  0BA2  2B7C               	goto	i1l3411
  9633                           
  9634                           ;usb.c: 510: };usb.c: 513: memset(bds, 0x0, sizeof(bds));
  9635  0BA3  3020               	movlw	32
  9636  0BA4  00F0               	movwf	i1memset@p1
  9637  0BA5  3000               	movlw	0
  9638  0BA6  00F1               	movwf	i1memset@p1+1
  9639  0BA7  3000               	movlw	0
  9640  0BA8  00F2               	movwf	i1memset@c
  9641  0BA9  00F3               	movwf	i1memset@c+1
  9642  0BAA  3010               	movlw	16
  9643  0BAB  00F4               	movwf	i1memset@n
  9644  0BAC  3000               	movlw	0
  9645  0BAD  00F5               	movwf	i1memset@n+1
  9646  0BAE  319E  2660  318B   	fcall	i1_memset
  9647                           
  9648                           ;usb.c: 517: bds[0].BDnADR = (uint16_t) pic16_linear_addr(ep0_buf.out);
  9649  0BB1  0023               	movlb	3	; select bank3
  9650  0BB2  086B               	movf	(_ep0_buf+1)^(0+384),w
  9651  0BB3  00F7               	movwf	i1pic16_linear_addr@ptr+1
  9652  0BB4  086A               	movf	_ep0_buf^(0+384),w
  9653  0BB5  00F6               	movwf	i1pic16_linear_addr@ptr
  9654  0BB6  3191  21A6  318B   	fcall	i1_pic16_linear_addr
  9655  0BB9  0877               	movf	?i1_pic16_linear_addr+1,w
  9656  0BBA  0020               	movlb	0	; select bank0
  9657  0BBB  00A3               	movwf	35
  9658  0BBC  0876               	movf	?i1_pic16_linear_addr,w
  9659  0BBD  00A2               	movwf	34
  9660  0BBE  3008               	movlw	8
  9661  0BBF  00A1               	movwf	33
  9662  0BC0  3080               	movlw	128
  9663  0BC1  00BC               	movwf	??i1_init_endpoints
  9664  0BC2  083C               	movf	??i1_init_endpoints,w
  9665  0BC3  00A0               	movwf	32
  9666                           
  9667                           ;usb.c: 527: bds[1].BDnADR = (uint16_t) pic16_linear_addr(ep0_buf.in);
  9668  0BC4  0023               	movlb	3	; select bank3
  9669  0BC5  086D               	movf	((_ep0_buf+1)^(0+384)+2),w
  9670  0BC6  00F7               	movwf	i1pic16_linear_addr@ptr+1
  9671  0BC7  086C               	movf	(_ep0_buf^(0+384)+2),w
  9672  0BC8  00F6               	movwf	i1pic16_linear_addr@ptr
  9673  0BC9  3191  21A6  318B   	fcall	i1_pic16_linear_addr
  9674  0BCC  0877               	movf	?i1_pic16_linear_addr+1,w
  9675  0BCD  0020               	movlb	0	; select bank0
  9676  0BCE  00A7               	movwf	39
  9677  0BCF  0876               	movf	?i1_pic16_linear_addr,w
  9678  0BD0  00A6               	movwf	38
  9679  0BD1  3008               	movlw	8
  9680  0BD2  00BC               	movwf	??i1_init_endpoints
  9681  0BD3  083C               	movf	??i1_init_endpoints,w
  9682  0BD4  00A5               	movwf	37
  9683  0BD5  01A4               	clrf	36
  9684                           
  9685                           ;usb.c: 534: for (i = 1; i <= 1; i++) {
  9686  0BD6  01C4               	clrf	i1init_endpoints@i
  9687  0BD7  0AC4               	incf	i1init_endpoints@i,f
  9688  0BD8                     i1l3437:	
  9689                           
  9690                           ;usb.c: 537: bds[(i) * 2].BDnADR = (uint16_t) pic16_linear_addr(ep_buf[i].out);
  9691  0BD8  0844               	movf	i1init_endpoints@i,w
  9692  0BD9  00BC               	movwf	??i1_init_endpoints
  9693  0BDA  01BD               	clrf	??i1_init_endpoints+1
  9694  0BDB  083C               	movf	??i1_init_endpoints,w
  9695  0BDC  00F0               	movwf	i1___wmul@multiplier
  9696  0BDD  083D               	movf	??i1_init_endpoints+1,w
  9697  0BDE  00F1               	movwf	i1___wmul@multiplier+1
  9698  0BDF  3007               	movlw	7
  9699  0BE0  00F2               	movwf	i1___wmul@multiplicand
  9700  0BE1  3000               	movlw	0
  9701  0BE2  00F3               	movwf	i1___wmul@multiplicand+1
  9702  0BE3  319E  2678  318B   	fcall	i1___wmul
  9703  0BE6  3058               	movlw	low _ep_buf
  9704  0BE7  0020               	movlb	0	; select bank0
  9705  0BE8  00BE               	movwf	??i1_init_endpoints+2
  9706  0BE9  3002               	movlw	high _ep_buf
  9707  0BEA  00BF               	movwf	??i1_init_endpoints+3
  9708  0BEB  0870               	movf	?i1___wmul,w
  9709  0BEC  073E               	addwf	??i1_init_endpoints+2,w
  9710  0BED  0086               	movwf	6
  9711  0BEE  0871               	movf	?i1___wmul+1,w
  9712  0BEF  3D3F               	addwfc	??i1_init_endpoints+3,w
  9713  0BF0  0087               	movwf	7
  9714  0BF1  3F40               	moviw [0]fsr1
  9715  0BF2  00C2               	movwf	i1_init_endpoints$2120
  9716  0BF3  3F41               	moviw [1]fsr1
  9717  0BF4  00C3               	movwf	i1_init_endpoints$2120+1
  9718                           
  9719                           ;usb.c: 537: bds[(i) * 2].BDnADR = (uint16_t) pic16_linear_addr(ep_buf[i].out);
  9720  0BF5  0843               	movf	i1_init_endpoints$2120+1,w
  9721  0BF6  00F7               	movwf	i1pic16_linear_addr@ptr+1
  9722  0BF7  0842               	movf	i1_init_endpoints$2120,w
  9723  0BF8  00F6               	movwf	i1pic16_linear_addr@ptr
  9724  0BF9  3191  21A6  318B   	fcall	i1_pic16_linear_addr
  9725  0BFC  0020               	movlb	0	; select bank0
  9726  0BFD  0844               	movf	i1init_endpoints@i,w
  9727  0BFE  00BC               	movwf	??i1_init_endpoints
  9728  0BFF  3002               	movlw	2
  9729  0C00                     u303_25:	
  9730  0C00  35BC               	lslf	??i1_init_endpoints,f
  9731  0C01  3EFF               	addlw	-1
  9732  0C02  1D03               	skipz
  9733  0C03  2C00               	goto	u303_25
  9734  0C04  353C               	lslf	??i1_init_endpoints,w
  9735  0C05  3E22               	addlw	34
  9736  0C06  0086               	movwf	6
  9737  0C07  0187               	clrf	7
  9738  0C08  0876               	movf	?i1_pic16_linear_addr,w
  9739  0C09  3FC0               	movwi [0]fsr1
  9740  0C0A  0877               	movf	?i1_pic16_linear_addr+1,w
  9741  0C0B  3FC1               	movwi [1]fsr1
  9742                           
  9743                           ;usb.c: 538: do { (bds[(i) * 2]).BDnCNT = (ep_buf[i].out_len); (bds[(i) * 2]).STAT.BDnST
      +                          AT = (0x80|0x08); } while(0);
  9744  0C0C  0844               	movf	i1init_endpoints@i,w
  9745  0C0D  00BC               	movwf	??i1_init_endpoints
  9746  0C0E  01BD               	clrf	??i1_init_endpoints+1
  9747  0C0F  083C               	movf	??i1_init_endpoints,w
  9748  0C10  00F0               	movwf	i1___wmul@multiplier
  9749  0C11  083D               	movf	??i1_init_endpoints+1,w
  9750  0C12  00F1               	movwf	i1___wmul@multiplier+1
  9751  0C13  3007               	movlw	7
  9752  0C14  00F2               	movwf	i1___wmul@multiplicand
  9753  0C15  3000               	movlw	0
  9754  0C16  00F3               	movwf	i1___wmul@multiplicand+1
  9755  0C17  319E  2678  318B   	fcall	i1___wmul
  9756  0C1A  305C               	movlw	low (_ep_buf+4)
  9757  0C1B  0020               	movlb	0	; select bank0
  9758  0C1C  00BE               	movwf	??i1_init_endpoints+2
  9759  0C1D  3002               	movlw	high (_ep_buf+4)
  9760  0C1E  00BF               	movwf	??i1_init_endpoints+3
  9761  0C1F  0870               	movf	?i1___wmul,w
  9762  0C20  073E               	addwf	??i1_init_endpoints+2,w
  9763  0C21  0086               	movwf	6
  9764  0C22  0871               	movf	?i1___wmul+1,w
  9765  0C23  3D3F               	addwfc	??i1_init_endpoints+3,w
  9766  0C24  0087               	movwf	7
  9767  0C25  0801               	movf	1,w
  9768  0C26  00C0               	movwf	??i1_init_endpoints+4
  9769  0C27  0844               	movf	i1init_endpoints@i,w
  9770  0C28  00C1               	movwf	??i1_init_endpoints+5
  9771  0C29  3002               	movlw	2
  9772  0C2A                     u304_25:	
  9773  0C2A  35C1               	lslf	??i1_init_endpoints+5,f
  9774  0C2B  3EFF               	addlw	-1
  9775  0C2C  1D03               	skipz
  9776  0C2D  2C2A               	goto	u304_25
  9777  0C2E  3541               	lslf	??i1_init_endpoints+5,w
  9778  0C2F  3E21               	addlw	33
  9779  0C30  0086               	movwf	6
  9780  0C31  0187               	clrf	7
  9781  0C32  0840               	movf	??i1_init_endpoints+4,w
  9782  0C33  0081               	movwf	1
  9783  0C34  3088               	movlw	136
  9784  0C35  00BC               	movwf	??i1_init_endpoints
  9785  0C36  0844               	movf	i1init_endpoints@i,w
  9786  0C37  00BD               	movwf	??i1_init_endpoints+1
  9787  0C38  3002               	movlw	2
  9788  0C39                     u305_25:	
  9789  0C39  35BD               	lslf	??i1_init_endpoints+1,f
  9790  0C3A  3EFF               	addlw	-1
  9791  0C3B  1D03               	skipz
  9792  0C3C  2C39               	goto	u305_25
  9793  0C3D  353D               	lslf	??i1_init_endpoints+1,w
  9794  0C3E  3E20               	addlw	32
  9795  0C3F  0086               	movwf	6
  9796  0C40  0187               	clrf	7
  9797  0C41  083C               	movf	??i1_init_endpoints,w
  9798  0C42  0081               	movwf	1
  9799                           
  9800                           ;usb.c: 546: bds[(i) * 2 + 1].BDnADR = (uint16_t) pic16_linear_addr(ep_buf[i].in);
  9801  0C43  0844               	movf	i1init_endpoints@i,w
  9802  0C44  00BC               	movwf	??i1_init_endpoints
  9803  0C45  01BD               	clrf	??i1_init_endpoints+1
  9804  0C46  083C               	movf	??i1_init_endpoints,w
  9805  0C47  00F0               	movwf	i1___wmul@multiplier
  9806  0C48  083D               	movf	??i1_init_endpoints+1,w
  9807  0C49  00F1               	movwf	i1___wmul@multiplier+1
  9808  0C4A  3007               	movlw	7
  9809  0C4B  00F2               	movwf	i1___wmul@multiplicand
  9810  0C4C  3000               	movlw	0
  9811  0C4D  00F3               	movwf	i1___wmul@multiplicand+1
  9812  0C4E  319E  2678  318B   	fcall	i1___wmul
  9813  0C51  305A               	movlw	low (_ep_buf+2)
  9814  0C52  0020               	movlb	0	; select bank0
  9815  0C53  00BE               	movwf	??i1_init_endpoints+2
  9816  0C54  3002               	movlw	high (_ep_buf+2)
  9817  0C55  00BF               	movwf	??i1_init_endpoints+3
  9818  0C56  0870               	movf	?i1___wmul,w
  9819  0C57  073E               	addwf	??i1_init_endpoints+2,w
  9820  0C58  0086               	movwf	6
  9821  0C59  0871               	movf	?i1___wmul+1,w
  9822  0C5A  3D3F               	addwfc	??i1_init_endpoints+3,w
  9823  0C5B  0087               	movwf	7
  9824  0C5C  3F40               	moviw [0]fsr1
  9825  0C5D  00C2               	movwf	i1_init_endpoints$2120
  9826  0C5E  3F41               	moviw [1]fsr1
  9827  0C5F  00C3               	movwf	i1_init_endpoints$2120+1
  9828                           
  9829                           ;usb.c: 546: bds[(i) * 2 + 1].BDnADR = (uint16_t) pic16_linear_addr(ep_buf[i].in);
  9830  0C60  0843               	movf	i1_init_endpoints$2120+1,w
  9831  0C61  00F7               	movwf	i1pic16_linear_addr@ptr+1
  9832  0C62  0842               	movf	i1_init_endpoints$2120,w
  9833  0C63  00F6               	movwf	i1pic16_linear_addr@ptr
  9834  0C64  3191  21A6  318B   	fcall	i1_pic16_linear_addr
  9835  0C67  0020               	movlb	0	; select bank0
  9836  0C68  0844               	movf	i1init_endpoints@i,w
  9837  0C69  00BC               	movwf	??i1_init_endpoints
  9838  0C6A  3002               	movlw	2
  9839  0C6B                     u306_25:	
  9840  0C6B  35BC               	lslf	??i1_init_endpoints,f
  9841  0C6C  3EFF               	addlw	-1
  9842  0C6D  1D03               	skipz
  9843  0C6E  2C6B               	goto	u306_25
  9844  0C6F  353C               	lslf	??i1_init_endpoints,w
  9845  0C70  3E26               	addlw	38
  9846  0C71  0086               	movwf	6
  9847  0C72  0187               	clrf	7
  9848  0C73  0876               	movf	?i1_pic16_linear_addr,w
  9849  0C74  3FC0               	movwi [0]fsr1
  9850  0C75  0877               	movf	?i1_pic16_linear_addr+1,w
  9851  0C76  3FC1               	movwi [1]fsr1
  9852  0C77  0844               	movf	i1init_endpoints@i,w
  9853  0C78  00BC               	movwf	??i1_init_endpoints
  9854  0C79  01BD               	clrf	??i1_init_endpoints+1
  9855  0C7A  083C               	movf	??i1_init_endpoints,w
  9856  0C7B  00F0               	movwf	i1___wmul@multiplier
  9857  0C7C  083D               	movf	??i1_init_endpoints+1,w
  9858  0C7D  00F1               	movwf	i1___wmul@multiplier+1
  9859  0C7E  3007               	movlw	7
  9860  0C7F  00F2               	movwf	i1___wmul@multiplicand
  9861  0C80  3000               	movlw	0
  9862  0C81  00F3               	movwf	i1___wmul@multiplicand+1
  9863  0C82  319E  2678  318B   	fcall	i1___wmul
  9864  0C85  305D               	movlw	low (_ep_buf+5)
  9865  0C86  0020               	movlb	0	; select bank0
  9866  0C87  00BE               	movwf	??i1_init_endpoints+2
  9867  0C88  3002               	movlw	high (_ep_buf+5)
  9868  0C89  00BF               	movwf	??i1_init_endpoints+3
  9869  0C8A  0870               	movf	?i1___wmul,w
  9870  0C8B  073E               	addwf	??i1_init_endpoints+2,w
  9871  0C8C  0086               	movwf	6
  9872  0C8D  0871               	movf	?i1___wmul+1,w
  9873  0C8E  3D3F               	addwfc	??i1_init_endpoints+3,w
  9874  0C8F  0087               	movwf	7
  9875  0C90  0801               	movf	1,w
  9876  0C91  00C0               	movwf	??i1_init_endpoints+4
  9877  0C92  0844               	movf	i1init_endpoints@i,w
  9878  0C93  00C1               	movwf	??i1_init_endpoints+5
  9879  0C94  3002               	movlw	2
  9880  0C95                     u307_25:	
  9881  0C95  35C1               	lslf	??i1_init_endpoints+5,f
  9882  0C96  3EFF               	addlw	-1
  9883  0C97  1D03               	skipz
  9884  0C98  2C95               	goto	u307_25
  9885  0C99  3541               	lslf	??i1_init_endpoints+5,w
  9886  0C9A  3E25               	addlw	37
  9887  0C9B  0086               	movwf	6
  9888  0C9C  0187               	clrf	7
  9889  0C9D  0840               	movf	??i1_init_endpoints+4,w
  9890  0C9E  0081               	movwf	1
  9891  0C9F  0844               	movf	i1init_endpoints@i,w
  9892  0CA0  00BC               	movwf	??i1_init_endpoints
  9893  0CA1  3002               	movlw	2
  9894  0CA2                     u308_25:	
  9895  0CA2  35BC               	lslf	??i1_init_endpoints,f
  9896  0CA3  3EFF               	addlw	-1
  9897  0CA4  1D03               	skipz
  9898  0CA5  2CA2               	goto	u308_25
  9899  0CA6  353C               	lslf	??i1_init_endpoints,w
  9900  0CA7  3E24               	addlw	36
  9901  0CA8  0086               	movwf	6
  9902  0CA9  0187               	clrf	7
  9903  0CAA  0181               	clrf	1
  9904  0CAB  3001               	movlw	1
  9905  0CAC  00BC               	movwf	??i1_init_endpoints
  9906  0CAD  083C               	movf	??i1_init_endpoints,w
  9907  0CAE  07C4               	addwf	i1init_endpoints@i,f
  9908  0CAF  3002               	movlw	2
  9909  0CB0  0244               	subwf	i1init_endpoints@i,w
  9910  0CB1  1C03               	skipc
  9911  0CB2  2BD8               	goto	i1l3437
  9912                           
  9913                           ;usb.c: 553: };usb.c: 555: UCONbits.PPBRST = 0;
  9914  0CB3  003D               	movlb	29	; select bank29
  9915  0CB4  130E               	bcf	14,6	;volatile
  9916  0CB5  0008               	return
  9917  0CB6                     __end_ofi1_init_endpoints:	
  9918                           
  9919                           	psect	text42
  9920  11A6                     __ptext42:	
  9921 ;; *************** function i1_pic16_linear_addr *****************
  9922 ;; Defined at:
  9923 ;;		line 456 in file "../../../usb/src/usb.c"
  9924 ;; Parameters:    Size  Location     Type
  9925 ;;  ptr             2    6[COMMON] PTR void 
  9926 ;;		 -> NULL(0), ep_buffers(144), 
  9927 ;; Auto vars:     Size  Location     Type
  9928 ;;  pic16_linear    2   10[COMMON] unsigned int 
  9929 ;;  pic16_linear    1    9[COMMON] unsigned char 
  9930 ;;  pic16_linear    1    8[COMMON] unsigned char 
  9931 ;; Return value:  Size  Location     Type
  9932 ;;                  2    6[COMMON] unsigned int 
  9933 ;; Registers used:
  9934 ;;		wreg, status,2, status,0, pclath, cstack
  9935 ;; Tracked objects:
  9936 ;;		On entry : 1C/3
  9937 ;;		On exit  : 1C/0
  9938 ;;		Unchanged: 0/0
  9939 ;; Data sizes:     COMMON   BANK0   BANK1   BANK2   BANK3   BANK4   BANK5   BANK6   BANK7   BANK8   BANK9  BANK10  BANK1
      +1  BANK12
  9940 ;;      Params:         2       0       0       0       0       0       0       0       0       0       0       0       
      +0       0
  9941 ;;      Locals:         4       0       0       0       0       0       0       0       0       0       0       0       
      +0       0
  9942 ;;      Temps:          0      12       0       0       0       0       0       0       0       0       0       0       
      +0       0
  9943 ;;      Totals:         6      12       0       0       0       0       0       0       0       0       0       0       
      +0       0
  9944 ;;Total ram usage:       18 bytes
  9945 ;; Hardware stack levels used:    1
  9946 ;; Hardware stack levels required when called:    1
  9947 ;; This function calls:
  9948 ;;		i1___wmul
  9949 ;; This function is called by:
  9950 ;;		i1_init_endpoints
  9951 ;; This function uses a non-reentrant model
  9952 ;;
  9953                           
  9954                           
  9955                           ;psect for function i1_pic16_linear_addr
  9956  11A6                     i1_pic16_linear_addr:	
  9957                           
  9958                           ;usb.c: 458: uint8_t high, low;;usb.c: 459: uint16_t addr = (uint16_t) ptr;
  9959                           
  9960                           ;incstack = 0
  9961                           ; Regs used in i1_pic16_linear_addr: [wreg+status,2+status,0+pclath+cstack]
  9962  11A6  0877               	movf	i1pic16_linear_addr@ptr+1,w
  9963  11A7  00FB               	movwf	i1pic16_linear_addr@addr+1
  9964  11A8  0876               	movf	i1pic16_linear_addr@ptr,w
  9965  11A9  00FA               	movwf	i1pic16_linear_addr@addr
  9966                           
  9967                           ;usb.c: 462: if (addr >= 0x2000)
  9968  11AA  3020               	movlw	32
  9969  11AB  027B               	subwf	i1pic16_linear_addr@addr+1,w
  9970  11AC  3000               	movlw	0
  9971  11AD  1903               	skipnz
  9972  11AE  027A               	subwf	i1pic16_linear_addr@addr,w
  9973  11AF  1C03               	skipc
  9974  11B0  29B6               	goto	i1l3123
  9975                           
  9976                           ;usb.c: 463: return addr;
  9977  11B1  087B               	movf	i1pic16_linear_addr@addr+1,w
  9978  11B2  00F7               	movwf	?i1_pic16_linear_addr+1
  9979  11B3  087A               	movf	i1pic16_linear_addr@addr,w
  9980  11B4  00F6               	movwf	?i1_pic16_linear_addr
  9981  11B5  0008               	return
  9982  11B6                     i1l3123:	
  9983                           
  9984                           ;usb.c: 465: high = (addr & 0xff00) >> 8;
  9985  11B6  087B               	movf	i1pic16_linear_addr@addr+1,w
  9986  11B7  0020               	movlb	0	; select bank0
  9987  11B8  00B0               	movwf	??i1_pic16_linear_addr
  9988  11B9  0830               	movf	??i1_pic16_linear_addr,w
  9989  11BA  00F8               	movwf	i1pic16_linear_addr@high
  9990                           
  9991                           ;usb.c: 466: low = addr & 0x00ff;
  9992  11BB  087A               	movf	i1pic16_linear_addr@addr,w
  9993  11BC  00B0               	movwf	??i1_pic16_linear_addr
  9994  11BD  0830               	movf	??i1_pic16_linear_addr,w
  9995  11BE  00F9               	movwf	i1pic16_linear_addr@low
  9996                           
  9997                           ;usb.c: 468: return 0x2000 +;usb.c: 469: (low & 0x7f) - 0x20 +;usb.c: 470: ((high << 1) 
      +                          + (low & 0x80)? 1: 0) * 0x50;
  9998  11BF  0879               	movf	i1pic16_linear_addr@low,w
  9999  11C0  397F               	andlw	127
 10000  11C1  00B0               	movwf	??i1_pic16_linear_addr
 10001  11C2  01B1               	clrf	??i1_pic16_linear_addr+1
 10002  11C3  0879               	movf	i1pic16_linear_addr@low,w
 10003  11C4  3980               	andlw	128
 10004  11C5  00B2               	movwf	??i1_pic16_linear_addr+2
 10005  11C6  01B3               	clrf	??i1_pic16_linear_addr+3
 10006  11C7  0878               	movf	i1pic16_linear_addr@high,w
 10007  11C8  00B4               	movwf	??i1_pic16_linear_addr+4
 10008  11C9  01B5               	clrf	??i1_pic16_linear_addr+5
 10009  11CA  35B4               	lslf	??i1_pic16_linear_addr+4,f
 10010  11CB  0DB5               	rlf	??i1_pic16_linear_addr+5,f
 10011  11CC  0832               	movf	??i1_pic16_linear_addr+2,w
 10012  11CD  0734               	addwf	??i1_pic16_linear_addr+4,w
 10013  11CE  00B6               	movwf	??i1_pic16_linear_addr+6
 10014  11CF  0833               	movf	??i1_pic16_linear_addr+3,w
 10015  11D0  3D35               	addwfc	??i1_pic16_linear_addr+5,w
 10016  11D1  00B7               	movwf	??i1_pic16_linear_addr+7
 10017  11D2  0836               	movf	??i1_pic16_linear_addr+6,w
 10018  11D3  0437               	iorwf	??i1_pic16_linear_addr+7,w
 10019  11D4  1903               	btfsc	3,2
 10020  11D5  29D8               	goto	u265_20
 10021  11D6  3001               	movlw	1
 10022  11D7  29D9               	goto	u266_20
 10023  11D8                     u265_20:	
 10024  11D8  3000               	movlw	0
 10025  11D9                     u266_20:	
 10026  11D9  00B8               	movwf	??i1_pic16_linear_addr+8
 10027  11DA  01B9               	clrf	??i1_pic16_linear_addr+9
 10028  11DB  0838               	movf	??i1_pic16_linear_addr+8,w
 10029  11DC  00F0               	movwf	i1___wmul@multiplier
 10030  11DD  0839               	movf	??i1_pic16_linear_addr+9,w
 10031  11DE  00F1               	movwf	i1___wmul@multiplier+1
 10032  11DF  3050               	movlw	80
 10033  11E0  00F2               	movwf	i1___wmul@multiplicand
 10034  11E1  3000               	movlw	0
 10035  11E2  00F3               	movwf	i1___wmul@multiplicand+1
 10036  11E3  319E  2678         	fcall	i1___wmul
 10037  11E5  0020               	movlb	0	; select bank0
 10038  11E6  0830               	movf	??i1_pic16_linear_addr,w
 10039  11E7  0770               	addwf	?i1___wmul,w
 10040  11E8  00BA               	movwf	??i1_pic16_linear_addr+10
 10041  11E9  0831               	movf	??i1_pic16_linear_addr+1,w
 10042  11EA  3D71               	addwfc	?i1___wmul+1,w
 10043  11EB  00BB               	movwf	??i1_pic16_linear_addr+11
 10044  11EC  083A               	movf	??i1_pic16_linear_addr+10,w
 10045  11ED  3EE0               	addlw	224
 10046  11EE  00F6               	movwf	?i1_pic16_linear_addr
 10047  11EF  301F               	movlw	31
 10048  11F0  3D3B               	addwfc	??i1_pic16_linear_addr+11,w
 10049  11F1  00F7               	movwf	?i1_pic16_linear_addr+1
 10050  11F2  0008               	return
 10051  11F3                     __end_ofi1_pic16_linear_addr:	
 10052                           
 10053                           	psect	text43
 10054  1E60                     __ptext43:	
 10055 ;; *************** function i1_memset *****************
 10056 ;; Defined at:
 10057 ;;		line 8 in file "C:\Program Files (x86)\Microchip\xc8\v2.10\pic\sources\c90\common\memset.c"
 10058 ;; Parameters:    Size  Location     Type
 10059 ;;  p1              2    0[COMMON] PTR void 
 10060 ;;		 -> UEP0(1), bds(16), 
 10061 ;;  c               2    2[COMMON] int 
 10062 ;;  n               2    4[COMMON] unsigned int 
 10063 ;; Auto vars:     Size  Location     Type
 10064 ;;  memset          2    6[COMMON] PTR unsigned char 
 10065 ;;		 -> UEP0(1), bds(16), 
 10066 ;; Return value:  Size  Location     Type
 10067 ;;                  2    0[COMMON] PTR void 
 10068 ;; Registers used:
 10069 ;;		wreg, fsr1l, fsr1h, status,2, status,0
 10070 ;; Tracked objects:
 10071 ;;		On entry : 2/1D
 10072 ;;		On exit  : 2/0
 10073 ;;		Unchanged: 2/0
 10074 ;; Data sizes:     COMMON   BANK0   BANK1   BANK2   BANK3   BANK4   BANK5   BANK6   BANK7   BANK8   BANK9  BANK10  BANK1
      +1  BANK12
 10075 ;;      Params:         6       0       0       0       0       0       0       0       0       0       0       0       
      +0       0
 10076 ;;      Locals:         2       0       0       0       0       0       0       0       0       0       0       0       
      +0       0
 10077 ;;      Temps:          0       0       0       0       0       0       0       0       0       0       0       0       
      +0       0
 10078 ;;      Totals:         8       0       0       0       0       0       0       0       0       0       0       0       
      +0       0
 10079 ;;Total ram usage:        8 bytes
 10080 ;; Hardware stack levels used:    1
 10081 ;; This function calls:
 10082 ;;		Nothing
 10083 ;; This function is called by:
 10084 ;;		i1_init_endpoints
 10085 ;;		i1_usb_init
 10086 ;; This function uses a non-reentrant model
 10087 ;;
 10088                           
 10089                           
 10090                           ;psect for function i1_memset
 10091  1E60                     i1_memset:	
 10092                           
 10093                           ;incstack = 0
 10094                           ; Regs used in i1_memset: [wreg+fsr1l+fsr1h+status,2+status,0]
 10095  1E60  0871               	movf	i1memset@p1+1,w
 10096  1E61  00F7               	movwf	i1memset@p+1
 10097  1E62  0870               	movf	i1memset@p1,w
 10098  1E63  00F6               	movwf	i1memset@p
 10099  1E64                     i1l3135:	
 10100  1E64  3001               	movlw	1
 10101  1E65  02F4               	subwf	i1memset@n,f
 10102  1E66  3000               	movlw	0
 10103  1E67  3BF5               	subwfb	i1memset@n+1,f
 10104  1E68  0A74               	incf	i1memset@n,w
 10105  1E69  1903               	btfsc	3,2
 10106  1E6A  0A75               	incf	i1memset@n+1,w
 10107  1E6B  1903               	btfsc	3,2
 10108  1E6C  0008               	return
 10109  1E6D  0876               	movf	i1memset@p,w
 10110  1E6E  0086               	movwf	6
 10111  1E6F  0877               	movf	i1memset@p+1,w
 10112  1E70  0087               	movwf	7
 10113  1E71  0872               	movf	i1memset@c,w
 10114  1E72  0081               	movwf	1
 10115  1E73  3001               	movlw	1
 10116  1E74  07F6               	addwf	i1memset@p,f
 10117  1E75  3000               	movlw	0
 10118  1E76  3DF7               	addwfc	i1memset@p+1,f
 10119  1E77  2E64               	goto	i1l3135
 10120  1E78                     __end_ofi1_memset:	
 10121                           
 10122                           	psect	text44
 10123  1F5A                     __ptext44:	
 10124 ;; *************** function _usb_halt_ep_out *****************
 10125 ;; Defined at:
 10126 ;;		line 1655 in file "../../../usb/src/usb.c"
 10127 ;; Parameters:    Size  Location     Type
 10128 ;;  ep              1    wreg     unsigned char 
 10129 ;; Auto vars:     Size  Location     Type
 10130 ;;  ep              1   10[COMMON] unsigned char 
 10131 ;; Return value:  Size  Location     Type
 10132 ;;                  1    wreg      unsigned char 
 10133 ;; Registers used:
 10134 ;;		wreg, fsr1l, fsr1h, status,2, status,0, pclath, cstack
 10135 ;; Tracked objects:
 10136 ;;		On entry : 1F/0
 10137 ;;		On exit  : 1E/0
 10138 ;;		Unchanged: 1E/0
 10139 ;; Data sizes:     COMMON   BANK0   BANK1   BANK2   BANK3   BANK4   BANK5   BANK6   BANK7   BANK8   BANK9  BANK10  BANK1
      +1  BANK12
 10140 ;;      Params:         0       0       0       0       0       0       0       0       0       0       0       0       
      +0       0
 10141 ;;      Locals:         1       0       0       0       0       0       0       0       0       0       0       0       
      +0       0
 10142 ;;      Temps:          4       0       0       0       0       0       0       0       0       0       0       0       
      +0       0
 10143 ;;      Totals:         5       0       0       0       0       0       0       0       0       0       0       0       
      +0       0
 10144 ;;Total ram usage:        5 bytes
 10145 ;; Hardware stack levels used:    1
 10146 ;; Hardware stack levels required when called:    1
 10147 ;; This function calls:
 10148 ;;		_stall_ep_out
 10149 ;;		i1___wmul
 10150 ;; This function is called by:
 10151 ;;		_handle_standard_control_request
 10152 ;; This function uses a non-reentrant model
 10153 ;;
 10154                           
 10155                           
 10156                           ;psect for function _usb_halt_ep_out
 10157  1F5A                     _usb_halt_ep_out:	
 10158                           
 10159                           ;incstack = 0
 10160                           ; Regs used in _usb_halt_ep_out: [wreg+fsr1l+fsr1h+status,2+status,0+pclath+cstack]
 10161                           ;usb_halt_ep_out@ep stored from wreg
 10162  1F5A  00FA               	movwf	usb_halt_ep_out@ep
 10163                           
 10164                           ;usb.c: 1657: if (ep == 0 || ep > 1)
 10165  1F5B  087A               	movf	usb_halt_ep_out@ep,w
 10166  1F5C  1903               	btfsc	3,2
 10167  1F5D  0008               	return
 10168  1F5E  3002               	movlw	2
 10169  1F5F  027A               	subwf	usb_halt_ep_out@ep,w
 10170  1F60  1803               	btfsc	3,0
 10171  1F61  0008               	return
 10172                           
 10173                           ;usb.c: 1660: ep_buf[ep].flags |= 0x1;
 10174  1F62  087A               	movf	usb_halt_ep_out@ep,w
 10175  1F63  00F6               	movwf	??_usb_halt_ep_out
 10176  1F64  01F7               	clrf	??_usb_halt_ep_out+1
 10177  1F65  0876               	movf	??_usb_halt_ep_out,w
 10178  1F66  00F0               	movwf	i1___wmul@multiplier
 10179  1F67  0877               	movf	??_usb_halt_ep_out+1,w
 10180  1F68  00F1               	movwf	i1___wmul@multiplier+1
 10181  1F69  3007               	movlw	7
 10182  1F6A  00F2               	movwf	i1___wmul@multiplicand
 10183  1F6B  3000               	movlw	0
 10184  1F6C  00F3               	movwf	i1___wmul@multiplicand+1
 10185  1F6D  319E  2678  319F   	fcall	i1___wmul
 10186  1F70  305E               	movlw	low (_ep_buf+6)
 10187  1F71  00F8               	movwf	??_usb_halt_ep_out+2
 10188  1F72  3002               	movlw	high (_ep_buf+6)
 10189  1F73  00F9               	movwf	??_usb_halt_ep_out+3
 10190  1F74  0870               	movf	?i1___wmul,w
 10191  1F75  0778               	addwf	??_usb_halt_ep_out+2,w
 10192  1F76  0086               	movwf	6
 10193  1F77  0871               	movf	?i1___wmul+1,w
 10194  1F78  3D79               	addwfc	??_usb_halt_ep_out+3,w
 10195  1F79  0087               	movwf	7
 10196  1F7A  1401               	bsf	1,0
 10197                           
 10198                           ;usb.c: 1661: stall_ep_out(ep);
 10199  1F7B  087A               	movf	usb_halt_ep_out@ep,w
 10200  1F7C  319F  2701         	fcall	_stall_ep_out
 10201  1F7E  0008               	return
 10202  1F7F                     __end_of_usb_halt_ep_out:	
 10203                           
 10204                           	psect	text45
 10205  1F01                     __ptext45:	
 10206 ;; *************** function _stall_ep_out *****************
 10207 ;; Defined at:
 10208 ;;		line 742 in file "../../../usb/src/usb.c"
 10209 ;; Parameters:    Size  Location     Type
 10210 ;;  ep              1    wreg     unsigned char 
 10211 ;; Auto vars:     Size  Location     Type
 10212 ;;  ep              1    2[COMMON] unsigned char 
 10213 ;; Return value:  Size  Location     Type
 10214 ;;                  1    wreg      void 
 10215 ;; Registers used:
 10216 ;;		wreg, fsr1l, fsr1h, status,2, status,0
 10217 ;; Tracked objects:
 10218 ;;		On entry : 1E/1
 10219 ;;		On exit  : 1E/0
 10220 ;;		Unchanged: 1E/0
 10221 ;; Data sizes:     COMMON   BANK0   BANK1   BANK2   BANK3   BANK4   BANK5   BANK6   BANK7   BANK8   BANK9  BANK10  BANK1
      +1  BANK12
 10222 ;;      Params:         0       0       0       0       0       0       0       0       0       0       0       0       
      +0       0
 10223 ;;      Locals:         1       0       0       0       0       0       0       0       0       0       0       0       
      +0       0
 10224 ;;      Temps:          2       0       0       0       0       0       0       0       0       0       0       0       
      +0       0
 10225 ;;      Totals:         3       0       0       0       0       0       0       0       0       0       0       0       
      +0       0
 10226 ;;Total ram usage:        3 bytes
 10227 ;; Hardware stack levels used:    1
 10228 ;; This function calls:
 10229 ;;		Nothing
 10230 ;; This function is called by:
 10231 ;;		_usb_service
 10232 ;;		_usb_halt_ep_out
 10233 ;; This function uses a non-reentrant model
 10234 ;;
 10235                           
 10236                           
 10237                           ;psect for function _stall_ep_out
 10238  1F01                     _stall_ep_out:	
 10239                           
 10240                           ;incstack = 0
 10241                           ; Regs used in _stall_ep_out: [wreg+fsr1l+fsr1h+status,2+status,0]
 10242                           ;stall_ep_out@ep stored from wreg
 10243  1F01  00F2               	movwf	stall_ep_out@ep
 10244                           
 10245                           ;usb.c: 747: do { (bds[(ep) * 2]).BDnCNT = (0); (bds[(ep) * 2]).STAT.BDnSTAT = (0x80|0x0
      +                          4); } while(0);
 10246  1F02  0872               	movf	stall_ep_out@ep,w
 10247  1F03  00F0               	movwf	??_stall_ep_out
 10248  1F04  3002               	movlw	2
 10249  1F05                     u262_25:	
 10250  1F05  35F0               	lslf	??_stall_ep_out,f
 10251  1F06  3EFF               	addlw	-1
 10252  1F07  1D03               	skipz
 10253  1F08  2F05               	goto	u262_25
 10254  1F09  3570               	lslf	??_stall_ep_out,w
 10255  1F0A  3E21               	addlw	33
 10256  1F0B  0086               	movwf	6
 10257  1F0C  0187               	clrf	7
 10258  1F0D  0181               	clrf	1
 10259  1F0E  3084               	movlw	132
 10260  1F0F  00F0               	movwf	??_stall_ep_out
 10261  1F10  0872               	movf	stall_ep_out@ep,w
 10262  1F11  00F1               	movwf	??_stall_ep_out+1
 10263  1F12  3002               	movlw	2
 10264  1F13                     u263_25:	
 10265  1F13  35F1               	lslf	??_stall_ep_out+1,f
 10266  1F14  3EFF               	addlw	-1
 10267  1F15  1D03               	skipz
 10268  1F16  2F13               	goto	u263_25
 10269  1F17  3571               	lslf	??_stall_ep_out+1,w
 10270  1F18  3E20               	addlw	32
 10271  1F19  0086               	movwf	6
 10272  1F1A  0187               	clrf	7
 10273  1F1B  0870               	movf	??_stall_ep_out,w
 10274  1F1C  0081               	movwf	1
 10275  1F1D  0008               	return
 10276  1F1E                     __end_of_stall_ep_out:	
 10277                           
 10278                           	psect	text46
 10279  1029                     __ptext46:	
 10280 ;; *************** function _usb_halt_ep_in *****************
 10281 ;; Defined at:
 10282 ;;		line 1577 in file "../../../usb/src/usb.c"
 10283 ;; Parameters:    Size  Location     Type
 10284 ;;  ep              1    wreg     unsigned char 
 10285 ;; Auto vars:     Size  Location     Type
 10286 ;;  ep              1   13[COMMON] unsigned char 
 10287 ;; Return value:  Size  Location     Type
 10288 ;;                  1    wreg      unsigned char 
 10289 ;; Registers used:
 10290 ;;		wreg, fsr1l, fsr1h, status,2, status,0, pclath, cstack
 10291 ;; Tracked objects:
 10292 ;;		On entry : 1F/0
 10293 ;;		On exit  : 1E/0
 10294 ;;		Unchanged: 0/0
 10295 ;; Data sizes:     COMMON   BANK0   BANK1   BANK2   BANK3   BANK4   BANK5   BANK6   BANK7   BANK8   BANK9  BANK10  BANK1
      +1  BANK12
 10296 ;;      Params:         0       0       0       0       0       0       0       0       0       0       0       0       
      +0       0
 10297 ;;      Locals:         1       0       0       0       0       0       0       0       0       0       0       0       
      +0       0
 10298 ;;      Temps:          0       4       0       0       0       0       0       0       0       0       0       0       
      +0       0
 10299 ;;      Totals:         1       4       0       0       0       0       0       0       0       0       0       0       
      +0       0
 10300 ;;Total ram usage:        5 bytes
 10301 ;; Hardware stack levels used:    1
 10302 ;; Hardware stack levels required when called:    2
 10303 ;; This function calls:
 10304 ;;		_stall_ep_in
 10305 ;;		i1___wmul
 10306 ;; This function is called by:
 10307 ;;		_handle_standard_control_request
 10308 ;; This function uses a non-reentrant model
 10309 ;;
 10310                           
 10311                           
 10312                           ;psect for function _usb_halt_ep_in
 10313  1029                     _usb_halt_ep_in:	
 10314                           
 10315                           ;incstack = 0
 10316                           ; Regs used in _usb_halt_ep_in: [wreg+fsr1l+fsr1h+status,2+status,0+pclath+cstack]
 10317                           ;usb_halt_ep_in@ep stored from wreg
 10318  1029  00FD               	movwf	usb_halt_ep_in@ep
 10319                           
 10320                           ;usb.c: 1579: if (ep == 0 || ep > 1)
 10321  102A  087D               	movf	usb_halt_ep_in@ep,w
 10322  102B  1903               	btfsc	3,2
 10323  102C  0008               	return
 10324  102D  3002               	movlw	2
 10325  102E  027D               	subwf	usb_halt_ep_in@ep,w
 10326  102F  1803               	btfsc	3,0
 10327  1030  0008               	return
 10328                           
 10329                           ;usb.c: 1582: ep_buf[ep].flags |= 0x2;
 10330  1031  087D               	movf	usb_halt_ep_in@ep,w
 10331  1032  00B0               	movwf	??_usb_halt_ep_in
 10332  1033  01B1               	clrf	??_usb_halt_ep_in+1
 10333  1034  0830               	movf	??_usb_halt_ep_in,w
 10334  1035  00F0               	movwf	i1___wmul@multiplier
 10335  1036  0831               	movf	??_usb_halt_ep_in+1,w
 10336  1037  00F1               	movwf	i1___wmul@multiplier+1
 10337  1038  3007               	movlw	7
 10338  1039  00F2               	movwf	i1___wmul@multiplicand
 10339  103A  3000               	movlw	0
 10340  103B  00F3               	movwf	i1___wmul@multiplicand+1
 10341  103C  319E  2678  3190   	fcall	i1___wmul
 10342  103F  305E               	movlw	low (_ep_buf+6)
 10343  1040  0020               	movlb	0	; select bank0
 10344  1041  00B2               	movwf	??_usb_halt_ep_in+2
 10345  1042  3002               	movlw	high (_ep_buf+6)
 10346  1043  00B3               	movwf	??_usb_halt_ep_in+3
 10347  1044  0870               	movf	?i1___wmul,w
 10348  1045  0732               	addwf	??_usb_halt_ep_in+2,w
 10349  1046  0086               	movwf	6
 10350  1047  0871               	movf	?i1___wmul+1,w
 10351  1048  3D33               	addwfc	??_usb_halt_ep_in+3,w
 10352  1049  0087               	movwf	7
 10353  104A  1481               	bsf	1,1
 10354                           
 10355                           ;usb.c: 1583: stall_ep_in(ep);
 10356  104B  087D               	movf	usb_halt_ep_in@ep,w
 10357  104C  3191  2131         	fcall	_stall_ep_in
 10358  104E  0008               	return
 10359  104F                     __end_of_usb_halt_ep_in:	
 10360                           
 10361                           	psect	text47
 10362  1131                     __ptext47:	
 10363 ;; *************** function _stall_ep_in *****************
 10364 ;; Defined at:
 10365 ;;		line 731 in file "../../../usb/src/usb.c"
 10366 ;; Parameters:    Size  Location     Type
 10367 ;;  ep              1    wreg     unsigned char 
 10368 ;; Auto vars:     Size  Location     Type
 10369 ;;  ep              1   12[COMMON] unsigned char 
 10370 ;; Return value:  Size  Location     Type
 10371 ;;                  1    wreg      void 
 10372 ;; Registers used:
 10373 ;;		wreg, fsr1l, fsr1h, status,2, status,0, pclath, cstack
 10374 ;; Tracked objects:
 10375 ;;		On entry : 1E/1
 10376 ;;		On exit  : 1E/0
 10377 ;;		Unchanged: 1E/0
 10378 ;; Data sizes:     COMMON   BANK0   BANK1   BANK2   BANK3   BANK4   BANK5   BANK6   BANK7   BANK8   BANK9  BANK10  BANK1
      +1  BANK12
 10379 ;;      Params:         0       0       0       0       0       0       0       0       0       0       0       0       
      +0       0
 10380 ;;      Locals:         1       0       0       0       0       0       0       0       0       0       0       0       
      +0       0
 10381 ;;      Temps:          6       0       0       0       0       0       0       0       0       0       0       0       
      +0       0
 10382 ;;      Totals:         7       0       0       0       0       0       0       0       0       0       0       0       
      +0       0
 10383 ;;Total ram usage:        7 bytes
 10384 ;; Hardware stack levels used:    1
 10385 ;; Hardware stack levels required when called:    1
 10386 ;; This function calls:
 10387 ;;		i1___wmul
 10388 ;; This function is called by:
 10389 ;;		_usb_service
 10390 ;;		_usb_halt_ep_in
 10391 ;; This function uses a non-reentrant model
 10392 ;;
 10393                           
 10394                           
 10395                           ;psect for function _stall_ep_in
 10396  1131                     _stall_ep_in:	
 10397                           
 10398                           ;incstack = 0
 10399                           ; Regs used in _stall_ep_in: [wreg+fsr1l+fsr1h+status,2+status,0+pclath+cstack]
 10400                           ;stall_ep_in@ep stored from wreg
 10401  1131  00FC               	movwf	stall_ep_in@ep
 10402                           
 10403                           ;usb.c: 736: do { (bds[(ep) * 2 + 1]).BDnCNT = (ep_buf[ep].in_len); (bds[(ep) * 2 + 1]).
      +                          STAT.BDnSTAT = (0x80|0x04); } while(0);
 10404  1132  087C               	movf	stall_ep_in@ep,w
 10405  1133  00F6               	movwf	??_stall_ep_in
 10406  1134  01F7               	clrf	??_stall_ep_in+1
 10407  1135  0876               	movf	??_stall_ep_in,w
 10408  1136  00F0               	movwf	i1___wmul@multiplier
 10409  1137  0877               	movf	??_stall_ep_in+1,w
 10410  1138  00F1               	movwf	i1___wmul@multiplier+1
 10411  1139  3007               	movlw	7
 10412  113A  00F2               	movwf	i1___wmul@multiplicand
 10413  113B  3000               	movlw	0
 10414  113C  00F3               	movwf	i1___wmul@multiplicand+1
 10415  113D  319E  2678  3191   	fcall	i1___wmul
 10416  1140  305D               	movlw	low (_ep_buf+5)
 10417  1141  00F8               	movwf	??_stall_ep_in+2
 10418  1142  3002               	movlw	high (_ep_buf+5)
 10419  1143  00F9               	movwf	??_stall_ep_in+3
 10420  1144  0870               	movf	?i1___wmul,w
 10421  1145  0778               	addwf	??_stall_ep_in+2,w
 10422  1146  0086               	movwf	6
 10423  1147  0871               	movf	?i1___wmul+1,w
 10424  1148  3D79               	addwfc	??_stall_ep_in+3,w
 10425  1149  0087               	movwf	7
 10426  114A  0801               	movf	1,w
 10427  114B  00FA               	movwf	??_stall_ep_in+4
 10428  114C  087C               	movf	stall_ep_in@ep,w
 10429  114D  00FB               	movwf	??_stall_ep_in+5
 10430  114E  3002               	movlw	2
 10431  114F                     u260_25:	
 10432  114F  35FB               	lslf	??_stall_ep_in+5,f
 10433  1150  3EFF               	addlw	-1
 10434  1151  1D03               	skipz
 10435  1152  294F               	goto	u260_25
 10436  1153  357B               	lslf	??_stall_ep_in+5,w
 10437  1154  3E25               	addlw	37
 10438  1155  0086               	movwf	6
 10439  1156  0187               	clrf	7
 10440  1157  087A               	movf	??_stall_ep_in+4,w
 10441  1158  0081               	movwf	1
 10442  1159  3084               	movlw	132
 10443  115A  00F6               	movwf	??_stall_ep_in
 10444  115B  087C               	movf	stall_ep_in@ep,w
 10445  115C  00F7               	movwf	??_stall_ep_in+1
 10446  115D  3002               	movlw	2
 10447  115E                     u261_25:	
 10448  115E  35F7               	lslf	??_stall_ep_in+1,f
 10449  115F  3EFF               	addlw	-1
 10450  1160  1D03               	skipz
 10451  1161  295E               	goto	u261_25
 10452  1162  3577               	lslf	??_stall_ep_in+1,w
 10453  1163  3E24               	addlw	36
 10454  1164  0086               	movwf	6
 10455  1165  0187               	clrf	7
 10456  1166  0876               	movf	??_stall_ep_in,w
 10457  1167  0081               	movwf	1
 10458  1168  0008               	return
 10459  1169                     __end_of_stall_ep_in:	
 10460                           
 10461                           	psect	text48
 10462  10FF                     __ptext48:	
 10463 ;; *************** function _usb_application_get_string *****************
 10464 ;; Defined at:
 10465 ;;		line 228 in file "../usb_descriptors.c"
 10466 ;; Parameters:    Size  Location     Type
 10467 ;;  string_numbe    1    wreg     unsigned char 
 10468 ;;  ptr             1    0[COMMON] PTR PTR const void 
 10469 ;;		 -> handle_standard_control_request@desc_761(2), 
 10470 ;; Auto vars:     Size  Location     Type
 10471 ;;  string_numbe    1    3[COMMON] unsigned char 
 10472 ;; Return value:  Size  Location     Type
 10473 ;;                  2    0[COMMON] int 
 10474 ;; Registers used:
 10475 ;;		wreg, fsr1l, fsr1h, status,2, status,0
 10476 ;; Tracked objects:
 10477 ;;		On entry : 1F/0
 10478 ;;		On exit  : 1F/0
 10479 ;;		Unchanged: 1F/0
 10480 ;; Data sizes:     COMMON   BANK0   BANK1   BANK2   BANK3   BANK4   BANK5   BANK6   BANK7   BANK8   BANK9  BANK10  BANK1
      +1  BANK12
 10481 ;;      Params:         3       0       0       0       0       0       0       0       0       0       0       0       
      +0       0
 10482 ;;      Locals:         1       0       0       0       0       0       0       0       0       0       0       0       
      +0       0
 10483 ;;      Temps:          0       0       0       0       0       0       0       0       0       0       0       0       
      +0       0
 10484 ;;      Totals:         4       0       0       0       0       0       0       0       0       0       0       0       
      +0       0
 10485 ;;Total ram usage:        4 bytes
 10486 ;; Hardware stack levels used:    1
 10487 ;; This function calls:
 10488 ;;		Nothing
 10489 ;; This function is called by:
 10490 ;;		_handle_standard_control_request
 10491 ;; This function uses a non-reentrant model
 10492 ;;
 10493                           
 10494                           
 10495                           ;psect for function _usb_application_get_string
 10496  10FF                     _usb_application_get_string:	
 10497                           
 10498                           ;incstack = 0
 10499                           ; Regs used in _usb_application_get_string: [wreg+fsr1l+fsr1h+status,2+status,0]
 10500                           ;usb_application_get_string@string_number stored from wreg
 10501  10FF  00F3               	movwf	usb_application_get_string@string_number
 10502                           
 10503                           ;usb_descriptors.c: 230: if (string_number == 0) {
 10504  1100  0873               	movf	usb_application_get_string@string_number,w
 10505  1101  1D03               	btfss	3,2
 10506  1102  290F               	goto	i1l3187
 10507                           
 10508                           ;usb_descriptors.c: 231: *ptr = &str00;
 10509  1103  0870               	movf	usb_application_get_string@ptr,w
 10510  1104  0086               	movwf	6
 10511  1105  0187               	clrf	7
 10512  1106  30B1               	movlw	low (_str00| (0+32768))
 10513  1107  3FC0               	movwi [0]fsr1
 10514  1108  3098               	movlw	high (_str00| (0+32768))
 10515  1109  3FC1               	movwi [1]fsr1
 10516                           
 10517                           ;usb_descriptors.c: 232: return sizeof(str00);
 10518  110A  3004               	movlw	4
 10519  110B  00F0               	movwf	?_usb_application_get_string
 10520  110C  3000               	movlw	0
 10521  110D  00F1               	movwf	?_usb_application_get_string+1
 10522  110E  0008               	return
 10523  110F                     i1l3187:	
 10524                           
 10525                           ;usb_descriptors.c: 234: else if (string_number == 1) {
 10526  110F  0373               	decf	usb_application_get_string@string_number,w
 10527  1110  1D03               	btfss	3,2
 10528  1111  2926               	goto	i1l3197
 10529                           
 10530                           ;usb_descriptors.c: 235: *ptr = &vendor_string;
 10531  1112  0870               	movf	usb_application_get_string@ptr,w
 10532  1113  0086               	movwf	6
 10533  1114  0187               	clrf	7
 10534  1115  3075               	movlw	low (_vendor_string| (0+32768))
 10535  1116  3FC0               	movwi [0]fsr1
 10536  1117  3098               	movlw	high (_vendor_string| (0+32768))
 10537  1118  3FC1               	movwi [1]fsr1
 10538  1119  2921               	goto	i1l3191
 10539  111A                     i1l3199:	
 10540                           
 10541                           ;usb_descriptors.c: 239: *ptr = &product_string;
 10542  111A  0870               	movf	usb_application_get_string@ptr,w
 10543  111B  0086               	movwf	6
 10544  111C  0187               	clrf	7
 10545  111D  305D               	movlw	low (_product_string| (0+32768))
 10546  111E  3FC0               	movwi [0]fsr1
 10547  111F  3098               	movlw	high (_product_string| (0+32768))
 10548  1120  3FC1               	movwi [1]fsr1
 10549  1121                     i1l3191:	
 10550                           
 10551                           ;usb_descriptors.c: 236: return sizeof(vendor_string);
 10552  1121  3018               	movlw	24
 10553  1122  00F0               	movwf	?_usb_application_get_string
 10554  1123  3000               	movlw	0
 10555  1124  00F1               	movwf	?_usb_application_get_string+1
 10556  1125  0008               	return
 10557  1126                     i1l3197:	
 10558                           
 10559                           ;usb_descriptors.c: 238: else if (string_number == 2) {
 10560  1126  3002               	movlw	2
 10561  1127  0673               	xorwf	usb_application_get_string@string_number,w
 10562  1128  1903               	btfsc	3,2
 10563  1129  291A               	goto	i1l3199
 10564                           
 10565                           ;usb_descriptors.c: 242: else if (string_number == 3) {
 10566  112A  3003               	movlw	3
 10567  112B  0673               	xorwf	usb_application_get_string@string_number,w
 10568                           
 10569                           ;usb_descriptors.c: 245: return -1;
 10570  112C  30FF               	movlw	255
 10571  112D  00F0               	movwf	?_usb_application_get_string
 10572  112E  30FF               	movlw	255
 10573  112F  00F1               	movwf	?_usb_application_get_string+1
 10574  1130  0008               	return
 10575  1131                     __end_of_usb_application_get_string:	
 10576                           
 10577                           	psect	text49
 10578  1D63                     __ptext49:	
 10579 ;; *************** function _app_unknown_get_descriptor_callback *****************
 10580 ;; Defined at:
 10581 ;;		line 231 in file "../main.c"
 10582 ;; Parameters:    Size  Location     Type
 10583 ;;  pkt             2    0[COMMON] PTR const struct setup_p
 10584 ;;		 -> ep_buffers(144), 
 10585 ;;  descriptor      1    2[COMMON] PTR PTR const void 
 10586 ;;		 -> handle_standard_control_request@desc_764(1), 
 10587 ;; Auto vars:     Size  Location     Type
 10588 ;;		None
 10589 ;; Return value:  Size  Location     Type
 10590 ;;                  2    0[COMMON] int 
 10591 ;; Registers used:
 10592 ;;		wreg
 10593 ;; Tracked objects:
 10594 ;;		On entry : 1F/0
 10595 ;;		On exit  : 1F/0
 10596 ;;		Unchanged: 1F/0
 10597 ;; Data sizes:     COMMON   BANK0   BANK1   BANK2   BANK3   BANK4   BANK5   BANK6   BANK7   BANK8   BANK9  BANK10  BANK1
      +1  BANK12
 10598 ;;      Params:         3       0       0       0       0       0       0       0       0       0       0       0       
      +0       0
 10599 ;;      Locals:         0       0       0       0       0       0       0       0       0       0       0       0       
      +0       0
 10600 ;;      Temps:          0       0       0       0       0       0       0       0       0       0       0       0       
      +0       0
 10601 ;;      Totals:         3       0       0       0       0       0       0       0       0       0       0       0       
      +0       0
 10602 ;;Total ram usage:        3 bytes
 10603 ;; Hardware stack levels used:    1
 10604 ;; This function calls:
 10605 ;;		Nothing
 10606 ;; This function is called by:
 10607 ;;		_handle_standard_control_request
 10608 ;; This function uses a non-reentrant model
 10609 ;;
 10610                           
 10611                           
 10612                           ;psect for function _app_unknown_get_descriptor_callback
 10613  1D63                     _app_unknown_get_descriptor_callback:	
 10614                           
 10615                           ;main.c: 232: return -1;
 10616                           
 10617                           ;incstack = 0
 10618                           ; Regs used in _app_unknown_get_descriptor_callback: [wreg]
 10619  1D63  30FF               	movlw	255
 10620  1D64  00F0               	movwf	?_app_unknown_get_descriptor_callback
 10621  1D65  30FF               	movlw	255
 10622  1D66  00F1               	movwf	?_app_unknown_get_descriptor_callback+1
 10623  1D67  0008               	return
 10624  1D68                     __end_of_app_unknown_get_descriptor_callback:	
 10625                           
 10626                           	psect	text50
 10627  1D59                     __ptext50:	
 10628 ;; *************** function _app_set_interface_callback *****************
 10629 ;; Defined at:
 10630 ;;		line 203 in file "../main.c"
 10631 ;; Parameters:    Size  Location     Type
 10632 ;;  interface       1    wreg     unsigned char 
 10633 ;;  alt_setting     1    0[COMMON] unsigned char 
 10634 ;; Auto vars:     Size  Location     Type
 10635 ;;  interface       1    0[COMMON] unsigned char 
 10636 ;; Return value:  Size  Location     Type
 10637 ;;                  1    wreg      char 
 10638 ;; Registers used:
 10639 ;;		wreg
 10640 ;; Tracked objects:
 10641 ;;		On entry : 1F/0
 10642 ;;		On exit  : 1F/0
 10643 ;;		Unchanged: 1F/0
 10644 ;; Data sizes:     COMMON   BANK0   BANK1   BANK2   BANK3   BANK4   BANK5   BANK6   BANK7   BANK8   BANK9  BANK10  BANK1
      +1  BANK12
 10645 ;;      Params:         1       0       0       0       0       0       0       0       0       0       0       0       
      +0       0
 10646 ;;      Locals:         0       0       0       0       0       0       0       0       0       0       0       0       
      +0       0
 10647 ;;      Temps:          0       0       0       0       0       0       0       0       0       0       0       0       
      +0       0
 10648 ;;      Totals:         1       0       0       0       0       0       0       0       0       0       0       0       
      +0       0
 10649 ;;Total ram usage:        1 bytes
 10650 ;; Hardware stack levels used:    1
 10651 ;; This function calls:
 10652 ;;		Nothing
 10653 ;; This function is called by:
 10654 ;;		_handle_standard_control_request
 10655 ;; This function uses a non-reentrant model
 10656 ;;
 10657                           
 10658                           
 10659                           ;psect for function _app_set_interface_callback
 10660  1D59                     _app_set_interface_callback:	
 10661                           
 10662                           ;main.c: 204: return 0;
 10663                           
 10664                           ;incstack = 0
 10665                           ; Regs used in _app_set_interface_callback: [wreg]
 10666  1D59  3000               	movlw	0
 10667  1D5A  0008               	return
 10668  1D5B                     __end_of_app_set_interface_callback:	
 10669                           
 10670                           	psect	text51
 10671  07FF                     __ptext51:	
 10672 ;; *************** function _app_set_configuration_callback *****************
 10673 ;; Defined at:
 10674 ;;		line 191 in file "../main.c"
 10675 ;; Parameters:    Size  Location     Type
 10676 ;;  configuratio    1    wreg     unsigned char 
 10677 ;; Auto vars:     Size  Location     Type
 10678 ;;  configuratio    1    0[COMMON] unsigned char 
 10679 ;; Return value:  Size  Location     Type
 10680 ;;                  1    wreg      void 
 10681 ;; Registers used:
 10682 ;;		wreg
 10683 ;; Tracked objects:
 10684 ;;		On entry : 1F/0
 10685 ;;		On exit  : 1F/0
 10686 ;;		Unchanged: 1F/0
 10687 ;; Data sizes:     COMMON   BANK0   BANK1   BANK2   BANK3   BANK4   BANK5   BANK6   BANK7   BANK8   BANK9  BANK10  BANK1
      +1  BANK12
 10688 ;;      Params:         0       0       0       0       0       0       0       0       0       0       0       0       
      +0       0
 10689 ;;      Locals:         0       0       0       0       0       0       0       0       0       0       0       0       
      +0       0
 10690 ;;      Temps:          0       0       0       0       0       0       0       0       0       0       0       0       
      +0       0
 10691 ;;      Totals:         0       0       0       0       0       0       0       0       0       0       0       0       
      +0       0
 10692 ;;Total ram usage:        0 bytes
 10693 ;; Hardware stack levels used:    1
 10694 ;; This function calls:
 10695 ;;		Nothing
 10696 ;; This function is called by:
 10697 ;;		_handle_standard_control_request
 10698 ;; This function uses a non-reentrant model
 10699 ;;
 10700                           
 10701                           
 10702                           ;psect for function _app_set_configuration_callback
 10703  07FF                     _app_set_configuration_callback:	
 10704                           
 10705                           ;incstack = 0
 10706                           ; Regs used in _app_set_configuration_callback: [wreg]
 10707  07FF  0008               	return
 10708  0800                     __end_of_app_set_configuration_callback:	
 10709                           
 10710                           	psect	text52
 10711  1D57                     __ptext52:	
 10712 ;; *************** function _app_get_interface_callback *****************
 10713 ;; Defined at:
 10714 ;;		line 207 in file "../main.c"
 10715 ;; Parameters:    Size  Location     Type
 10716 ;;  interface       1    wreg     unsigned char 
 10717 ;; Auto vars:     Size  Location     Type
 10718 ;;  interface       1    0[COMMON] unsigned char 
 10719 ;; Return value:  Size  Location     Type
 10720 ;;                  1    wreg      char 
 10721 ;; Registers used:
 10722 ;;		wreg
 10723 ;; Tracked objects:
 10724 ;;		On entry : 1F/0
 10725 ;;		On exit  : 1F/0
 10726 ;;		Unchanged: 1F/0
 10727 ;; Data sizes:     COMMON   BANK0   BANK1   BANK2   BANK3   BANK4   BANK5   BANK6   BANK7   BANK8   BANK9  BANK10  BANK1
      +1  BANK12
 10728 ;;      Params:         0       0       0       0       0       0       0       0       0       0       0       0       
      +0       0
 10729 ;;      Locals:         0       0       0       0       0       0       0       0       0       0       0       0       
      +0       0
 10730 ;;      Temps:          0       0       0       0       0       0       0       0       0       0       0       0       
      +0       0
 10731 ;;      Totals:         0       0       0       0       0       0       0       0       0       0       0       0       
      +0       0
 10732 ;;Total ram usage:        0 bytes
 10733 ;; Hardware stack levels used:    1
 10734 ;; This function calls:
 10735 ;;		Nothing
 10736 ;; This function is called by:
 10737 ;;		_handle_standard_control_request
 10738 ;; This function uses a non-reentrant model
 10739 ;;
 10740                           
 10741                           
 10742                           ;psect for function _app_get_interface_callback
 10743  1D57                     _app_get_interface_callback:	
 10744                           
 10745                           ;main.c: 208: return 0;
 10746                           
 10747                           ;incstack = 0
 10748                           ; Regs used in _app_get_interface_callback: [wreg]
 10749  1D57  3000               	movlw	0
 10750  1D58  0008               	return
 10751  1D59                     __end_of_app_get_interface_callback:	
 10752                           
 10753                           	psect	text53
 10754  1D5D                     __ptext53:	
 10755 ;; *************** function _app_get_device_status_callback *****************
 10756 ;; Defined at:
 10757 ;;		line 195 in file "../main.c"
 10758 ;; Parameters:    Size  Location     Type
 10759 ;;		None
 10760 ;; Auto vars:     Size  Location     Type
 10761 ;;		None
 10762 ;; Return value:  Size  Location     Type
 10763 ;;                  2    0[COMMON] unsigned int 
 10764 ;; Registers used:
 10765 ;;		status,2
 10766 ;; Tracked objects:
 10767 ;;		On entry : 1F/0
 10768 ;;		On exit  : 1F/0
 10769 ;;		Unchanged: 1F/0
 10770 ;; Data sizes:     COMMON   BANK0   BANK1   BANK2   BANK3   BANK4   BANK5   BANK6   BANK7   BANK8   BANK9  BANK10  BANK1
      +1  BANK12
 10771 ;;      Params:         2       0       0       0       0       0       0       0       0       0       0       0       
      +0       0
 10772 ;;      Locals:         0       0       0       0       0       0       0       0       0       0       0       0       
      +0       0
 10773 ;;      Temps:          0       0       0       0       0       0       0       0       0       0       0       0       
      +0       0
 10774 ;;      Totals:         2       0       0       0       0       0       0       0       0       0       0       0       
      +0       0
 10775 ;;Total ram usage:        2 bytes
 10776 ;; Hardware stack levels used:    1
 10777 ;; This function calls:
 10778 ;;		Nothing
 10779 ;; This function is called by:
 10780 ;;		_handle_standard_control_request
 10781 ;; This function uses a non-reentrant model
 10782 ;;
 10783                           
 10784                           
 10785                           ;psect for function _app_get_device_status_callback
 10786  1D5D                     _app_get_device_status_callback:	
 10787                           
 10788                           ;main.c: 196: return 0x0000;
 10789                           
 10790                           ;incstack = 0
 10791                           ; Regs used in _app_get_device_status_callback: [status,2]
 10792  1D5D  01F0               	clrf	?_app_get_device_status_callback
 10793  1D5E  01F1               	clrf	?_app_get_device_status_callback+1
 10794  1D5F  0008               	return
 10795  1D60                     __end_of_app_get_device_status_callback:	
 10796                           
 10797                           	psect	text54
 10798  0203                     __ptext54:	
 10799 ;; *************** function _app_endpoint_halt_callback *****************
 10800 ;; Defined at:
 10801 ;;		line 199 in file "../main.c"
 10802 ;; Parameters:    Size  Location     Type
 10803 ;;  endpoint        1    wreg     unsigned char 
 10804 ;;  halted          1    0[COMMON] unsigned char 
 10805 ;; Auto vars:     Size  Location     Type
 10806 ;;  endpoint        1    0[COMMON] unsigned char 
 10807 ;; Return value:  Size  Location     Type
 10808 ;;                  1    wreg      void 
 10809 ;; Registers used:
 10810 ;;		wreg
 10811 ;; Tracked objects:
 10812 ;;		On entry : 1F/0
 10813 ;;		On exit  : 1F/0
 10814 ;;		Unchanged: 1F/0
 10815 ;; Data sizes:     COMMON   BANK0   BANK1   BANK2   BANK3   BANK4   BANK5   BANK6   BANK7   BANK8   BANK9  BANK10  BANK1
      +1  BANK12
 10816 ;;      Params:         1       0       0       0       0       0       0       0       0       0       0       0       
      +0       0
 10817 ;;      Locals:         0       0       0       0       0       0       0       0       0       0       0       0       
      +0       0
 10818 ;;      Temps:          0       0       0       0       0       0       0       0       0       0       0       0       
      +0       0
 10819 ;;      Totals:         1       0       0       0       0       0       0       0       0       0       0       0       
      +0       0
 10820 ;;Total ram usage:        1 bytes
 10821 ;; Hardware stack levels used:    1
 10822 ;; This function calls:
 10823 ;;		Nothing
 10824 ;; This function is called by:
 10825 ;;		_handle_standard_control_request
 10826 ;; This function uses a non-reentrant model
 10827 ;;
 10828                           
 10829                           
 10830                           ;psect for function _app_endpoint_halt_callback
 10831  0203                     _app_endpoint_halt_callback:	
 10832                           
 10833                           ;incstack = 0
 10834                           ; Regs used in _app_endpoint_halt_callback: [wreg]
 10835  0203  0008               	return
 10836  0204                     __end_of_app_endpoint_halt_callback:	
 10837                           
 10838                           	psect	text55
 10839  1D84                     __ptext55:	
 10840 ;; *************** function _clear_ep0_stall *****************
 10841 ;; Defined at:
 10842 ;;		line 717 in file "../../../usb/src/usb.c"
 10843 ;; Parameters:    Size  Location     Type
 10844 ;;		None
 10845 ;; Auto vars:     Size  Location     Type
 10846 ;;		None
 10847 ;; Return value:  Size  Location     Type
 10848 ;;                  1    wreg      void 
 10849 ;; Registers used:
 10850 ;;		wreg, status,2
 10851 ;; Tracked objects:
 10852 ;;		On entry : 1F/1
 10853 ;;		On exit  : 1F/0
 10854 ;;		Unchanged: 0/0
 10855 ;; Data sizes:     COMMON   BANK0   BANK1   BANK2   BANK3   BANK4   BANK5   BANK6   BANK7   BANK8   BANK9  BANK10  BANK1
      +1  BANK12
 10856 ;;      Params:         0       0       0       0       0       0       0       0       0       0       0       0       
      +0       0
 10857 ;;      Locals:         0       0       0       0       0       0       0       0       0       0       0       0       
      +0       0
 10858 ;;      Temps:          1       0       0       0       0       0       0       0       0       0       0       0       
      +0       0
 10859 ;;      Totals:         1       0       0       0       0       0       0       0       0       0       0       0       
      +0       0
 10860 ;;Total ram usage:        1 bytes
 10861 ;; Hardware stack levels used:    1
 10862 ;; This function calls:
 10863 ;;		Nothing
 10864 ;; This function is called by:
 10865 ;;		_handle_ep0_setup
 10866 ;; This function uses a non-reentrant model
 10867 ;;
 10868                           
 10869                           
 10870                           ;psect for function _clear_ep0_stall
 10871  1D84                     _clear_ep0_stall:	
 10872                           
 10873                           ;incstack = 0
 10874                           ; Regs used in _clear_ep0_stall: [wreg+status,2]
 10875                           ;usb.c: 726: do { (bds[1]).BDnCNT = (8); (bds[1]).STAT.BDnSTAT = (0); } while(0);
 10876  1D84  3008               	movlw	8
 10877  1D85  00F0               	movwf	??_clear_ep0_stall
 10878  1D86  0870               	movf	??_clear_ep0_stall,w
 10879  1D87  0020               	movlb	0	; select bank0
 10880  1D88  00A5               	movwf	37
 10881  1D89  01A4               	clrf	36
 10882  1D8A  0008               	return
 10883  1D8B                     __end_of_clear_ep0_stall:	
 10884                           
 10885                           	psect	text56
 10886  1D7D                     __ptext56:	
 10887 ;; *************** function _app_unknown_setup_request_callback *****************
 10888 ;; Defined at:
 10889 ;;		line 219 in file "../main.c"
 10890 ;; Parameters:    Size  Location     Type
 10891 ;;  setup           2   59[BANK0 ] PTR const struct setup_p
 10892 ;;		 -> ep_buffers(144), 
 10893 ;; Auto vars:     Size  Location     Type
 10894 ;;		None
 10895 ;; Return value:  Size  Location     Type
 10896 ;;                  1    wreg      char 
 10897 ;; Registers used:
 10898 ;;		wreg, fsr0l, fsr0h, fsr1l, fsr1h, status,2, status,0, pclath, cstack
 10899 ;; Tracked objects:
 10900 ;;		On entry : 1F/0
 10901 ;;		On exit  : 1C/0
 10902 ;;		Unchanged: 0/0
 10903 ;; Data sizes:     COMMON   BANK0   BANK1   BANK2   BANK3   BANK4   BANK5   BANK6   BANK7   BANK8   BANK9  BANK10  BANK1
      +1  BANK12
 10904 ;;      Params:         0       2       0       0       0       0       0       0       0       0       0       0       
      +0       0
 10905 ;;      Locals:         0       0       0       0       0       0       0       0       0       0       0       0       
      +0       0
 10906 ;;      Temps:          0       0       0       0       0       0       0       0       0       0       0       0       
      +0       0
 10907 ;;      Totals:         0       2       0       0       0       0       0       0       0       0       0       0       
      +0       0
 10908 ;;Total ram usage:        2 bytes
 10909 ;; Hardware stack levels used:    1
 10910 ;; Hardware stack levels required when called:    6
 10911 ;; This function calls:
 10912 ;;		_process_hid_setup_request
 10913 ;; This function is called by:
 10914 ;;		_handle_ep0_setup
 10915 ;; This function uses a non-reentrant model
 10916 ;;
 10917                           
 10918                           
 10919                           ;psect for function _app_unknown_setup_request_callback
 10920  1D7D                     _app_unknown_setup_request_callback:	
 10921                           
 10922                           ;main.c: 228: return process_hid_setup_request(setup);
 10923                           
 10924                           ;incstack = 0
 10925                           ; Regs used in _app_unknown_setup_request_callback: [wreg-fsr1h+status,2+status,0+pclath
      +                          +cstack]
 10926  1D7D  086C               	movf	app_unknown_setup_request_callback@setup+1,w
 10927  1D7E  00C9               	movwf	process_hid_setup_request@setup+1
 10928  1D7F  086B               	movf	app_unknown_setup_request_callback@setup,w
 10929  1D80  00C8               	movwf	process_hid_setup_request@setup
 10930  1D81  318E  2632         	fcall	_process_hid_setup_request
 10931  1D83  0008               	return
 10932  1D84                     __end_of_app_unknown_setup_request_callback:	
 10933                           
 10934                           	psect	text57
 10935  0E32                     __ptext57:	
 10936 ;; *************** function _process_hid_setup_request *****************
 10937 ;; Defined at:
 10938 ;;		line 50 in file "../../../usb/src/usb_hid.c"
 10939 ;; Parameters:    Size  Location     Type
 10940 ;;  setup           2   24[BANK0 ] PTR const struct setup_p
 10941 ;;		 -> ep_buffers(144), 
 10942 ;; Auto vars:     Size  Location     Type
 10943 ;;  res             1   45[BANK0 ] char 
 10944 ;;  res             1   49[BANK0 ] char 
 10945 ;;  res             1   44[BANK0 ] unsigned char 
 10946 ;;  report_id       1   43[BANK0 ] unsigned char 
 10947 ;;  duration        1   42[BANK0 ] unsigned char 
 10948 ;;  res             1   41[BANK0 ] unsigned char 
 10949 ;;  report_id       1   40[BANK0 ] unsigned char 
 10950 ;;  res             1   39[BANK0 ] char 
 10951 ;;  report_id       1   38[BANK0 ] unsigned char 
 10952 ;;  report_type     1   37[BANK0 ] unsigned char 
 10953 ;;  report_id       1   36[BANK0 ] unsigned char 
 10954 ;;  report_type     1   35[BANK0 ] unsigned char 
 10955 ;;  desc            2   56[BANK0 ] PTR const void 
 10956 ;;		 -> custom_report_descriptor(28), configuration_1(41), 
 10957 ;;  len             2   54[BANK0 ] int 
 10958 ;;  descriptor      1   48[BANK0 ] unsigned char 
 10959 ;;  len             2   52[BANK0 ] int 
 10960 ;;  callback        2   46[BANK0 ] PTR FTN(unsigned char ,P
 10961 ;;		 -> get_report_callback(1), 
 10962 ;;  interface       1   58[BANK0 ] unsigned char 
 10963 ;;  context         1   51[BANK0 ] PTR void 
 10964 ;;		 -> NULL(0), 
 10965 ;;  desc            1   50[BANK0 ] PTR const void 
 10966 ;;		 -> report_buf(3), 
 10967 ;; Return value:  Size  Location     Type
 10968 ;;                  1    wreg      unsigned char 
 10969 ;; Registers used:
 10970 ;;		wreg, fsr0l, fsr0h, fsr1l, fsr1h, status,2, status,0, pclath, cstack
 10971 ;; Tracked objects:
 10972 ;;		On entry : 1F/0
 10973 ;;		On exit  : 1C/0
 10974 ;;		Unchanged: 0/0
 10975 ;; Data sizes:     COMMON   BANK0   BANK1   BANK2   BANK3   BANK4   BANK5   BANK6   BANK7   BANK8   BANK9  BANK10  BANK1
      +1  BANK12
 10976 ;;      Params:         0       2       0       0       0       0       0       0       0       0       0       0       
      +0       0
 10977 ;;      Locals:         0      28       0       0       0       0       0       0       0       0       0       0       
      +0       0
 10978 ;;      Temps:          0       5       0       0       0       0       0       0       0       0       0       0       
      +0       0
 10979 ;;      Totals:         0      35       0       0       0       0       0       0       0       0       0       0       
      +0       0
 10980 ;;Total ram usage:       35 bytes
 10981 ;; Hardware stack levels used:    1
 10982 ;; Hardware stack levels required when called:    5
 10983 ;; This function calls:
 10984 ;;		_app_get_idle_callback
 10985 ;;		_app_get_protocol_callback
 10986 ;;		_app_get_report_callback
 10987 ;;		_app_set_idle_callback
 10988 ;;		_app_set_protocol_callback
 10989 ;;		_app_set_report_callback
 10990 ;;		_usb_application_get_hid_descriptor
 10991 ;;		_usb_application_get_hid_report_descriptor
 10992 ;;		_usb_send_data_stage
 10993 ;; This function is called by:
 10994 ;;		_app_unknown_setup_request_callback
 10995 ;; This function uses a non-reentrant model
 10996 ;;
 10997                           
 10998                           
 10999                           ;psect for function _process_hid_setup_request
 11000  0E32                     _process_hid_setup_request:	
 11001                           
 11002                           ;usb_hid.c: 54: uint8_t interface = setup->wIndex;
 11003                           
 11004                           ;incstack = 0
 11005                           ; Regs used in _process_hid_setup_request: [wreg-fsr1h+status,2+status,0+pclath+cstack]
 11006  0E32  0848               	movf	process_hid_setup_request@setup,w
 11007  0E33  0086               	movwf	6
 11008  0E34  0849               	movf	process_hid_setup_request@setup+1,w
 11009  0E35  0087               	movwf	7
 11010  0E36  3144               	addfsr 1,4
 11011  0E37  0801               	movf	1,w
 11012  0E38  00CA               	movwf	??_process_hid_setup_request
 11013  0E39  084A               	movf	??_process_hid_setup_request,w
 11014  0E3A  00EA               	movwf	process_hid_setup_request@interface
 11015                           
 11016                           ;usb_hid.c: 72: if (setup->bRequest == GET_DESCRIPTOR &&;usb_hid.c: 73: setup->REQUEST.b
      +                          mRequestType == 0x81) {
 11017  0E3B  0848               	movf	process_hid_setup_request@setup,w
 11018  0E3C  0086               	movwf	6
 11019  0E3D  0849               	movf	process_hid_setup_request@setup+1,w
 11020  0E3E  0087               	movwf	7
 11021  0E3F  3141               	addfsr 1,1
 11022  0E40  3006               	movlw	6
 11023  0E41  0601               	xorwf	1,w
 11024  0E42  1D03               	btfss	3,2
 11025  0E43  2F18               	goto	i1l3287
 11026  0E44  0848               	movf	process_hid_setup_request@setup,w
 11027  0E45  0086               	movwf	6
 11028  0E46  0849               	movf	process_hid_setup_request@setup+1,w
 11029  0E47  0087               	movwf	7
 11030  0E48  3081               	movlw	129
 11031  0E49  0601               	xorwf	1,w
 11032  0E4A  1D03               	btfss	3,2
 11033  0E4B  2F18               	goto	i1l3287
 11034                           
 11035                           ;usb_hid.c: 74: uint8_t descriptor = ((setup->wValue >> 8) & 0x00ff);
 11036  0E4C  0848               	movf	process_hid_setup_request@setup,w
 11037  0E4D  0086               	movwf	6
 11038  0E4E  0849               	movf	process_hid_setup_request@setup+1,w
 11039  0E4F  0087               	movwf	7
 11040  0E50  3142               	addfsr 1,2
 11041  0E51  3F40               	moviw [0]fsr1
 11042  0E52  00CA               	movwf	??_process_hid_setup_request
 11043  0E53  3F41               	moviw [1]fsr1
 11044  0E54  00CB               	movwf	??_process_hid_setup_request+1
 11045  0E55  084B               	movf	??_process_hid_setup_request+1,w
 11046  0E56  00CC               	movwf	??_process_hid_setup_request+2
 11047  0E57  084C               	movf	??_process_hid_setup_request+2,w
 11048  0E58  00E0               	movwf	process_hid_setup_request@descriptor
 11049                           
 11050                           ;usb_hid.c: 76: const void *desc;;usb_hid.c: 77: int16_t len = -1;
 11051  0E59  30FF               	movlw	255
 11052  0E5A  00E6               	movwf	process_hid_setup_request@len
 11053  0E5B  30FF               	movlw	255
 11054  0E5C  00E7               	movwf	process_hid_setup_request@len+1
 11055                           
 11056                           ;usb_hid.c: 79: if (descriptor == DESC_HID) {
 11057  0E5D  3021               	movlw	33
 11058  0E5E  0660               	xorwf	process_hid_setup_request@descriptor,w
 11059  0E5F  1D03               	btfss	3,2
 11060  0E60  2E6D               	goto	i1l3263
 11061                           
 11062                           ;usb_hid.c: 80: len = usb_application_get_hid_descriptor(interface, &desc);
 11063  0E61  3068               	movlw	(low (process_hid_setup_request@desc| 0))& (0+255)
 11064  0E62  00CA               	movwf	??_process_hid_setup_request
 11065  0E63  084A               	movf	??_process_hid_setup_request,w
 11066  0E64  00F0               	movwf	usb_application_get_hid_descriptor@ptr
 11067  0E65  086A               	movf	process_hid_setup_request@interface,w
 11068  0E66  319D  25FE  318E   	fcall	_usb_application_get_hid_descriptor
 11069  0E69  0871               	movf	?_usb_application_get_hid_descriptor+1,w
 11070  0E6A  00E7               	movwf	process_hid_setup_request@len+1
 11071  0E6B  0870               	movf	?_usb_application_get_hid_descriptor,w
 11072  0E6C  2E7C               	goto	L6
 11073  0E6D                     i1l3263:	
 11074                           ;usb_hid.c: 81: }
 11075                           
 11076                           
 11077                           ;usb_hid.c: 82: else if (descriptor == DESC_REPORT) {
 11078  0E6D  3022               	movlw	34
 11079  0E6E  0660               	xorwf	process_hid_setup_request@descriptor,w
 11080  0E6F  1D03               	btfss	3,2
 11081  0E70  2E7D               	goto	i1l3267
 11082                           
 11083                           ;usb_hid.c: 83: len = usb_application_get_hid_report_descriptor(interface, &desc);
 11084  0E71  3068               	movlw	(low (process_hid_setup_request@desc| 0))& (0+255)
 11085  0E72  00CA               	movwf	??_process_hid_setup_request
 11086  0E73  084A               	movf	??_process_hid_setup_request,w
 11087  0E74  00F0               	movwf	usb_application_get_hid_report_descriptor@ptr
 11088  0E75  086A               	movf	process_hid_setup_request@interface,w
 11089  0E76  319D  25CB  318E   	fcall	_usb_application_get_hid_report_descriptor
 11090  0E79  0871               	movf	?_usb_application_get_hid_report_descriptor+1,w
 11091  0E7A  00E7               	movwf	process_hid_setup_request@len+1
 11092  0E7B  0870               	movf	?_usb_application_get_hid_report_descriptor,w
 11093  0E7C                     L6:	
 11094  0E7C  00E6               	movwf	process_hid_setup_request@len
 11095  0E7D                     i1l3267:	
 11096                           
 11097                           ;usb_hid.c: 84: };usb_hid.c: 91: if (len < 0)
 11098  0E7D  1FE7               	btfss	process_hid_setup_request@len+1,7
 11099  0E7E  2E81               	goto	i1l3273
 11100  0E7F                     i1l3269:	
 11101                           
 11102                           ;usb_hid.c: 92: return -1;
 11103  0E7F  30FF               	movlw	255
 11104  0E80  0008               	return
 11105  0E81                     i1l3273:	
 11106                           
 11107                           ;usb_hid.c: 95: usb_send_data_stage((void*) desc, (((len)<(setup->wLength))?(len):(setup
      +                          ->wLength)), (0), (0));
 11108  0E81  0848               	movf	process_hid_setup_request@setup,w
 11109  0E82  0086               	movwf	6
 11110  0E83  0849               	movf	process_hid_setup_request@setup+1,w
 11111  0E84  0087               	movwf	7
 11112  0E85  3146               	addfsr 1,6
 11113  0E86  3F40               	moviw [0]fsr1
 11114  0E87  00CA               	movwf	??_process_hid_setup_request
 11115  0E88  3F41               	moviw [1]fsr1
 11116  0E89  00CB               	movwf	??_process_hid_setup_request+1
 11117  0E8A  084B               	movf	??_process_hid_setup_request+1,w
 11118  0E8B  0267               	subwf	process_hid_setup_request@len+1,w
 11119  0E8C  1D03               	skipz
 11120  0E8D  2E90               	goto	u282_25
 11121  0E8E  084A               	movf	??_process_hid_setup_request,w
 11122  0E8F  0266               	subwf	process_hid_setup_request@len,w
 11123  0E90                     u282_25:	
 11124  0E90  1C03               	skipc
 11125  0E91  2E9C               	goto	i1l3277
 11126  0E92  0848               	movf	process_hid_setup_request@setup,w
 11127  0E93  0086               	movwf	6
 11128  0E94  0849               	movf	process_hid_setup_request@setup+1,w
 11129  0E95  0087               	movwf	7
 11130  0E96  3146               	addfsr 1,6
 11131  0E97  3F40               	moviw [0]fsr1
 11132  0E98  00CF               	movwf	_process_hid_setup_request$1018
 11133  0E99  3F41               	moviw [1]fsr1
 11134  0E9A  00D0               	movwf	_process_hid_setup_request$1018+1
 11135  0E9B  2EA0               	goto	i1l3279
 11136  0E9C                     i1l3277:	
 11137  0E9C  0867               	movf	process_hid_setup_request@len+1,w
 11138  0E9D  00D0               	movwf	_process_hid_setup_request$1018+1
 11139  0E9E  0866               	movf	process_hid_setup_request@len,w
 11140  0E9F  00CF               	movwf	_process_hid_setup_request$1018
 11141  0EA0                     i1l3279:	
 11142  0EA0  0869               	movf	process_hid_setup_request@desc+1,w
 11143  0EA1  00C1               	movwf	usb_send_data_stage@buffer+1
 11144  0EA2  0868               	movf	process_hid_setup_request@desc,w
 11145  0EA3  00C0               	movwf	usb_send_data_stage@buffer
 11146  0EA4  0850               	movf	_process_hid_setup_request$1018+1,w
 11147  0EA5  00C3               	movwf	usb_send_data_stage@len+1
 11148  0EA6  084F               	movf	_process_hid_setup_request$1018,w
 11149  0EA7  00C2               	movwf	usb_send_data_stage@len
 11150  0EA8  2FD9               	goto	L9
 11151  0EA9                     i1l3289:	
 11152  0EA9  0848               	movf	process_hid_setup_request@setup,w
 11153  0EAA  0086               	movwf	6
 11154  0EAB  0849               	movf	process_hid_setup_request@setup+1,w
 11155  0EAC  0087               	movwf	7
 11156  0EAD  30A1               	movlw	161
 11157  0EAE  0601               	xorwf	1,w
 11158  0EAF  1D03               	btfss	3,2
 11159  0EB0  2F20               	goto	i1l3315
 11160                           
 11161                           ;usb_hid.c: 108: uint8_t report_type = (setup->wValue >> 8) & 0x00ff;
 11162  0EB1  0848               	movf	process_hid_setup_request@setup,w
 11163  0EB2  0086               	movwf	6
 11164  0EB3  0849               	movf	process_hid_setup_request@setup+1,w
 11165  0EB4  0087               	movwf	7
 11166  0EB5  3142               	addfsr 1,2
 11167  0EB6  3F40               	moviw [0]fsr1
 11168  0EB7  00CA               	movwf	??_process_hid_setup_request
 11169  0EB8  3F41               	moviw [1]fsr1
 11170  0EB9  00CB               	movwf	??_process_hid_setup_request+1
 11171  0EBA  084B               	movf	??_process_hid_setup_request+1,w
 11172  0EBB  00CC               	movwf	??_process_hid_setup_request+2
 11173  0EBC  084C               	movf	??_process_hid_setup_request+2,w
 11174  0EBD  00D3               	movwf	process_hid_setup_request@report_type
 11175                           
 11176                           ;usb_hid.c: 109: uint8_t report_id = setup->wValue & 0x00ff;
 11177  0EBE  0848               	movf	process_hid_setup_request@setup,w
 11178  0EBF  0086               	movwf	6
 11179  0EC0  0849               	movf	process_hid_setup_request@setup+1,w
 11180  0EC1  0087               	movwf	7
 11181  0EC2  3142               	addfsr 1,2
 11182  0EC3  0801               	movf	1,w
 11183  0EC4  00CA               	movwf	??_process_hid_setup_request
 11184  0EC5  084A               	movf	??_process_hid_setup_request,w
 11185  0EC6  00D4               	movwf	process_hid_setup_request@report_id
 11186                           
 11187                           ;usb_hid.c: 110: len = app_get_report_callback(interface ,;usb_hid.c: 111: report_type, 
      +                          report_id,;usb_hid.c: 112: &desc, &callback, &context);
 11188  0EC7  0853               	movf	process_hid_setup_request@report_type,w
 11189  0EC8  00CA               	movwf	??_process_hid_setup_request
 11190  0EC9  084A               	movf	??_process_hid_setup_request,w
 11191  0ECA  00F0               	movwf	app_get_report_callback@report_type
 11192  0ECB  0854               	movf	process_hid_setup_request@report_id,w
 11193  0ECC  00CB               	movwf	??_process_hid_setup_request+1
 11194  0ECD  084B               	movf	??_process_hid_setup_request+1,w
 11195  0ECE  00F1               	movwf	app_get_report_callback@report_id
 11196  0ECF  3062               	movlw	(low (process_hid_setup_request@desc_1019| 0))& (0+255)
 11197  0ED0  00CC               	movwf	??_process_hid_setup_request+2
 11198  0ED1  084C               	movf	??_process_hid_setup_request+2,w
 11199  0ED2  00F2               	movwf	app_get_report_callback@report
 11200  0ED3  305E               	movlw	(low (process_hid_setup_request@callback| 0))& (0+255)
 11201  0ED4  00CD               	movwf	??_process_hid_setup_request+3
 11202  0ED5  084D               	movf	??_process_hid_setup_request+3,w
 11203  0ED6  00F3               	movwf	app_get_report_callback@callback
 11204  0ED7  3063               	movlw	(low (process_hid_setup_request@context| 0))& (0+255)
 11205  0ED8  00CE               	movwf	??_process_hid_setup_request+4
 11206  0ED9  084E               	movf	??_process_hid_setup_request+4,w
 11207  0EDA  00F4               	movwf	app_get_report_callback@context
 11208  0EDB  086A               	movf	process_hid_setup_request@interface,w
 11209  0EDC  319E  2632  318E   	fcall	_app_get_report_callback
 11210  0EDF  0871               	movf	?_app_get_report_callback+1,w
 11211  0EE0  00E5               	movwf	process_hid_setup_request@len_1020+1
 11212  0EE1  0870               	movf	?_app_get_report_callback,w
 11213  0EE2  00E4               	movwf	process_hid_setup_request@len_1020
 11214                           
 11215                           ;usb_hid.c: 113: if (len < 0)
 11216  0EE3  1BE5               	btfsc	process_hid_setup_request@len_1020+1,7
 11217  0EE4  2E7F               	goto	i1l3269
 11218                           
 11219                           ;usb_hid.c: 117: usb_send_data_stage((void*)desc, (((len)<(setup->wLength))?(len):(setup
      +                          ->wLength)), callback, context);
 11220  0EE5  0848               	movf	process_hid_setup_request@setup,w
 11221  0EE6  0086               	movwf	6
 11222  0EE7  0849               	movf	process_hid_setup_request@setup+1,w
 11223  0EE8  0087               	movwf	7
 11224  0EE9  3146               	addfsr 1,6
 11225  0EEA  3F40               	moviw [0]fsr1
 11226  0EEB  00CA               	movwf	??_process_hid_setup_request
 11227  0EEC  3F41               	moviw [1]fsr1
 11228  0EED  00CB               	movwf	??_process_hid_setup_request+1
 11229  0EEE  084B               	movf	??_process_hid_setup_request+1,w
 11230  0EEF  0265               	subwf	process_hid_setup_request@len_1020+1,w
 11231  0EF0  1D03               	skipz
 11232  0EF1  2EF4               	goto	u286_25
 11233  0EF2  084A               	movf	??_process_hid_setup_request,w
 11234  0EF3  0264               	subwf	process_hid_setup_request@len_1020,w
 11235  0EF4                     u286_25:	
 11236  0EF4  1C03               	skipc
 11237  0EF5  2F00               	goto	i1l3307
 11238  0EF6  0848               	movf	process_hid_setup_request@setup,w
 11239  0EF7  0086               	movwf	6
 11240  0EF8  0849               	movf	process_hid_setup_request@setup+1,w
 11241  0EF9  0087               	movwf	7
 11242  0EFA  3146               	addfsr 1,6
 11243  0EFB  3F40               	moviw [0]fsr1
 11244  0EFC  00D1               	movwf	_process_hid_setup_request$1030
 11245  0EFD  3F41               	moviw [1]fsr1
 11246  0EFE  00D2               	movwf	_process_hid_setup_request$1030+1
 11247  0EFF  2F04               	goto	i1l3309
 11248  0F00                     i1l3307:	
 11249  0F00  0865               	movf	process_hid_setup_request@len_1020+1,w
 11250  0F01  00D2               	movwf	_process_hid_setup_request$1030+1
 11251  0F02  0864               	movf	process_hid_setup_request@len_1020,w
 11252  0F03  00D1               	movwf	_process_hid_setup_request$1030
 11253  0F04                     i1l3309:	
 11254  0F04  0862               	movf	process_hid_setup_request@desc_1019,w
 11255  0F05  00C0               	movwf	usb_send_data_stage@buffer
 11256  0F06  3002               	movlw	2
 11257  0F07  00C1               	movwf	usb_send_data_stage@buffer+1
 11258  0F08  0852               	movf	_process_hid_setup_request$1030+1,w
 11259  0F09  00C3               	movwf	usb_send_data_stage@len+1
 11260  0F0A  0851               	movf	_process_hid_setup_request$1030,w
 11261  0F0B  00C2               	movwf	usb_send_data_stage@len
 11262  0F0C  085F               	movf	process_hid_setup_request@callback+1,w
 11263  0F0D  00C5               	movwf	usb_send_data_stage@callback+1
 11264  0F0E  085E               	movf	process_hid_setup_request@callback,w
 11265  0F0F  00C4               	movwf	usb_send_data_stage@callback
 11266  0F10  0863               	movf	process_hid_setup_request@context,w
 11267  0F11  00CA               	movwf	??_process_hid_setup_request
 11268  0F12  084A               	movf	??_process_hid_setup_request,w
 11269  0F13  00C6               	movwf	usb_send_data_stage@context
 11270  0F14                     L7:	
 11271  0F14  319E  26E4         	fcall	_usb_send_data_stage
 11272                           
 11273                           ;usb_hid.c: 96: return 0;
 11274  0F16  3000               	movlw	0
 11275  0F17  0008               	return
 11276  0F18                     i1l3287:	
 11277                           
 11278                           ;usb_hid.c: 104: usb_ep0_data_stage_callback callback;;usb_hid.c: 105: void *context;;us
      +                          b_hid.c: 106: if (setup->bRequest == HID_GET_REPORT &&;usb_hid.c: 107: setup->REQUEST.bm
      +                          RequestType == 0xa1) {
 11279  0F18  0848               	movf	process_hid_setup_request@setup,w
 11280  0F19  0086               	movwf	6
 11281  0F1A  0849               	movf	process_hid_setup_request@setup+1,w
 11282  0F1B  0087               	movwf	7
 11283  0F1C  3141               	addfsr 1,1
 11284  0F1D  0301               	decf	1,w
 11285  0F1E  1903               	btfsc	3,2
 11286  0F1F  2EA9               	goto	i1l3289
 11287  0F20                     i1l3315:	
 11288                           
 11289                           ;usb_hid.c: 119: };usb_hid.c: 123: if (setup->bRequest == HID_SET_REPORT &&;usb_hid.c: 1
      +                          24: setup->REQUEST.bmRequestType == 0x21) {
 11290  0F20  0848               	movf	process_hid_setup_request@setup,w
 11291  0F21  0086               	movwf	6
 11292  0F22  0849               	movf	process_hid_setup_request@setup+1,w
 11293  0F23  0087               	movwf	7
 11294  0F24  3141               	addfsr 1,1
 11295  0F25  3009               	movlw	9
 11296  0F26  0601               	xorwf	1,w
 11297  0F27  1D03               	btfss	3,2
 11298  0F28  2F57               	goto	i1l3329
 11299  0F29  0848               	movf	process_hid_setup_request@setup,w
 11300  0F2A  0086               	movwf	6
 11301  0F2B  0849               	movf	process_hid_setup_request@setup+1,w
 11302  0F2C  0087               	movwf	7
 11303  0F2D  3021               	movlw	33
 11304  0F2E  0601               	xorwf	1,w
 11305  0F2F  1D03               	btfss	3,2
 11306  0F30  2F57               	goto	i1l3329
 11307                           
 11308                           ;usb_hid.c: 125: uint8_t report_type = (setup->wValue >> 8) & 0x00ff;
 11309  0F31  0848               	movf	process_hid_setup_request@setup,w
 11310  0F32  0086               	movwf	6
 11311  0F33  0849               	movf	process_hid_setup_request@setup+1,w
 11312  0F34  0087               	movwf	7
 11313  0F35  3142               	addfsr 1,2
 11314  0F36  3F40               	moviw [0]fsr1
 11315  0F37  00CA               	movwf	??_process_hid_setup_request
 11316  0F38  3F41               	moviw [1]fsr1
 11317  0F39  00CB               	movwf	??_process_hid_setup_request+1
 11318  0F3A  084B               	movf	??_process_hid_setup_request+1,w
 11319  0F3B  00CC               	movwf	??_process_hid_setup_request+2
 11320  0F3C  084C               	movf	??_process_hid_setup_request+2,w
 11321  0F3D  00D5               	movwf	process_hid_setup_request@report_type_1031
 11322                           
 11323                           ;usb_hid.c: 126: uint8_t report_id = setup->wValue & 0x00ff;
 11324  0F3E  0848               	movf	process_hid_setup_request@setup,w
 11325  0F3F  0086               	movwf	6
 11326  0F40  0849               	movf	process_hid_setup_request@setup+1,w
 11327  0F41  0087               	movwf	7
 11328  0F42  3142               	addfsr 1,2
 11329  0F43  0801               	movf	1,w
 11330  0F44  00CA               	movwf	??_process_hid_setup_request
 11331  0F45  084A               	movf	??_process_hid_setup_request,w
 11332  0F46  00D6               	movwf	process_hid_setup_request@report_id_1032
 11333                           
 11334                           ;usb_hid.c: 127: int8_t res = app_set_report_callback(interface,;usb_hid.c: 128: report_
      +                          type, report_id);
 11335  0F47  0855               	movf	process_hid_setup_request@report_type_1031,w
 11336  0F48  00CA               	movwf	??_process_hid_setup_request
 11337  0F49  084A               	movf	??_process_hid_setup_request,w
 11338  0F4A  00F0               	movwf	app_set_report_callback@report_type
 11339  0F4B  0856               	movf	process_hid_setup_request@report_id_1032,w
 11340  0F4C  00CB               	movwf	??_process_hid_setup_request+1
 11341  0F4D  084B               	movf	??_process_hid_setup_request+1,w
 11342  0F4E  00F1               	movwf	app_set_report_callback@report_id
 11343  0F4F  086A               	movf	process_hid_setup_request@interface,w
 11344  0F50  319D  2555         	fcall	_app_set_report_callback
 11345  0F52  00CC               	movwf	??_process_hid_setup_request+2
 11346  0F53  084C               	movf	??_process_hid_setup_request+2,w
 11347  0F54  00D7               	movwf	process_hid_setup_request@res
 11348                           
 11349                           ;usb_hid.c: 129: return res;
 11350  0F55  0857               	movf	process_hid_setup_request@res,w
 11351  0F56  0008               	return
 11352  0F57                     i1l3329:	
 11353                           
 11354                           ;usb_hid.c: 130: };usb_hid.c: 134: if (setup->bRequest == HID_GET_IDLE &&;usb_hid.c: 135
      +                          : setup->REQUEST.bmRequestType == 0xa1) {
 11355  0F57  0848               	movf	process_hid_setup_request@setup,w
 11356  0F58  0086               	movwf	6
 11357  0F59  0849               	movf	process_hid_setup_request@setup+1,w
 11358  0F5A  0087               	movwf	7
 11359  0F5B  3141               	addfsr 1,1
 11360  0F5C  3002               	movlw	2
 11361  0F5D  0601               	xorwf	1,w
 11362  0F5E  1D03               	btfss	3,2
 11363  0F5F  2F80               	goto	i1l3343
 11364  0F60  0848               	movf	process_hid_setup_request@setup,w
 11365  0F61  0086               	movwf	6
 11366  0F62  0849               	movf	process_hid_setup_request@setup+1,w
 11367  0F63  0087               	movwf	7
 11368  0F64  30A1               	movlw	161
 11369  0F65  0601               	xorwf	1,w
 11370  0F66  1D03               	btfss	3,2
 11371  0F67  2F80               	goto	i1l3343
 11372                           
 11373                           ;usb_hid.c: 136: uint8_t report_id = setup->wValue & 0x00ff;
 11374  0F68  0848               	movf	process_hid_setup_request@setup,w
 11375  0F69  0086               	movwf	6
 11376  0F6A  0849               	movf	process_hid_setup_request@setup+1,w
 11377  0F6B  0087               	movwf	7
 11378  0F6C  3142               	addfsr 1,2
 11379  0F6D  0801               	movf	1,w
 11380  0F6E  00CA               	movwf	??_process_hid_setup_request
 11381  0F6F  084A               	movf	??_process_hid_setup_request,w
 11382  0F70  00D8               	movwf	process_hid_setup_request@report_id_1034
 11383                           
 11384                           ;usb_hid.c: 137: uint8_t res = app_get_idle_callback(interface, report_id);
 11385  0F71  0858               	movf	process_hid_setup_request@report_id_1034,w
 11386  0F72  00CA               	movwf	??_process_hid_setup_request
 11387  0F73  084A               	movf	??_process_hid_setup_request,w
 11388  0F74  00F0               	movwf	app_get_idle_callback@report_id
 11389  0F75  086A               	movf	process_hid_setup_request@interface,w
 11390  0F76  319D  254D  318E   	fcall	_app_get_idle_callback
 11391  0F79  00CB               	movwf	??_process_hid_setup_request+1
 11392  0F7A  084B               	movf	??_process_hid_setup_request+1,w
 11393  0F7B  00D9               	movwf	process_hid_setup_request@res_1035
 11394                           
 11395                           ;usb_hid.c: 139: usb_send_data_stage((char*)&res, 1, (0), (0));
 11396  0F7C  3059               	movlw	low process_hid_setup_request@res_1035
 11397  0F7D  00C0               	movwf	usb_send_data_stage@buffer
 11398  0F7E  3000               	movlw	high process_hid_setup_request@res_1035
 11399  0F7F  2FD4               	goto	L8
 11400  0F80                     i1l3343:	
 11401                           
 11402                           ;usb_hid.c: 141: };usb_hid.c: 145: if (setup->bRequest == HID_SET_IDLE &&;usb_hid.c: 146
      +                          : setup->REQUEST.bmRequestType == 0x21) {
 11403  0F80  0848               	movf	process_hid_setup_request@setup,w
 11404  0F81  0086               	movwf	6
 11405  0F82  0849               	movf	process_hid_setup_request@setup+1,w
 11406  0F83  0087               	movwf	7
 11407  0F84  3141               	addfsr 1,1
 11408  0F85  300A               	movlw	10
 11409  0F86  0601               	xorwf	1,w
 11410  0F87  1D03               	btfss	3,2
 11411  0F88  2FB7               	goto	i1l3357
 11412  0F89  0848               	movf	process_hid_setup_request@setup,w
 11413  0F8A  0086               	movwf	6
 11414  0F8B  0849               	movf	process_hid_setup_request@setup+1,w
 11415  0F8C  0087               	movwf	7
 11416  0F8D  3021               	movlw	33
 11417  0F8E  0601               	xorwf	1,w
 11418  0F8F  1D03               	btfss	3,2
 11419  0F90  2FB7               	goto	i1l3357
 11420                           
 11421                           ;usb_hid.c: 147: uint8_t duration = (setup->wValue >> 8) & 0x00ff;
 11422  0F91  0848               	movf	process_hid_setup_request@setup,w
 11423  0F92  0086               	movwf	6
 11424  0F93  0849               	movf	process_hid_setup_request@setup+1,w
 11425  0F94  0087               	movwf	7
 11426  0F95  3142               	addfsr 1,2
 11427  0F96  3F40               	moviw [0]fsr1
 11428  0F97  00CA               	movwf	??_process_hid_setup_request
 11429  0F98  3F41               	moviw [1]fsr1
 11430  0F99  00CB               	movwf	??_process_hid_setup_request+1
 11431  0F9A  084B               	movf	??_process_hid_setup_request+1,w
 11432  0F9B  00CC               	movwf	??_process_hid_setup_request+2
 11433  0F9C  084C               	movf	??_process_hid_setup_request+2,w
 11434  0F9D  00DA               	movwf	process_hid_setup_request@duration
 11435                           
 11436                           ;usb_hid.c: 148: uint8_t report_id = setup->wValue & 0x00ff;
 11437  0F9E  0848               	movf	process_hid_setup_request@setup,w
 11438  0F9F  0086               	movwf	6
 11439  0FA0  0849               	movf	process_hid_setup_request@setup+1,w
 11440  0FA1  0087               	movwf	7
 11441  0FA2  3142               	addfsr 1,2
 11442  0FA3  0801               	movf	1,w
 11443  0FA4  00CA               	movwf	??_process_hid_setup_request
 11444  0FA5  084A               	movf	??_process_hid_setup_request,w
 11445  0FA6  00DB               	movwf	process_hid_setup_request@report_id_1037
 11446                           
 11447                           ;usb_hid.c: 149: uint8_t res = app_set_idle_callback(interface, report_id,;usb_hid.c: 15
      +                          0: duration);
 11448  0FA7  085B               	movf	process_hid_setup_request@report_id_1037,w
 11449  0FA8  00CA               	movwf	??_process_hid_setup_request
 11450  0FA9  084A               	movf	??_process_hid_setup_request,w
 11451  0FAA  00F0               	movwf	app_set_idle_callback@report_id
 11452  0FAB  085A               	movf	process_hid_setup_request@duration,w
 11453  0FAC  00CB               	movwf	??_process_hid_setup_request+1
 11454  0FAD  084B               	movf	??_process_hid_setup_request+1,w
 11455  0FAE  00F1               	movwf	app_set_idle_callback@idle_rate
 11456  0FAF  086A               	movf	process_hid_setup_request@interface,w
 11457  0FB0  319D  2551         	fcall	_app_set_idle_callback
 11458  0FB2  00CC               	movwf	??_process_hid_setup_request+2
 11459  0FB3  084C               	movf	??_process_hid_setup_request+2,w
 11460  0FB4  00DC               	movwf	process_hid_setup_request@res_1038
 11461                           
 11462                           ;usb_hid.c: 152: return res;
 11463  0FB5  085C               	movf	process_hid_setup_request@res_1038,w
 11464  0FB6  0008               	return
 11465  0FB7                     i1l3357:	
 11466                           
 11467                           ;usb_hid.c: 153: };usb_hid.c: 157: if (setup->bRequest == HID_GET_PROTOCOL &&;usb_hid.c:
      +                           158: setup->REQUEST.bmRequestType == 0xa1) {
 11468  0FB7  0848               	movf	process_hid_setup_request@setup,w
 11469  0FB8  0086               	movwf	6
 11470  0FB9  0849               	movf	process_hid_setup_request@setup+1,w
 11471  0FBA  0087               	movwf	7
 11472  0FBB  3141               	addfsr 1,1
 11473  0FBC  3003               	movlw	3
 11474  0FBD  0601               	xorwf	1,w
 11475  0FBE  1D03               	btfss	3,2
 11476  0FBF  2FDE               	goto	i1l3375
 11477  0FC0  0848               	movf	process_hid_setup_request@setup,w
 11478  0FC1  0086               	movwf	6
 11479  0FC2  0849               	movf	process_hid_setup_request@setup+1,w
 11480  0FC3  0087               	movwf	7
 11481  0FC4  30A1               	movlw	161
 11482  0FC5  0601               	xorwf	1,w
 11483  0FC6  1D03               	btfss	3,2
 11484  0FC7  2FDE               	goto	i1l3375
 11485                           
 11486                           ;usb_hid.c: 159: int8_t res = app_get_protocol_callback(interface);
 11487  0FC8  086A               	movf	process_hid_setup_request@interface,w
 11488  0FC9  319D  254F  318E   	fcall	_app_get_protocol_callback
 11489  0FCC  00CA               	movwf	??_process_hid_setup_request
 11490  0FCD  084A               	movf	??_process_hid_setup_request,w
 11491  0FCE  00E1               	movwf	process_hid_setup_request@res_1039
 11492                           
 11493                           ;usb_hid.c: 160: if (res < 0)
 11494  0FCF  1BE1               	btfsc	process_hid_setup_request@res_1039,7
 11495  0FD0  2E7F               	goto	i1l3269
 11496                           
 11497                           ;usb_hid.c: 163: usb_send_data_stage((char*)&res, 1, (0), (0));
 11498  0FD1  3061               	movlw	low process_hid_setup_request@res_1039
 11499  0FD2  00C0               	movwf	usb_send_data_stage@buffer
 11500  0FD3  3000               	movlw	high process_hid_setup_request@res_1039
 11501  0FD4                     L8:	
 11502  0FD4  00C1               	movwf	usb_send_data_stage@buffer+1
 11503  0FD5  3001               	movlw	1
 11504  0FD6  00C2               	movwf	usb_send_data_stage@len
 11505  0FD7  3000               	movlw	0
 11506  0FD8  00C3               	movwf	usb_send_data_stage@len+1
 11507  0FD9                     L9:	
 11508  0FD9  3000               	movlw	0
 11509  0FDA  00C4               	movwf	usb_send_data_stage@callback
 11510  0FDB  00C5               	movwf	usb_send_data_stage@callback+1
 11511  0FDC  01C6               	clrf	usb_send_data_stage@context
 11512  0FDD  2F14               	goto	L7
 11513  0FDE                     i1l3375:	
 11514                           
 11515                           ;usb_hid.c: 165: };usb_hid.c: 169: if (setup->bRequest == HID_SET_PROTOCOL &&;usb_hid.c:
      +                           170: setup->REQUEST.bmRequestType == 0x21) {
 11516  0FDE  0848               	movf	process_hid_setup_request@setup,w
 11517  0FDF  0086               	movwf	6
 11518  0FE0  0849               	movf	process_hid_setup_request@setup+1,w
 11519  0FE1  0087               	movwf	7
 11520  0FE2  3141               	addfsr 1,1
 11521  0FE3  300B               	movlw	11
 11522  0FE4  0601               	xorwf	1,w
 11523  0FE5  1D03               	btfss	3,2
 11524  0FE6  2E7F               	goto	i1l3269
 11525  0FE7  0848               	movf	process_hid_setup_request@setup,w
 11526  0FE8  0086               	movwf	6
 11527  0FE9  0849               	movf	process_hid_setup_request@setup+1,w
 11528  0FEA  0087               	movwf	7
 11529  0FEB  3021               	movlw	33
 11530  0FEC  0601               	xorwf	1,w
 11531  0FED  1D03               	btfss	3,2
 11532  0FEE  2E7F               	goto	i1l3269
 11533                           
 11534                           ;usb_hid.c: 171: int8_t res = app_set_protocol_callback(interface,;usb_hid.c: 172: setup
      +                          ->wValue);
 11535  0FEF  0848               	movf	process_hid_setup_request@setup,w
 11536  0FF0  0086               	movwf	6
 11537  0FF1  0849               	movf	process_hid_setup_request@setup+1,w
 11538  0FF2  0087               	movwf	7
 11539  0FF3  3142               	addfsr 1,2
 11540  0FF4  0801               	movf	1,w
 11541  0FF5  00CA               	movwf	??_process_hid_setup_request
 11542  0FF6  084A               	movf	??_process_hid_setup_request,w
 11543  0FF7  00F0               	movwf	app_set_protocol_callback@report_id
 11544  0FF8  086A               	movf	process_hid_setup_request@interface,w
 11545  0FF9  319D  2553         	fcall	_app_set_protocol_callback
 11546  0FFB  00CB               	movwf	??_process_hid_setup_request+1
 11547  0FFC  084B               	movf	??_process_hid_setup_request+1,w
 11548  0FFD  00DD               	movwf	process_hid_setup_request@res_1040
 11549                           
 11550                           ;usb_hid.c: 173: return res;
 11551  0FFE  085D               	movf	process_hid_setup_request@res_1040,w
 11552  0FFF  0008               	return
 11553  1000                     __end_of_process_hid_setup_request:	
 11554                           
 11555                           	psect	text58
 11556  1EE4                     __ptext58:	
 11557 ;; *************** function _usb_send_data_stage *****************
 11558 ;; Defined at:
 11559 ;;		line 1682 in file "../../../usb/src/usb.c"
 11560 ;; Parameters:    Size  Location     Type
 11561 ;;  buffer          2   16[BANK0 ] PTR unsigned char 
 11562 ;;		 -> report_buf(3), custom_report_descriptor(28), configuration_1(41), process_hid_setup_request@res_1039(1), 
 11563 ;;		 -> process_hid_setup_request@res_1035(1), 
 11564 ;;  len             2   18[BANK0 ] unsigned int 
 11565 ;;  callback        2   20[BANK0 ] PTR FTN(unsigned char ,P
 11566 ;;		 -> get_report_callback(1), Absolute function(1), 
 11567 ;;  context         1   22[BANK0 ] PTR void 
 11568 ;;		 -> NULL(0), 
 11569 ;; Auto vars:     Size  Location     Type
 11570 ;;		None
 11571 ;; Return value:  Size  Location     Type
 11572 ;;                  1    wreg      void 
 11573 ;; Registers used:
 11574 ;;		wreg, fsr0l, fsr0h, fsr1l, fsr1h, status,2, status,0, pclath, cstack
 11575 ;; Tracked objects:
 11576 ;;		On entry : 1F/0
 11577 ;;		On exit  : 1C/0
 11578 ;;		Unchanged: 0/0
 11579 ;; Data sizes:     COMMON   BANK0   BANK1   BANK2   BANK3   BANK4   BANK5   BANK6   BANK7   BANK8   BANK9  BANK10  BANK1
      +1  BANK12
 11580 ;;      Params:         0       7       0       0       0       0       0       0       0       0       0       0       
      +0       0
 11581 ;;      Locals:         0       0       0       0       0       0       0       0       0       0       0       0       
      +0       0
 11582 ;;      Temps:          0       1       0       0       0       0       0       0       0       0       0       0       
      +0       0
 11583 ;;      Totals:         0       8       0       0       0       0       0       0       0       0       0       0       
      +0       0
 11584 ;;Total ram usage:        8 bytes
 11585 ;; Hardware stack levels used:    1
 11586 ;; Hardware stack levels required when called:    4
 11587 ;; This function calls:
 11588 ;;		_start_control_return
 11589 ;; This function is called by:
 11590 ;;		_process_hid_setup_request
 11591 ;; This function uses a non-reentrant model
 11592 ;;
 11593                           
 11594                           
 11595                           ;psect for function _usb_send_data_stage
 11596  1EE4                     _usb_send_data_stage:	
 11597                           
 11598                           ;usb.c: 1687: ep0_data_stage_callback = callback;
 11599                           
 11600                           ;incstack = 0
 11601                           ; Regs used in _usb_send_data_stage: [wreg-fsr1h+status,2+status,0+pclath+cstack]
 11602  1EE4  0845               	movf	usb_send_data_stage@callback+1,w
 11603  1EE5  0021               	movlb	1	; select bank1
 11604  1EE6  00BB               	movwf	(_ep0_data_stage_callback+1)^(0+128)
 11605  1EE7  0020               	movlb	0	; select bank0
 11606  1EE8  0844               	movf	usb_send_data_stage@callback,w
 11607  1EE9  0021               	movlb	1	; select bank1
 11608  1EEA  00BA               	movwf	_ep0_data_stage_callback^(0+128)
 11609                           
 11610                           ;usb.c: 1688: ep0_data_stage_context = context;
 11611  1EEB  0020               	movlb	0	; select bank0
 11612  1EEC  0846               	movf	usb_send_data_stage@context,w
 11613  1EED  00C7               	movwf	??_usb_send_data_stage
 11614  1EEE  0847               	movf	??_usb_send_data_stage,w
 11615  1EEF  0021               	movlb	1	; select bank1
 11616  1EF0  00BD               	movwf	_ep0_data_stage_context^(0+128)
 11617                           
 11618                           ;usb.c: 1689: start_control_return(buffer, len, len);
 11619  1EF1  0020               	movlb	0	; select bank0
 11620  1EF2  0841               	movf	usb_send_data_stage@buffer+1,w
 11621  1EF3  00B2               	movwf	start_control_return@ptr+1
 11622  1EF4  0840               	movf	usb_send_data_stage@buffer,w
 11623  1EF5  00B1               	movwf	start_control_return@ptr
 11624  1EF6  0843               	movf	usb_send_data_stage@len+1,w
 11625  1EF7  00B4               	movwf	start_control_return@len+1
 11626  1EF8  0842               	movf	usb_send_data_stage@len,w
 11627  1EF9  00B3               	movwf	start_control_return@len
 11628  1EFA  0843               	movf	usb_send_data_stage@len+1,w
 11629  1EFB  00B6               	movwf	start_control_return@bytes_asked_for+1
 11630  1EFC  0842               	movf	usb_send_data_stage@len,w
 11631  1EFD  00B5               	movwf	start_control_return@bytes_asked_for
 11632  1EFE  3194  2456         	fcall	_start_control_return
 11633  1F00  0008               	return
 11634  1F01                     __end_of_usb_send_data_stage:	
 11635                           
 11636                           	psect	text59
 11637  1456                     __ptext59:	
 11638 ;; *************** function _start_control_return *****************
 11639 ;; Defined at:
 11640 ;;		line 837 in file "../../../usb/src/usb.c"
 11641 ;; Parameters:    Size  Location     Type
 11642 ;;  ptr             2    1[BANK0 ] PTR const void 
 11643 ;;		 -> report_buf(3), product_string(24), vendor_string(24), str00(4), 
 11644 ;;		 -> custom_report_descriptor(28), configuration_1(41), process_hid_setup_request@res_1039(1), process_hid_setup_requ
      +est@res_1035(1), 
 11645 ;;		 -> handle_standard_control_request@ret_776(1), handle_standard_control_request@ret_773(2), handle_standard_control_
      +request@ret(2), this_device_descriptor(18), 
 11646 ;;		 -> g_configuration(1), 
 11647 ;;  len             2    3[BANK0 ] unsigned int 
 11648 ;;  bytes_asked_    2    5[BANK0 ] unsigned int 
 11649 ;; Auto vars:     Size  Location     Type
 11650 ;;  bytes_to_sen    1   15[BANK0 ] unsigned char 
 11651 ;; Return value:  Size  Location     Type
 11652 ;;                  1    wreg      void 
 11653 ;; Registers used:
 11654 ;;		wreg, fsr0l, fsr0h, fsr1l, fsr1h, status,2, status,0, pclath, cstack
 11655 ;; Tracked objects:
 11656 ;;		On entry : 1F/0
 11657 ;;		On exit  : 1C/0
 11658 ;;		Unchanged: 0/0
 11659 ;; Data sizes:     COMMON   BANK0   BANK1   BANK2   BANK3   BANK4   BANK5   BANK6   BANK7   BANK8   BANK9  BANK10  BANK1
      +1  BANK12
 11660 ;;      Params:         0       6       0       0       0       0       0       0       0       0       0       0       
      +0       0
 11661 ;;      Locals:         0       7       0       0       0       0       0       0       0       0       0       0       
      +0       0
 11662 ;;      Temps:          0       2       0       0       0       0       0       0       0       0       0       0       
      +0       0
 11663 ;;      Totals:         0      15       0       0       0       0       0       0       0       0       0       0       
      +0       0
 11664 ;;Total ram usage:       15 bytes
 11665 ;; Hardware stack levels used:    1
 11666 ;; Hardware stack levels required when called:    3
 11667 ;; This function calls:
 11668 ;;		_usb_send_in_buffer_0
 11669 ;; This function is called by:
 11670 ;;		_handle_standard_control_request
 11671 ;;		_usb_send_data_stage
 11672 ;; This function uses a non-reentrant model
 11673 ;;
 11674                           
 11675                           
 11676                           ;psect for function _start_control_return
 11677  1456                     _start_control_return:	
 11678                           
 11679                           ;usb.c: 839: uint8_t bytes_to_send = (((len)<(8))?(len):(8));
 11680                           
 11681                           ;incstack = 0
 11682                           ; Regs used in _start_control_return: [wreg-fsr1h+status,2+status,0+pclath+cstack]
 11683  1456  3000               	movlw	0
 11684  1457  0234               	subwf	start_control_return@len+1,w
 11685  1458  3008               	movlw	8
 11686  1459  1903               	skipnz
 11687  145A  0233               	subwf	start_control_return@len,w
 11688  145B  1C03               	skipc
 11689  145C  2C62               	goto	i1l3033
 11690  145D  3008               	movlw	8
 11691  145E  00B9               	movwf	_start_control_return$730
 11692  145F  3000               	movlw	0
 11693  1460  00BA               	movwf	_start_control_return$730+1
 11694  1461  2C66               	goto	i1l250
 11695  1462                     i1l3033:	
 11696  1462  0834               	movf	start_control_return@len+1,w
 11697  1463  00BA               	movwf	_start_control_return$730+1
 11698  1464  0833               	movf	start_control_return@len,w
 11699  1465  00B9               	movwf	_start_control_return$730
 11700  1466                     i1l250:	
 11701  1466  0839               	movf	_start_control_return$730,w
 11702  1467  00B7               	movwf	??_start_control_return
 11703  1468  0837               	movf	??_start_control_return,w
 11704  1469  00BF               	movwf	start_control_return@bytes_to_send
 11705                           
 11706                           ;usb.c: 840: bytes_to_send = (((bytes_to_send)<(bytes_asked_for))?(bytes_to_send):(bytes
      +                          _asked_for));
 11707  146A  083F               	movf	start_control_return@bytes_to_send,w
 11708  146B  00B7               	movwf	??_start_control_return
 11709  146C  01B8               	clrf	??_start_control_return+1
 11710  146D  0836               	movf	start_control_return@bytes_asked_for+1,w
 11711  146E  0238               	subwf	??_start_control_return+1,w
 11712  146F  1D03               	skipz
 11713  1470  2C73               	goto	u252_25
 11714  1471  0835               	movf	start_control_return@bytes_asked_for,w
 11715  1472  0237               	subwf	??_start_control_return,w
 11716  1473                     u252_25:	
 11717  1473  1C03               	skipc
 11718  1474  2C7A               	goto	i1l3037
 11719  1475  0836               	movf	start_control_return@bytes_asked_for+1,w
 11720  1476  00BC               	movwf	_start_control_return$731+1
 11721  1477  0835               	movf	start_control_return@bytes_asked_for,w
 11722  1478  00BB               	movwf	_start_control_return$731
 11723  1479  2C81               	goto	i1l254
 11724  147A                     i1l3037:	
 11725  147A  083F               	movf	start_control_return@bytes_to_send,w
 11726  147B  00B7               	movwf	??_start_control_return
 11727  147C  01B8               	clrf	??_start_control_return+1
 11728  147D  0837               	movf	??_start_control_return,w
 11729  147E  00BB               	movwf	_start_control_return$731
 11730  147F  0838               	movf	??_start_control_return+1,w
 11731  1480  00BC               	movwf	_start_control_return$731+1
 11732  1481                     i1l254:	
 11733  1481  083B               	movf	_start_control_return$731,w
 11734  1482  00B7               	movwf	??_start_control_return
 11735  1483  0837               	movf	??_start_control_return,w
 11736  1484  00BF               	movwf	start_control_return@bytes_to_send
 11737                           
 11738                           ;usb.c: 841: returning_short = len < bytes_asked_for;
 11739  1485  0836               	movf	start_control_return@bytes_asked_for+1,w
 11740  1486  0234               	subwf	start_control_return@len+1,w
 11741  1487  1D03               	skipz
 11742  1488  2C8B               	goto	u253_25
 11743  1489  0835               	movf	start_control_return@bytes_asked_for,w
 11744  148A  0233               	subwf	start_control_return@len,w
 11745  148B                     u253_25:	
 11746  148B  1803               	btfsc	3,0
 11747  148C  2C8F               	goto	u253_20
 11748  148D  3001               	movlw	1
 11749  148E  2C90               	goto	u254_20
 11750  148F                     u253_20:	
 11751  148F  3000               	movlw	0
 11752  1490                     u254_20:	
 11753  1490  00B7               	movwf	??_start_control_return
 11754  1491  0837               	movf	??_start_control_return,w
 11755  1492  0021               	movlb	1	; select bank1
 11756  1493  00BE               	movwf	_returning_short^(0+128)
 11757                           
 11758                           ;usb.c: 842: if (bytes_to_send > 0)
 11759  1494  0020               	movlb	0	; select bank0
 11760  1495  083F               	movf	start_control_return@bytes_to_send,w
 11761  1496  1903               	btfsc	3,2
 11762  1497  2CAB               	goto	i1l3043
 11763                           
 11764                           ;usb.c: 843: __builtin_memcpy(ep0_buf.in,ptr,bytes_to_send);;
 11765  1498  0023               	movlb	3	; select bank3
 11766  1499  086C               	movf	(_ep0_buf^(0+384)+2),w
 11767  149A  0086               	movwf	6
 11768  149B  086D               	movf	((_ep0_buf+1)^(0+384)+2),w
 11769  149C  0087               	movwf	7
 11770  149D  0020               	movlb	0	; select bank0
 11771  149E  0831               	movf	start_control_return@ptr,w
 11772  149F  0084               	movwf	4
 11773  14A0  0832               	movf	start_control_return@ptr+1,w
 11774  14A1  0085               	movwf	5
 11775  14A2  083F               	movf	start_control_return@bytes_to_send,w
 11776  14A3  00B7               	movwf	??_start_control_return
 11777  14A4  0837               	movf	??_start_control_return,w
 11778  14A5  1903               	skipnz
 11779  14A6  2CAB               	goto	i1l3043
 11780  14A7                     u256_2m0:	
 11781  14A7  0012               	moviw fsr0++
 11782  14A8  001E               	movwi fsr1++
 11783  14A9  0BB7               	decfsz	??_start_control_return,f
 11784  14AA  2CA7               	goto	u256_2m0
 11785  14AB                     i1l3043:	
 11786                           
 11787                           ;usb.c: 844: ep0_data_stage_in_buffer = ((char*)ptr) + bytes_to_send;
 11788  14AB  0020               	movlb	0	; select bank0
 11789  14AC  083F               	movf	start_control_return@bytes_to_send,w
 11790  14AD  00B7               	movwf	??_start_control_return
 11791  14AE  01B8               	clrf	??_start_control_return+1
 11792  14AF  0837               	movf	??_start_control_return,w
 11793  14B0  0731               	addwf	start_control_return@ptr,w
 11794  14B1  0021               	movlb	1	; select bank1
 11795  14B2  00B8               	movwf	_ep0_data_stage_in_buffer^(0+128)
 11796  14B3  0020               	movlb	0	; select bank0
 11797  14B4  0838               	movf	??_start_control_return+1,w
 11798  14B5  3D32               	addwfc	start_control_return@ptr+1,w
 11799  14B6  0021               	movlb	1	; select bank1
 11800  14B7  00B9               	movwf	(_ep0_data_stage_in_buffer+1)^(0+128)
 11801                           
 11802                           ;usb.c: 845: ep0_data_stage_buf_remaining = (((bytes_asked_for)<(len))?(bytes_asked_for)
      +                          :(len)) - bytes_to_send;
 11803  14B8  0020               	movlb	0	; select bank0
 11804  14B9  0834               	movf	start_control_return@len+1,w
 11805  14BA  0236               	subwf	start_control_return@bytes_asked_for+1,w
 11806  14BB  1D03               	skipz
 11807  14BC  2CBF               	goto	u257_25
 11808  14BD  0833               	movf	start_control_return@len,w
 11809  14BE  0235               	subwf	start_control_return@bytes_asked_for,w
 11810  14BF                     u257_25:	
 11811  14BF  1C03               	skipc
 11812  14C0  2CC5               	goto	i1l3049
 11813  14C1  0834               	movf	start_control_return@len+1,w
 11814  14C2  00BE               	movwf	_start_control_return$732+1
 11815  14C3  0833               	movf	start_control_return@len,w
 11816  14C4  2CC8               	goto	L10
 11817  14C5                     i1l3049:	
 11818  14C5  0836               	movf	start_control_return@bytes_asked_for+1,w
 11819  14C6  00BE               	movwf	_start_control_return$732+1
 11820  14C7  0835               	movf	start_control_return@bytes_asked_for,w
 11821  14C8                     L10:	
 11822  14C8  00BD               	movwf	_start_control_return$732
 11823  14C9  083F               	movf	start_control_return@bytes_to_send,w
 11824  14CA  00B7               	movwf	??_start_control_return
 11825  14CB  01B8               	clrf	??_start_control_return+1
 11826  14CC  0837               	movf	??_start_control_return,w
 11827  14CD  023D               	subwf	_start_control_return$732,w
 11828  14CE  0021               	movlb	1	; select bank1
 11829  14CF  00B6               	movwf	_ep0_data_stage_buf_remaining^(0+128)
 11830  14D0  0020               	movlb	0	; select bank0
 11831  14D1  0838               	movf	??_start_control_return+1,w
 11832  14D2  3B3E               	subwfb	_start_control_return$732+1,w
 11833  14D3  0021               	movlb	1	; select bank1
 11834  14D4  00B7               	movwf	(_ep0_data_stage_buf_remaining+1)^(0+128)
 11835                           
 11836                           ;usb.c: 848: ep0_buf.flags |= 0x8;
 11837  14D5  0023               	movlb	3	; select bank3
 11838  14D6  15EE               	bsf	(_ep0_buf^(0+384)+4),3
 11839                           
 11840                           ;usb.c: 849: usb_send_in_buffer_0(bytes_to_send);
 11841  14D7  0020               	movlb	0	; select bank0
 11842  14D8  083F               	movf	start_control_return@bytes_to_send,w
 11843  14D9  00B7               	movwf	??_start_control_return
 11844  14DA  01B8               	clrf	??_start_control_return+1
 11845  14DB  0837               	movf	??_start_control_return,w
 11846  14DC  00FB               	movwf	usb_send_in_buffer_0@len
 11847  14DD  0838               	movf	??_start_control_return+1,w
 11848  14DE  00FC               	movwf	usb_send_in_buffer_0@len+1
 11849  14DF  3190  2077         	fcall	_usb_send_in_buffer_0
 11850  14E1  0008               	return
 11851  14E2                     __end_of_start_control_return:	
 11852                           
 11853                           	psect	text60
 11854  1DCB                     __ptext60:	
 11855 ;; *************** function _usb_application_get_hid_report_descriptor *****************
 11856 ;; Defined at:
 11857 ;;		line 280 in file "../usb_descriptors.c"
 11858 ;; Parameters:    Size  Location     Type
 11859 ;;  interface       1    wreg     unsigned char 
 11860 ;;  ptr             1    0[COMMON] PTR PTR const void 
 11861 ;;		 -> process_hid_setup_request@desc(2), 
 11862 ;; Auto vars:     Size  Location     Type
 11863 ;;  interface       1    0[COMMON] unsigned char 
 11864 ;; Return value:  Size  Location     Type
 11865 ;;                  2    0[COMMON] int 
 11866 ;; Registers used:
 11867 ;;		wreg, fsr1l, fsr1h, status,2, status,0
 11868 ;; Tracked objects:
 11869 ;;		On entry : 1F/0
 11870 ;;		On exit  : 1F/0
 11871 ;;		Unchanged: 1F/0
 11872 ;; Data sizes:     COMMON   BANK0   BANK1   BANK2   BANK3   BANK4   BANK5   BANK6   BANK7   BANK8   BANK9  BANK10  BANK1
      +1  BANK12
 11873 ;;      Params:         3       0       0       0       0       0       0       0       0       0       0       0       
      +0       0
 11874 ;;      Locals:         0       0       0       0       0       0       0       0       0       0       0       0       
      +0       0
 11875 ;;      Temps:          0       0       0       0       0       0       0       0       0       0       0       0       
      +0       0
 11876 ;;      Totals:         3       0       0       0       0       0       0       0       0       0       0       0       
      +0       0
 11877 ;;Total ram usage:        3 bytes
 11878 ;; Hardware stack levels used:    1
 11879 ;; This function calls:
 11880 ;;		Nothing
 11881 ;; This function is called by:
 11882 ;;		_process_hid_setup_request
 11883 ;; This function uses a non-reentrant model
 11884 ;;
 11885                           
 11886                           
 11887                           ;psect for function _usb_application_get_hid_report_descriptor
 11888  1DCB                     _usb_application_get_hid_report_descriptor:	
 11889                           
 11890                           ;usb_descriptors.c: 282: *ptr = custom_report_descriptor;
 11891                           
 11892                           ;incstack = 0
 11893                           ; Regs used in _usb_application_get_hid_report_descriptor: [wreg+fsr1l+fsr1h+status,2+st
      +                          atus,0]
 11894  1DCB  0870               	movf	usb_application_get_hid_report_descriptor@ptr,w
 11895  1DCC  0086               	movwf	6
 11896  1DCD  0187               	clrf	7
 11897  1DCE  3029               	movlw	low (_custom_report_descriptor| (0+32768))
 11898  1DCF  3FC0               	movwi [0]fsr1
 11899  1DD0  3098               	movlw	high (_custom_report_descriptor| (0+32768))
 11900  1DD1  3FC1               	movwi [1]fsr1
 11901                           
 11902                           ;usb_descriptors.c: 283: return sizeof(custom_report_descriptor);
 11903  1DD2  301C               	movlw	28
 11904  1DD3  00F0               	movwf	?_usb_application_get_hid_report_descriptor
 11905  1DD4  3000               	movlw	0
 11906  1DD5  00F1               	movwf	?_usb_application_get_hid_report_descriptor+1
 11907  1DD6  0008               	return
 11908  1DD7                     __end_of_usb_application_get_hid_report_descriptor:	
 11909                           
 11910                           	psect	text61
 11911  1DFE                     __ptext61:	
 11912 ;; *************** function _usb_application_get_hid_descriptor *****************
 11913 ;; Defined at:
 11914 ;;		line 270 in file "../usb_descriptors.c"
 11915 ;; Parameters:    Size  Location     Type
 11916 ;;  interface       1    wreg     unsigned char 
 11917 ;;  ptr             1    0[COMMON] PTR PTR const void 
 11918 ;;		 -> process_hid_setup_request@desc(2), 
 11919 ;; Auto vars:     Size  Location     Type
 11920 ;;  interface       1    0[COMMON] unsigned char 
 11921 ;;  p               2    3[COMMON] PTR const void 
 11922 ;;		 -> configuration_1.hid(9), configuration_1(41), 
 11923 ;; Return value:  Size  Location     Type
 11924 ;;                  2    0[COMMON] int 
 11925 ;; Registers used:
 11926 ;;		wreg, fsr1l, fsr1h
 11927 ;; Tracked objects:
 11928 ;;		On entry : 1F/0
 11929 ;;		On exit  : 1F/0
 11930 ;;		Unchanged: 1F/0
 11931 ;; Data sizes:     COMMON   BANK0   BANK1   BANK2   BANK3   BANK4   BANK5   BANK6   BANK7   BANK8   BANK9  BANK10  BANK1
      +1  BANK12
 11932 ;;      Params:         3       0       0       0       0       0       0       0       0       0       0       0       
      +0       0
 11933 ;;      Locals:         2       0       0       0       0       0       0       0       0       0       0       0       
      +0       0
 11934 ;;      Temps:          0       0       0       0       0       0       0       0       0       0       0       0       
      +0       0
 11935 ;;      Totals:         5       0       0       0       0       0       0       0       0       0       0       0       
      +0       0
 11936 ;;Total ram usage:        5 bytes
 11937 ;; Hardware stack levels used:    1
 11938 ;; This function calls:
 11939 ;;		Nothing
 11940 ;; This function is called by:
 11941 ;;		_process_hid_setup_request
 11942 ;; This function uses a non-reentrant model
 11943 ;;
 11944                           
 11945                           
 11946                           ;psect for function _usb_application_get_hid_descriptor
 11947  1DFE                     _usb_application_get_hid_descriptor:	
 11948                           
 11949                           ;usb_descriptors.c: 274: const void *p = &configuration_1.hid;
 11950                           
 11951                           ;incstack = 0
 11952                           ; Regs used in _usb_application_get_hid_descriptor: [wregfsr1]
 11953  1DFE  3012               	movlw	low ((_configuration_1| (0+32768)+18))
 11954  1DFF  00F3               	movwf	usb_application_get_hid_descriptor@p
 11955  1E00  3098               	movlw	high ((_configuration_1| (0+32768)+18))
 11956  1E01  00F4               	movwf	usb_application_get_hid_descriptor@p+1
 11957                           
 11958                           ;usb_descriptors.c: 275: *ptr = p;
 11959  1E02  0870               	movf	usb_application_get_hid_descriptor@ptr,w
 11960  1E03  0086               	movwf	6
 11961  1E04  0187               	clrf	7
 11962  1E05  0873               	movf	usb_application_get_hid_descriptor@p,w
 11963  1E06  3FC0               	movwi [0]fsr1
 11964  1E07  0874               	movf	usb_application_get_hid_descriptor@p+1,w
 11965  1E08  3FC1               	movwi [1]fsr1
 11966                           
 11967                           ;usb_descriptors.c: 276: return sizeof(configuration_1.hid);
 11968  1E09  3009               	movlw	9
 11969  1E0A  00F0               	movwf	?_usb_application_get_hid_descriptor
 11970  1E0B  3000               	movlw	0
 11971  1E0C  00F1               	movwf	?_usb_application_get_hid_descriptor+1
 11972  1E0D  0008               	return
 11973  1E0E                     __end_of_usb_application_get_hid_descriptor:	
 11974                           
 11975                           	psect	text62
 11976  1D55                     __ptext62:	
 11977 ;; *************** function _app_set_report_callback *****************
 11978 ;; Defined at:
 11979 ;;		line 272 in file "../main.c"
 11980 ;; Parameters:    Size  Location     Type
 11981 ;;  interface       1    wreg     unsigned char 
 11982 ;;  report_type     1    0[COMMON] unsigned char 
 11983 ;;  report_id       1    1[COMMON] unsigned char 
 11984 ;; Auto vars:     Size  Location     Type
 11985 ;;  interface       1    0[COMMON] unsigned char 
 11986 ;; Return value:  Size  Location     Type
 11987 ;;                  1    wreg      char 
 11988 ;; Registers used:
 11989 ;;		wreg
 11990 ;; Tracked objects:
 11991 ;;		On entry : 1F/0
 11992 ;;		On exit  : 1F/0
 11993 ;;		Unchanged: 1F/0
 11994 ;; Data sizes:     COMMON   BANK0   BANK1   BANK2   BANK3   BANK4   BANK5   BANK6   BANK7   BANK8   BANK9  BANK10  BANK1
      +1  BANK12
 11995 ;;      Params:         2       0       0       0       0       0       0       0       0       0       0       0       
      +0       0
 11996 ;;      Locals:         0       0       0       0       0       0       0       0       0       0       0       0       
      +0       0
 11997 ;;      Temps:          0       0       0       0       0       0       0       0       0       0       0       0       
      +0       0
 11998 ;;      Totals:         2       0       0       0       0       0       0       0       0       0       0       0       
      +0       0
 11999 ;;Total ram usage:        2 bytes
 12000 ;; Hardware stack levels used:    1
 12001 ;; This function calls:
 12002 ;;		Nothing
 12003 ;; This function is called by:
 12004 ;;		_process_hid_setup_request
 12005 ;; This function uses a non-reentrant model
 12006 ;;
 12007                           
 12008                           
 12009                           ;psect for function _app_set_report_callback
 12010  1D55                     _app_set_report_callback:	
 12011                           
 12012                           ;main.c: 278: return -1;
 12013                           
 12014                           ;incstack = 0
 12015                           ; Regs used in _app_set_report_callback: [wreg]
 12016  1D55  30FF               	movlw	255
 12017  1D56  0008               	return
 12018  1D57                     __end_of_app_set_report_callback:	
 12019                           
 12020                           	psect	text63
 12021  1D53                     __ptext63:	
 12022 ;; *************** function _app_set_protocol_callback *****************
 12023 ;; Defined at:
 12024 ;;		line 294 in file "../main.c"
 12025 ;; Parameters:    Size  Location     Type
 12026 ;;  interface       1    wreg     unsigned char 
 12027 ;;  report_id       1    0[COMMON] unsigned char 
 12028 ;; Auto vars:     Size  Location     Type
 12029 ;;  interface       1    0[COMMON] unsigned char 
 12030 ;; Return value:  Size  Location     Type
 12031 ;;                  1    wreg      char 
 12032 ;; Registers used:
 12033 ;;		wreg
 12034 ;; Tracked objects:
 12035 ;;		On entry : 1F/0
 12036 ;;		On exit  : 1F/0
 12037 ;;		Unchanged: 1F/0
 12038 ;; Data sizes:     COMMON   BANK0   BANK1   BANK2   BANK3   BANK4   BANK5   BANK6   BANK7   BANK8   BANK9  BANK10  BANK1
      +1  BANK12
 12039 ;;      Params:         1       0       0       0       0       0       0       0       0       0       0       0       
      +0       0
 12040 ;;      Locals:         0       0       0       0       0       0       0       0       0       0       0       0       
      +0       0
 12041 ;;      Temps:          0       0       0       0       0       0       0       0       0       0       0       0       
      +0       0
 12042 ;;      Totals:         1       0       0       0       0       0       0       0       0       0       0       0       
      +0       0
 12043 ;;Total ram usage:        1 bytes
 12044 ;; Hardware stack levels used:    1
 12045 ;; This function calls:
 12046 ;;		Nothing
 12047 ;; This function is called by:
 12048 ;;		_process_hid_setup_request
 12049 ;; This function uses a non-reentrant model
 12050 ;;
 12051                           
 12052                           
 12053                           ;psect for function _app_set_protocol_callback
 12054  1D53                     _app_set_protocol_callback:	
 12055                           
 12056                           ;main.c: 295: return -1;
 12057                           
 12058                           ;incstack = 0
 12059                           ; Regs used in _app_set_protocol_callback: [wreg]
 12060  1D53  30FF               	movlw	255
 12061  1D54  0008               	return
 12062  1D55                     __end_of_app_set_protocol_callback:	
 12063                           
 12064                           	psect	text64
 12065  1D51                     __ptext64:	
 12066 ;; *************** function _app_set_idle_callback *****************
 12067 ;; Defined at:
 12068 ;;		line 285 in file "../main.c"
 12069 ;; Parameters:    Size  Location     Type
 12070 ;;  interface       1    wreg     unsigned char 
 12071 ;;  report_id       1    0[COMMON] unsigned char 
 12072 ;;  idle_rate       1    1[COMMON] unsigned char 
 12073 ;; Auto vars:     Size  Location     Type
 12074 ;;  interface       1    0[COMMON] unsigned char 
 12075 ;; Return value:  Size  Location     Type
 12076 ;;                  1    wreg      char 
 12077 ;; Registers used:
 12078 ;;		wreg
 12079 ;; Tracked objects:
 12080 ;;		On entry : 1F/0
 12081 ;;		On exit  : 1F/0
 12082 ;;		Unchanged: 1F/0
 12083 ;; Data sizes:     COMMON   BANK0   BANK1   BANK2   BANK3   BANK4   BANK5   BANK6   BANK7   BANK8   BANK9  BANK10  BANK1
      +1  BANK12
 12084 ;;      Params:         2       0       0       0       0       0       0       0       0       0       0       0       
      +0       0
 12085 ;;      Locals:         0       0       0       0       0       0       0       0       0       0       0       0       
      +0       0
 12086 ;;      Temps:          0       0       0       0       0       0       0       0       0       0       0       0       
      +0       0
 12087 ;;      Totals:         2       0       0       0       0       0       0       0       0       0       0       0       
      +0       0
 12088 ;;Total ram usage:        2 bytes
 12089 ;; Hardware stack levels used:    1
 12090 ;; This function calls:
 12091 ;;		Nothing
 12092 ;; This function is called by:
 12093 ;;		_process_hid_setup_request
 12094 ;; This function uses a non-reentrant model
 12095 ;;
 12096                           
 12097                           
 12098                           ;psect for function _app_set_idle_callback
 12099  1D51                     _app_set_idle_callback:	
 12100                           
 12101                           ;main.c: 287: return -1;
 12102                           
 12103                           ;incstack = 0
 12104                           ; Regs used in _app_set_idle_callback: [wreg]
 12105  1D51  30FF               	movlw	255
 12106  1D52  0008               	return
 12107  1D53                     __end_of_app_set_idle_callback:	
 12108                           
 12109                           	psect	text65
 12110  1E32                     __ptext65:	
 12111 ;; *************** function _app_get_report_callback *****************
 12112 ;; Defined at:
 12113 ;;		line 254 in file "../main.c"
 12114 ;; Parameters:    Size  Location     Type
 12115 ;;  interface       1    wreg     unsigned char 
 12116 ;;  report_type     1    0[COMMON] unsigned char 
 12117 ;;  report_id       1    1[COMMON] unsigned char 
 12118 ;;  report          1    2[COMMON] PTR PTR const void 
 12119 ;;		 -> process_hid_setup_request@desc_1019(1), 
 12120 ;;  callback        1    3[COMMON] PTR PTR FTN(unsigned cha
 12121 ;;		 -> process_hid_setup_request@callback(2), 
 12122 ;;  context         1    4[COMMON] PTR PTR void 
 12123 ;;		 -> process_hid_setup_request@context(1), 
 12124 ;; Auto vars:     Size  Location     Type
 12125 ;;  interface       1    0[COMMON] unsigned char 
 12126 ;; Return value:  Size  Location     Type
 12127 ;;                  2    0[COMMON] int 
 12128 ;; Registers used:
 12129 ;;		wreg, fsr1l, fsr1h, status,2, status,0
 12130 ;; Tracked objects:
 12131 ;;		On entry : 1F/0
 12132 ;;		On exit  : 1F/0
 12133 ;;		Unchanged: 1F/0
 12134 ;; Data sizes:     COMMON   BANK0   BANK1   BANK2   BANK3   BANK4   BANK5   BANK6   BANK7   BANK8   BANK9  BANK10  BANK1
      +1  BANK12
 12135 ;;      Params:         5       0       0       0       0       0       0       0       0       0       0       0       
      +0       0
 12136 ;;      Locals:         0       0       0       0       0       0       0       0       0       0       0       0       
      +0       0
 12137 ;;      Temps:          1       0       0       0       0       0       0       0       0       0       0       0       
      +0       0
 12138 ;;      Totals:         6       0       0       0       0       0       0       0       0       0       0       0       
      +0       0
 12139 ;;Total ram usage:        6 bytes
 12140 ;; Hardware stack levels used:    1
 12141 ;; This function calls:
 12142 ;;		Nothing
 12143 ;; This function is called by:
 12144 ;;		_process_hid_setup_request
 12145 ;; This function uses a non-reentrant model
 12146 ;;
 12147                           
 12148                           
 12149                           ;psect for function _app_get_report_callback
 12150  1E32                     _app_get_report_callback:	
 12151                           
 12152                           ;main.c: 266: *report = report_buf;
 12153                           
 12154                           ;incstack = 0
 12155                           ; Regs used in _app_get_report_callback: [wreg+fsr1l+fsr1h+status,2+status,0]
 12156  1E32  3066               	movlw	(low (_report_buf| (0+512)))& (0+255)
 12157  1E33  00F5               	movwf	??_app_get_report_callback
 12158  1E34  0872               	movf	app_get_report_callback@report,w
 12159  1E35  0086               	movwf	6
 12160  1E36  0187               	clrf	7
 12161  1E37  0875               	movf	??_app_get_report_callback,w
 12162  1E38  0081               	movwf	1
 12163                           
 12164                           ;main.c: 267: *callback = get_report_callback;
 12165  1E39  0873               	movf	app_get_report_callback@callback,w
 12166  1E3A  0086               	movwf	6
 12167  1E3B  0187               	clrf	7
 12168  1E3C  304B               	movlw	low _get_report_callback
 12169  1E3D  3FC0               	movwi [0]fsr1
 12170  1E3E  301D               	movlw	high _get_report_callback
 12171  1E3F  3FC1               	movwi [1]fsr1
 12172                           
 12173                           ;main.c: 268: *context = (0);
 12174  1E40  0874               	movf	app_get_report_callback@context,w
 12175  1E41  0086               	movwf	6
 12176  1E42  0187               	clrf	7
 12177  1E43  0181               	clrf	1
 12178                           
 12179                           ;main.c: 269: return sizeof (report_buf);
 12180  1E44  3003               	movlw	3
 12181  1E45  00F0               	movwf	?_app_get_report_callback
 12182  1E46  3000               	movlw	0
 12183  1E47  00F1               	movwf	?_app_get_report_callback+1
 12184  1E48  0008               	return
 12185  1E49                     __end_of_app_get_report_callback:	
 12186                           
 12187                           	psect	text66
 12188  1D4F                     __ptext66:	
 12189 ;; *************** function _app_get_protocol_callback *****************
 12190 ;; Defined at:
 12191 ;;		line 290 in file "../main.c"
 12192 ;; Parameters:    Size  Location     Type
 12193 ;;  interface       1    wreg     unsigned char 
 12194 ;; Auto vars:     Size  Location     Type
 12195 ;;  interface       1    0[COMMON] unsigned char 
 12196 ;; Return value:  Size  Location     Type
 12197 ;;                  1    wreg      char 
 12198 ;; Registers used:
 12199 ;;		wreg
 12200 ;; Tracked objects:
 12201 ;;		On entry : 1F/0
 12202 ;;		On exit  : 1F/0
 12203 ;;		Unchanged: 1F/0
 12204 ;; Data sizes:     COMMON   BANK0   BANK1   BANK2   BANK3   BANK4   BANK5   BANK6   BANK7   BANK8   BANK9  BANK10  BANK1
      +1  BANK12
 12205 ;;      Params:         0       0       0       0       0       0       0       0       0       0       0       0       
      +0       0
 12206 ;;      Locals:         0       0       0       0       0       0       0       0       0       0       0       0       
      +0       0
 12207 ;;      Temps:          0       0       0       0       0       0       0       0       0       0       0       0       
      +0       0
 12208 ;;      Totals:         0       0       0       0       0       0       0       0       0       0       0       0       
      +0       0
 12209 ;;Total ram usage:        0 bytes
 12210 ;; Hardware stack levels used:    1
 12211 ;; This function calls:
 12212 ;;		Nothing
 12213 ;; This function is called by:
 12214 ;;		_process_hid_setup_request
 12215 ;; This function uses a non-reentrant model
 12216 ;;
 12217                           
 12218                           
 12219                           ;psect for function _app_get_protocol_callback
 12220  1D4F                     _app_get_protocol_callback:	
 12221                           
 12222                           ;main.c: 291: return 1;
 12223                           
 12224                           ;incstack = 0
 12225                           ; Regs used in _app_get_protocol_callback: [wreg]
 12226  1D4F  3001               	movlw	1
 12227  1D50  0008               	return
 12228  1D51                     __end_of_app_get_protocol_callback:	
 12229                           
 12230                           	psect	text67
 12231  1D4D                     __ptext67:	
 12232 ;; *************** function _app_get_idle_callback *****************
 12233 ;; Defined at:
 12234 ;;		line 281 in file "../main.c"
 12235 ;; Parameters:    Size  Location     Type
 12236 ;;  interface       1    wreg     unsigned char 
 12237 ;;  report_id       1    0[COMMON] unsigned char 
 12238 ;; Auto vars:     Size  Location     Type
 12239 ;;  interface       1    0[COMMON] unsigned char 
 12240 ;; Return value:  Size  Location     Type
 12241 ;;                  1    wreg      unsigned char 
 12242 ;; Registers used:
 12243 ;;		wreg
 12244 ;; Tracked objects:
 12245 ;;		On entry : 1F/0
 12246 ;;		On exit  : 1F/0
 12247 ;;		Unchanged: 1F/0
 12248 ;; Data sizes:     COMMON   BANK0   BANK1   BANK2   BANK3   BANK4   BANK5   BANK6   BANK7   BANK8   BANK9  BANK10  BANK1
      +1  BANK12
 12249 ;;      Params:         1       0       0       0       0       0       0       0       0       0       0       0       
      +0       0
 12250 ;;      Locals:         0       0       0       0       0       0       0       0       0       0       0       0       
      +0       0
 12251 ;;      Temps:          0       0       0       0       0       0       0       0       0       0       0       0       
      +0       0
 12252 ;;      Totals:         1       0       0       0       0       0       0       0       0       0       0       0       
      +0       0
 12253 ;;Total ram usage:        1 bytes
 12254 ;; Hardware stack levels used:    1
 12255 ;; This function calls:
 12256 ;;		Nothing
 12257 ;; This function is called by:
 12258 ;;		_process_hid_setup_request
 12259 ;; This function uses a non-reentrant model
 12260 ;;
 12261                           
 12262                           
 12263                           ;psect for function _app_get_idle_callback
 12264  1D4D                     _app_get_idle_callback:	
 12265                           
 12266                           ;main.c: 282: return 0;
 12267                           
 12268                           ;incstack = 0
 12269                           ; Regs used in _app_get_idle_callback: [wreg]
 12270  1D4D  3000               	movlw	0
 12271  1D4E  0008               	return
 12272  1D4F                     __end_of_app_get_idle_callback:	
 12273                           
 12274                           	psect	text68
 12275  1570                     __ptext68:	
 12276 ;; *************** function _handle_ep0_out *****************
 12277 ;; Defined at:
 12278 ;;		line 1263 in file "../../../usb/src/usb.c"
 12279 ;; Parameters:    Size  Location     Type
 12280 ;;		None
 12281 ;; Auto vars:     Size  Location     Type
 12282 ;;  res             1    6[COMMON] char 
 12283 ;;  bytes_to_cop    1    8[COMMON] unsigned char 
 12284 ;;  pkt_len         1    7[COMMON] unsigned char 
 12285 ;; Return value:  Size  Location     Type
 12286 ;;                  1    wreg      void 
 12287 ;; Registers used:
 12288 ;;		wreg, fsr0l, fsr0h, fsr1l, fsr1h, status,2, status,0, pclath, cstack
 12289 ;; Tracked objects:
 12290 ;;		On entry : 1F/1
 12291 ;;		On exit  : 1E/0
 12292 ;;		Unchanged: 0/0
 12293 ;; Data sizes:     COMMON   BANK0   BANK1   BANK2   BANK3   BANK4   BANK5   BANK6   BANK7   BANK8   BANK9  BANK10  BANK1
      +1  BANK12
 12294 ;;      Params:         0       0       0       0       0       0       0       0       0       0       0       0       
      +0       0
 12295 ;;      Locals:         5       0       0       0       0       0       0       0       0       0       0       0       
      +0       0
 12296 ;;      Temps:          2       0       0       0       0       0       0       0       0       0       0       0       
      +0       0
 12297 ;;      Totals:         7       0       0       0       0       0       0       0       0       0       0       0       
      +0       0
 12298 ;;Total ram usage:        7 bytes
 12299 ;; Hardware stack levels used:    1
 12300 ;; Hardware stack levels required when called:    1
 12301 ;; This function calls:
 12302 ;;		Absolute function
 12303 ;;		_get_report_callback
 12304 ;;		_send_zero_length_packet_ep0
 12305 ;;		_stall_ep0
 12306 ;;		i1_reset_ep0_data_stage
 12307 ;; This function is called by:
 12308 ;;		_usb_service
 12309 ;; This function uses a non-reentrant model
 12310 ;;
 12311                           
 12312                           
 12313                           ;psect for function _handle_ep0_out
 12314  1570                     _handle_ep0_out:	
 12315                           
 12316                           ;usb.c: 1268: uint8_t pkt_len = (bds[0].BDnCNT);
 12317                           
 12318                           ;incstack = 0
 12319                           ; Regs used in _handle_ep0_out: [wreg-fsr1h+status,2+status,0+pclath+cstack]
 12320  1570  0020               	movlb	0	; select bank0
 12321  1571  0821               	movf	33,w
 12322  1572  00F2               	movwf	??_handle_ep0_out
 12323  1573  0872               	movf	??_handle_ep0_out,w
 12324  1574  00F7               	movwf	handle_ep0_out@pkt_len
 12325                           
 12326                           ;usb.c: 1270: if (ep0_data_stage_direc == 1 ) {
 12327  1575  0021               	movlb	1	; select bank1
 12328  1576  033C               	decf	_ep0_data_stage_direc^(0+128),w
 12329  1577  1D03               	btfss	3,2
 12330  1578  2D8B               	goto	i1l3805
 12331                           
 12332                           ;usb.c: 1276: if (ep0_data_stage_callback)
 12333  1579  083A               	movf	_ep0_data_stage_callback^(0+128),w
 12334  157A  043B               	iorwf	(_ep0_data_stage_callback+1)^(0+128),w
 12335  157B  1903               	btfsc	3,2
 12336  157C  2D88               	goto	i1l3803
 12337                           
 12338                           ;usb.c: 1277: ep0_data_stage_callback(1 , ep0_data_stage_context);
 12339  157D  01F0               	clrf	get_report_callback@transfer_ok
 12340  157E  0AF0               	incf	get_report_callback@transfer_ok,f
 12341  157F  083D               	movf	_ep0_data_stage_context^(0+128),w
 12342  1580  00F2               	movwf	??_handle_ep0_out
 12343  1581  0872               	movf	??_handle_ep0_out,w
 12344  1582  00F1               	movwf	get_report_callback@context
 12345  1583  083B               	movf	(_ep0_data_stage_callback+1)^(0+128),w
 12346  1584  008A               	movwf	10
 12347  1585  083A               	movf	_ep0_data_stage_callback^(0+128),w
 12348  1586  000A               	callw
 12349  1587  3195               	pagesel	$
 12350  1588                     i1l3803:	
 12351                           
 12352                           ;usb.c: 1278: reset_ep0_data_stage();
 12353  1588  319D  25B5         	fcall	i1_reset_ep0_data_stage
 12354                           
 12355                           ;usb.c: 1279: }
 12356  158A  0008               	return
 12357  158B                     i1l3805:	
 12358                           
 12359                           ;usb.c: 1280: else {;usb.c: 1288: if (ep0_data_stage_out_buffer) {
 12360  158B  0020               	movlb	0	; select bank0
 12361  158C  086E               	movf	_ep0_data_stage_out_buffer,w
 12362  158D  1903               	btfsc	3,2
 12363  158E  0008               	return
 12364                           
 12365                           ;usb.c: 1289: uint8_t bytes_to_copy = (((pkt_len)<(ep0_data_stage_buf_remaining))?(pkt_l
      +                          en):(ep0_data_stage_buf_remaining));
 12366  158F  0877               	movf	handle_ep0_out@pkt_len,w
 12367  1590  00F2               	movwf	??_handle_ep0_out
 12368  1591  01F3               	clrf	??_handle_ep0_out+1
 12369  1592  0021               	movlb	1	; select bank1
 12370  1593  0837               	movf	(_ep0_data_stage_buf_remaining+1)^(0+128),w
 12371  1594  0273               	subwf	??_handle_ep0_out+1,w
 12372  1595  1D03               	skipz
 12373  1596  2D99               	goto	u380_25
 12374  1597  0836               	movf	_ep0_data_stage_buf_remaining^(0+128),w
 12375  1598  0272               	subwf	??_handle_ep0_out,w
 12376  1599                     u380_25:	
 12377  1599  1C03               	skipc
 12378  159A  2DA0               	goto	i1l3811
 12379  159B  0837               	movf	(_ep0_data_stage_buf_remaining+1)^(0+128),w
 12380  159C  00F5               	movwf	_handle_ep0_out$808+1
 12381  159D  0836               	movf	_ep0_data_stage_buf_remaining^(0+128),w
 12382  159E  00F4               	movwf	_handle_ep0_out$808
 12383  159F  2DA7               	goto	i1l348
 12384  15A0                     i1l3811:	
 12385  15A0  0877               	movf	handle_ep0_out@pkt_len,w
 12386  15A1  00F2               	movwf	??_handle_ep0_out
 12387  15A2  01F3               	clrf	??_handle_ep0_out+1
 12388  15A3  0872               	movf	??_handle_ep0_out,w
 12389  15A4  00F4               	movwf	_handle_ep0_out$808
 12390  15A5  0873               	movf	??_handle_ep0_out+1,w
 12391  15A6  00F5               	movwf	_handle_ep0_out$808+1
 12392  15A7                     i1l348:	
 12393  15A7  0874               	movf	_handle_ep0_out$808,w
 12394  15A8  00F2               	movwf	??_handle_ep0_out
 12395  15A9  0872               	movf	??_handle_ep0_out,w
 12396  15AA  00F8               	movwf	handle_ep0_out@bytes_to_copy
 12397                           
 12398                           ;usb.c: 1296: __builtin_memcpy(ep0_data_stage_out_buffer,ep0_buf.out,bytes_to_copy);
 12399  15AB  0020               	movlb	0	; select bank0
 12400  15AC  086E               	movf	_ep0_data_stage_out_buffer,w
 12401  15AD  0086               	movwf	6
 12402  15AE  0187               	clrf	7
 12403  15AF  0023               	movlb	3	; select bank3
 12404  15B0  086A               	movf	_ep0_buf^(0+384),w
 12405  15B1  0084               	movwf	4
 12406  15B2  086B               	movf	(_ep0_buf+1)^(0+384),w
 12407  15B3  0085               	movwf	5
 12408  15B4  0878               	movf	handle_ep0_out@bytes_to_copy,w
 12409  15B5  00F2               	movwf	??_handle_ep0_out
 12410  15B6  0872               	movf	??_handle_ep0_out,w
 12411  15B7  1903               	skipnz
 12412  15B8  2DBD               	goto	i1l3815
 12413  15B9                     u381_2m0:	
 12414  15B9  0012               	moviw fsr0++
 12415  15BA  001E               	movwi fsr1++
 12416  15BB  0BF2               	decfsz	??_handle_ep0_out,f
 12417  15BC  2DB9               	goto	u381_2m0
 12418  15BD                     i1l3815:	
 12419                           
 12420                           ;usb.c: 1298: ep0_data_stage_out_buffer += bytes_to_copy;
 12421  15BD  0878               	movf	handle_ep0_out@bytes_to_copy,w
 12422  15BE  00F2               	movwf	??_handle_ep0_out
 12423  15BF  0872               	movf	??_handle_ep0_out,w
 12424  15C0  0020               	movlb	0	; select bank0
 12425  15C1  07EE               	addwf	_ep0_data_stage_out_buffer,f
 12426                           
 12427                           ;usb.c: 1299: ep0_data_stage_buf_remaining -= bytes_to_copy;
 12428  15C2  0878               	movf	handle_ep0_out@bytes_to_copy,w
 12429  15C3  00F2               	movwf	??_handle_ep0_out
 12430  15C4  01F3               	clrf	??_handle_ep0_out+1
 12431  15C5  0872               	movf	??_handle_ep0_out,w
 12432  15C6  0021               	movlb	1	; select bank1
 12433  15C7  02B6               	subwf	_ep0_data_stage_buf_remaining^(0+128),f
 12434  15C8  0873               	movf	??_handle_ep0_out+1,w
 12435  15C9  3BB7               	subwfb	(_ep0_data_stage_buf_remaining+1)^(0+128),f
 12436                           
 12437                           ;usb.c: 1304: if (pkt_len < 8 || ep0_data_stage_buf_remaining == 0) {
 12438  15CA  3008               	movlw	8
 12439  15CB  0277               	subwf	handle_ep0_out@pkt_len,w
 12440  15CC  1C03               	skipc
 12441  15CD  2DD2               	goto	i1l3823
 12442  15CE  0836               	movf	_ep0_data_stage_buf_remaining^(0+128),w
 12443  15CF  0437               	iorwf	(_ep0_data_stage_buf_remaining+1)^(0+128),w
 12444  15D0  1D03               	btfss	3,2
 12445  15D1  0008               	return
 12446  15D2                     i1l3823:	
 12447                           
 12448                           ;usb.c: 1309: if (bytes_to_copy < pkt_len) {
 12449  15D2  0877               	movf	handle_ep0_out@pkt_len,w
 12450  15D3  0278               	subwf	handle_ep0_out@bytes_to_copy,w
 12451  15D4  1803               	skipnc
 12452  15D5  2DE9               	goto	i1l3833
 12453                           
 12454                           ;usb.c: 1311: stall_ep0();
 12455  15D6  319D  25AB  3195   	fcall	_stall_ep0
 12456                           
 12457                           ;usb.c: 1312: if (ep0_data_stage_callback)
 12458  15D9  0021               	movlb	1	; select bank1
 12459  15DA  083A               	movf	_ep0_data_stage_callback^(0+128),w
 12460  15DB  043B               	iorwf	(_ep0_data_stage_callback+1)^(0+128),w
 12461  15DC  1903               	btfsc	3,2
 12462  15DD  2D88               	goto	i1l3803
 12463                           
 12464                           ;usb.c: 1313: ep0_data_stage_callback(0 , ep0_data_stage_context);
 12465  15DE  01F0               	clrf	get_report_callback@transfer_ok
 12466  15DF  083D               	movf	_ep0_data_stage_context^(0+128),w
 12467  15E0  00F2               	movwf	??_handle_ep0_out
 12468  15E1  0872               	movf	??_handle_ep0_out,w
 12469  15E2  00F1               	movwf	get_report_callback@context
 12470  15E3  083B               	movf	(_ep0_data_stage_callback+1)^(0+128),w
 12471  15E4  008A               	movwf	10
 12472  15E5  083A               	movf	_ep0_data_stage_callback^(0+128),w
 12473  15E6  000A               	callw
 12474  15E7  3195               	pagesel	$
 12475  15E8  2D88               	goto	i1l3803
 12476  15E9                     i1l3833:	
 12477                           
 12478                           ;usb.c: 1316: else {;usb.c: 1320: int8_t res = 0;
 12479  15E9  01F6               	clrf	handle_ep0_out@res
 12480                           
 12481                           ;usb.c: 1322: if (ep0_data_stage_callback)
 12482  15EA  083A               	movf	_ep0_data_stage_callback^(0+128),w
 12483  15EB  043B               	iorwf	(_ep0_data_stage_callback+1)^(0+128),w
 12484  15EC  1903               	btfsc	3,2
 12485  15ED  2DFC               	goto	i1l3839
 12486                           
 12487                           ;usb.c: 1323: res = ep0_data_stage_callback(1 , ep0_data_stage_context);
 12488  15EE  01F0               	clrf	get_report_callback@transfer_ok
 12489  15EF  0AF0               	incf	get_report_callback@transfer_ok,f
 12490  15F0  083D               	movf	_ep0_data_stage_context^(0+128),w
 12491  15F1  00F2               	movwf	??_handle_ep0_out
 12492  15F2  0872               	movf	??_handle_ep0_out,w
 12493  15F3  00F1               	movwf	get_report_callback@context
 12494  15F4  083B               	movf	(_ep0_data_stage_callback+1)^(0+128),w
 12495  15F5  008A               	movwf	10
 12496  15F6  083A               	movf	_ep0_data_stage_callback^(0+128),w
 12497  15F7  000A               	callw
 12498  15F8  3195               	pagesel	$
 12499  15F9  00F3               	movwf	??_handle_ep0_out+1
 12500  15FA  0873               	movf	??_handle_ep0_out+1,w
 12501  15FB  00F6               	movwf	handle_ep0_out@res
 12502  15FC                     i1l3839:	
 12503                           
 12504                           ;usb.c: 1325: if (res < 0) {
 12505  15FC  1FF6               	btfss	handle_ep0_out@res,7
 12506  15FD  2E02               	goto	i1l3843
 12507                           
 12508                           ;usb.c: 1328: stall_ep0();
 12509  15FE  319D  25AB  3195   	fcall	_stall_ep0
 12510                           
 12511                           ;usb.c: 1329: }
 12512  1601  2E04               	goto	i1l3845
 12513  1602                     i1l3843:	
 12514                           
 12515                           ;usb.c: 1330: else {;usb.c: 1333: send_zero_length_packet_ep0();
 12516  1602  319D  258B         	fcall	_send_zero_length_packet_ep0
 12517  1604                     i1l3845:	
 12518                           
 12519                           ;usb.c: 1334: };usb.c: 1339: ep0_data_stage_callback = (0);
 12520  1604  0021               	movlb	1	; select bank1
 12521  1605  01BA               	clrf	_ep0_data_stage_callback^(0+128)
 12522  1606  01BB               	clrf	(_ep0_data_stage_callback+1)^(0+128)
 12523  1607  0008               	return
 12524  1608                     __end_of_handle_ep0_out:	
 12525                           
 12526                           	psect	text69
 12527  1DAB                     __ptext69:	
 12528 ;; *************** function _stall_ep0 *****************
 12529 ;; Defined at:
 12530 ;;		line 704 in file "../../../usb/src/usb.c"
 12531 ;; Parameters:    Size  Location     Type
 12532 ;;		None
 12533 ;; Auto vars:     Size  Location     Type
 12534 ;;		None
 12535 ;; Return value:  Size  Location     Type
 12536 ;;                  1    wreg      void 
 12537 ;; Registers used:
 12538 ;;		wreg
 12539 ;; Tracked objects:
 12540 ;;		On entry : 0/1
 12541 ;;		On exit  : 1F/0
 12542 ;;		Unchanged: 0/0
 12543 ;; Data sizes:     COMMON   BANK0   BANK1   BANK2   BANK3   BANK4   BANK5   BANK6   BANK7   BANK8   BANK9  BANK10  BANK1
      +1  BANK12
 12544 ;;      Params:         0       0       0       0       0       0       0       0       0       0       0       0       
      +0       0
 12545 ;;      Locals:         0       0       0       0       0       0       0       0       0       0       0       0       
      +0       0
 12546 ;;      Temps:          1       0       0       0       0       0       0       0       0       0       0       0       
      +0       0
 12547 ;;      Totals:         1       0       0       0       0       0       0       0       0       0       0       0       
      +0       0
 12548 ;;Total ram usage:        1 bytes
 12549 ;; Hardware stack levels used:    1
 12550 ;; This function calls:
 12551 ;;		Nothing
 12552 ;; This function is called by:
 12553 ;;		_handle_standard_control_request
 12554 ;;		_handle_ep0_setup
 12555 ;;		_handle_ep0_out
 12556 ;;		_usb_service
 12557 ;; This function uses a non-reentrant model
 12558 ;;
 12559                           
 12560                           
 12561                           ;psect for function _stall_ep0
 12562  1DAB                     _stall_ep0:	
 12563                           
 12564                           ;incstack = 0
 12565                           ; Regs used in _stall_ep0: [wreg]
 12566                           ;usb.c: 712: do { (bds[1]).BDnCNT = (8); (bds[1]).STAT.BDnSTAT = (0x80|0x04); } while(0)
      +                          ;
 12567  1DAB  3008               	movlw	8
 12568  1DAC  00F0               	movwf	??_stall_ep0
 12569  1DAD  0870               	movf	??_stall_ep0,w
 12570  1DAE  0020               	movlb	0	; select bank0
 12571  1DAF  00A5               	movwf	37
 12572  1DB0  3084               	movlw	132
 12573  1DB1  00F0               	movwf	??_stall_ep0
 12574  1DB2  0870               	movf	??_stall_ep0,w
 12575  1DB3  00A4               	movwf	36
 12576  1DB4  0008               	return
 12577  1DB5                     __end_of_stall_ep0:	
 12578                           
 12579                           	psect	text70
 12580  1D8B                     __ptext70:	
 12581 ;; *************** function _send_zero_length_packet_ep0 *****************
 12582 ;; Defined at:
 12583 ;;		line 753 in file "../../../usb/src/usb.c"
 12584 ;; Parameters:    Size  Location     Type
 12585 ;;		None
 12586 ;; Auto vars:     Size  Location     Type
 12587 ;;		None
 12588 ;; Return value:  Size  Location     Type
 12589 ;;                  1    wreg      void 
 12590 ;; Registers used:
 12591 ;;		wreg, status,2
 12592 ;; Tracked objects:
 12593 ;;		On entry : 0/1
 12594 ;;		On exit  : 1F/0
 12595 ;;		Unchanged: 0/0
 12596 ;; Data sizes:     COMMON   BANK0   BANK1   BANK2   BANK3   BANK4   BANK5   BANK6   BANK7   BANK8   BANK9  BANK10  BANK1
      +1  BANK12
 12597 ;;      Params:         0       0       0       0       0       0       0       0       0       0       0       0       
      +0       0
 12598 ;;      Locals:         0       0       0       0       0       0       0       0       0       0       0       0       
      +0       0
 12599 ;;      Temps:          1       0       0       0       0       0       0       0       0       0       0       0       
      +0       0
 12600 ;;      Totals:         1       0       0       0       0       0       0       0       0       0       0       0       
      +0       0
 12601 ;;Total ram usage:        1 bytes
 12602 ;; Hardware stack levels used:    1
 12603 ;; This function calls:
 12604 ;;		Nothing
 12605 ;; This function is called by:
 12606 ;;		_handle_standard_control_request
 12607 ;;		_handle_ep0_out
 12608 ;; This function uses a non-reentrant model
 12609 ;;
 12610                           
 12611                           
 12612                           ;psect for function _send_zero_length_packet_ep0
 12613  1D8B                     _send_zero_length_packet_ep0:	
 12614                           
 12615                           ;usb.c: 761: bds[1].STAT.BDnSTAT = 0;
 12616                           
 12617                           ;incstack = 0
 12618                           ; Regs used in _send_zero_length_packet_ep0: [wreg+status,2]
 12619  1D8B  0020               	movlb	0	; select bank0
 12620  1D8C  01A4               	clrf	36
 12621                           
 12622                           ;usb.c: 762: do { (bds[1]).BDnCNT = (0); (bds[1]).STAT.BDnSTAT = (0x80|0x40|0x08); } whi
      +                          le(0);
 12623  1D8D  01A5               	clrf	37
 12624  1D8E  30C8               	movlw	200
 12625  1D8F  00F0               	movwf	??_send_zero_length_packet_ep0
 12626  1D90  0870               	movf	??_send_zero_length_packet_ep0,w
 12627  1D91  00A4               	movwf	36
 12628  1D92  0008               	return
 12629  1D93                     __end_of_send_zero_length_packet_ep0:	
 12630                           
 12631                           	psect	text71
 12632  14E2                     __ptext71:	
 12633 ;; *************** function _handle_ep0_in *****************
 12634 ;; Defined at:
 12635 ;;		line 1346 in file "../../../usb/src/usb.c"
 12636 ;; Parameters:    Size  Location     Type
 12637 ;;		None
 12638 ;; Auto vars:     Size  Location     Type
 12639 ;;  bytes_to_sen    1    5[BANK0 ] unsigned char 
 12640 ;; Return value:  Size  Location     Type
 12641 ;;                  1    wreg      void 
 12642 ;; Registers used:
 12643 ;;		wreg, fsr0l, fsr0h, fsr1l, fsr1h, status,2, status,0, pclath, cstack
 12644 ;; Tracked objects:
 12645 ;;		On entry : 1F/1D
 12646 ;;		On exit  : 1C/0
 12647 ;;		Unchanged: 0/0
 12648 ;; Data sizes:     COMMON   BANK0   BANK1   BANK2   BANK3   BANK4   BANK5   BANK6   BANK7   BANK8   BANK9  BANK10  BANK1
      +1  BANK12
 12649 ;;      Params:         0       0       0       0       0       0       0       0       0       0       0       0       
      +0       0
 12650 ;;      Locals:         0       3       0       0       0       0       0       0       0       0       0       0       
      +0       0
 12651 ;;      Temps:          0       2       0       0       0       0       0       0       0       0       0       0       
      +0       0
 12652 ;;      Totals:         0       5       0       0       0       0       0       0       0       0       0       0       
      +0       0
 12653 ;;Total ram usage:        5 bytes
 12654 ;; Hardware stack levels used:    1
 12655 ;; Hardware stack levels required when called:    3
 12656 ;; This function calls:
 12657 ;;		Absolute function
 12658 ;;		_get_report_callback
 12659 ;;		_usb_send_in_buffer_0
 12660 ;;		i1_reset_ep0_data_stage
 12661 ;; This function is called by:
 12662 ;;		_usb_service
 12663 ;; This function uses a non-reentrant model
 12664 ;;
 12665                           
 12666                           
 12667                           ;psect for function _handle_ep0_in
 12668  14E2                     _handle_ep0_in:	
 12669                           
 12670                           ;usb.c: 1348: if (addr_pending) {
 12671                           
 12672                           ;incstack = 0
 12673                           ; Regs used in _handle_ep0_in: [wreg-fsr1h+status,2+status,0+pclath+cstack]
 12674  14E2  0023               	movlb	3	; select bank3
 12675  14E3  086F               	movf	_addr_pending^(0+384),w
 12676  14E4  1903               	btfsc	3,2
 12677  14E5  2CEC               	goto	i1l3853
 12678                           
 12679                           ;usb.c: 1349: UADDR = addr;
 12680  14E6  0021               	movlb	1	; select bank1
 12681  14E7  0840               	movf	_addr^(0+128),w
 12682  14E8  003D               	movlb	29	; select bank29
 12683  14E9  0096               	movwf	22	;volatile
 12684                           
 12685                           ;usb.c: 1350: addr_pending = 0;
 12686  14EA  0023               	movlb	3	; select bank3
 12687  14EB  01EF               	clrf	_addr_pending^(0+384)
 12688  14EC                     i1l3853:	
 12689                           
 12690                           ;usb.c: 1351: };usb.c: 1353: if (ep0_data_stage_buf_remaining) {
 12691  14EC  0021               	movlb	1	; select bank1
 12692  14ED  0836               	movf	_ep0_data_stage_buf_remaining^(0+128),w
 12693  14EE  0437               	iorwf	(_ep0_data_stage_buf_remaining+1)^(0+128),w
 12694  14EF  1903               	btfsc	3,2
 12695  14F0  2D4D               	goto	i1l3877
 12696                           
 12697                           ;usb.c: 1355: uint8_t bytes_to_send = (((ep0_data_stage_buf_remaining)<(8))?(ep0_data_st
      +                          age_buf_remaining):(8));
 12698  14F1  3000               	movlw	0
 12699  14F2  0237               	subwf	(_ep0_data_stage_buf_remaining+1)^(0+128),w
 12700  14F3  3008               	movlw	8
 12701  14F4  1903               	skipnz
 12702  14F5  0236               	subwf	_ep0_data_stage_buf_remaining^(0+128),w
 12703  14F6  1C03               	skipc
 12704  14F7  2CFE               	goto	i1l3859
 12705  14F8  3008               	movlw	8
 12706  14F9  0020               	movlb	0	; select bank0
 12707  14FA  00B3               	movwf	_handle_ep0_in$813
 12708  14FB  3000               	movlw	0
 12709  14FC  00B4               	movwf	_handle_ep0_in$813+1
 12710  14FD  2D05               	goto	i1l366
 12711  14FE                     i1l3859:	
 12712  14FE  0837               	movf	(_ep0_data_stage_buf_remaining+1)^(0+128),w
 12713  14FF  0020               	movlb	0	; select bank0
 12714  1500  00B4               	movwf	_handle_ep0_in$813+1
 12715  1501  0021               	movlb	1	; select bank1
 12716  1502  0836               	movf	_ep0_data_stage_buf_remaining^(0+128),w
 12717  1503  0020               	movlb	0	; select bank0
 12718  1504  00B3               	movwf	_handle_ep0_in$813
 12719  1505                     i1l366:	
 12720  1505  0833               	movf	_handle_ep0_in$813,w
 12721  1506  00B1               	movwf	??_handle_ep0_in
 12722  1507  0831               	movf	??_handle_ep0_in,w
 12723  1508  00B5               	movwf	handle_ep0_in@bytes_to_send
 12724                           
 12725                           ;usb.c: 1357: __builtin_memcpy(ep0_buf.in,ep0_data_stage_in_buffer,bytes_to_send);;
 12726  1509  0023               	movlb	3	; select bank3
 12727  150A  086C               	movf	(_ep0_buf^(0+384)+2),w
 12728  150B  0086               	movwf	6
 12729  150C  086D               	movf	((_ep0_buf+1)^(0+384)+2),w
 12730  150D  0087               	movwf	7
 12731  150E  0021               	movlb	1	; select bank1
 12732  150F  0838               	movf	_ep0_data_stage_in_buffer^(0+128),w
 12733  1510  0084               	movwf	4
 12734  1511  0839               	movf	(_ep0_data_stage_in_buffer+1)^(0+128),w
 12735  1512  0085               	movwf	5
 12736  1513  0020               	movlb	0	; select bank0
 12737  1514  0835               	movf	handle_ep0_in@bytes_to_send,w
 12738  1515  00B1               	movwf	??_handle_ep0_in
 12739  1516  0831               	movf	??_handle_ep0_in,w
 12740  1517  1903               	skipnz
 12741  1518  2D1D               	goto	i1l3863
 12742  1519                     u391_2m0:	
 12743  1519  0012               	moviw fsr0++
 12744  151A  001E               	movwi fsr1++
 12745  151B  0BB1               	decfsz	??_handle_ep0_in,f
 12746  151C  2D19               	goto	u391_2m0
 12747  151D                     i1l3863:	
 12748                           
 12749                           ;usb.c: 1358: ep0_data_stage_buf_remaining -= bytes_to_send;
 12750  151D  0020               	movlb	0	; select bank0
 12751  151E  0835               	movf	handle_ep0_in@bytes_to_send,w
 12752  151F  00B1               	movwf	??_handle_ep0_in
 12753  1520  01B2               	clrf	??_handle_ep0_in+1
 12754  1521  0831               	movf	??_handle_ep0_in,w
 12755  1522  0021               	movlb	1	; select bank1
 12756  1523  02B6               	subwf	_ep0_data_stage_buf_remaining^(0+128),f
 12757  1524  0020               	movlb	0	; select bank0
 12758  1525  0832               	movf	??_handle_ep0_in+1,w
 12759  1526  0021               	movlb	1	; select bank1
 12760  1527  3BB7               	subwfb	(_ep0_data_stage_buf_remaining+1)^(0+128),f
 12761                           
 12762                           ;usb.c: 1359: ep0_data_stage_in_buffer += bytes_to_send;
 12763  1528  0020               	movlb	0	; select bank0
 12764  1529  0835               	movf	handle_ep0_in@bytes_to_send,w
 12765  152A  00B1               	movwf	??_handle_ep0_in
 12766  152B  01B2               	clrf	??_handle_ep0_in+1
 12767  152C  0831               	movf	??_handle_ep0_in,w
 12768  152D  0021               	movlb	1	; select bank1
 12769  152E  07B8               	addwf	_ep0_data_stage_in_buffer^(0+128),f
 12770  152F  0020               	movlb	0	; select bank0
 12771  1530  0832               	movf	??_handle_ep0_in+1,w
 12772  1531  0021               	movlb	1	; select bank1
 12773  1532  3DB9               	addwfc	(_ep0_data_stage_in_buffer+1)^(0+128),f
 12774                           
 12775                           ;usb.c: 1364: if (ep0_data_stage_buf_remaining == 0 &&;usb.c: 1365: bytes_to_send == 8 &
      +                          &;usb.c: 1366: returning_short)
 12776  1533  0836               	movf	_ep0_data_stage_buf_remaining^(0+128),w
 12777  1534  0437               	iorwf	(_ep0_data_stage_buf_remaining+1)^(0+128),w
 12778  1535  1D03               	btfss	3,2
 12779  1536  2D42               	goto	i1l3875
 12780  1537  3008               	movlw	8
 12781  1538  0020               	movlb	0	; select bank0
 12782  1539  0635               	xorwf	handle_ep0_in@bytes_to_send,w
 12783  153A  1D03               	btfss	3,2
 12784  153B  2D42               	goto	i1l3875
 12785  153C  0021               	movlb	1	; select bank1
 12786  153D  083E               	movf	_returning_short^(0+128),w
 12787  153E  1903               	btfsc	3,2
 12788  153F  2D42               	goto	i1l3875
 12789                           
 12790                           ;usb.c: 1367: control_need_zlp = 1;
 12791  1540  01BF               	clrf	_control_need_zlp^(0+128)
 12792  1541  0ABF               	incf	_control_need_zlp^(0+128),f
 12793  1542                     i1l3875:	
 12794                           
 12795                           ;usb.c: 1369: usb_send_in_buffer_0(bytes_to_send);
 12796  1542  0020               	movlb	0	; select bank0
 12797  1543  0835               	movf	handle_ep0_in@bytes_to_send,w
 12798  1544  00B1               	movwf	??_handle_ep0_in
 12799  1545  01B2               	clrf	??_handle_ep0_in+1
 12800  1546  0831               	movf	??_handle_ep0_in,w
 12801  1547  00FB               	movwf	usb_send_in_buffer_0@len
 12802  1548  0832               	movf	??_handle_ep0_in+1,w
 12803  1549  00FC               	movwf	usb_send_in_buffer_0@len+1
 12804  154A  3190  2077         	fcall	_usb_send_in_buffer_0
 12805                           
 12806                           ;usb.c: 1370: }
 12807  154C  0008               	return
 12808  154D                     i1l3877:	
 12809                           
 12810                           ;usb.c: 1371: else if (control_need_zlp) {
 12811  154D  083F               	movf	_control_need_zlp^(0+128),w
 12812  154E  1903               	btfsc	3,2
 12813  154F  2D5B               	goto	i1l3885
 12814                           
 12815                           ;usb.c: 1372: usb_send_in_buffer_0(0);
 12816  1550  3000               	movlw	0
 12817  1551  00FB               	movwf	usb_send_in_buffer_0@len
 12818  1552  00FC               	movwf	usb_send_in_buffer_0@len+1
 12819  1553  3190  2077  3194   	fcall	_usb_send_in_buffer_0
 12820                           
 12821                           ;usb.c: 1373: control_need_zlp = 0;
 12822  1556  0021               	movlb	1	; select bank1
 12823  1557  01BF               	clrf	_control_need_zlp^(0+128)
 12824  1558                     i1l3883:	
 12825                           
 12826                           ;usb.c: 1374: reset_ep0_data_stage();
 12827  1558  319D  25B5         	fcall	i1_reset_ep0_data_stage
 12828                           
 12829                           ;usb.c: 1375: }
 12830  155A  0008               	return
 12831  155B                     i1l3885:	
 12832                           
 12833                           ;usb.c: 1376: else {;usb.c: 1377: if (ep0_data_stage_direc == 0 ) {
 12834  155B  083C               	movf	_ep0_data_stage_direc^(0+128),w
 12835  155C  1D03               	btfss	3,2
 12836  155D  0008               	return
 12837                           
 12838                           ;usb.c: 1382: if (ep0_data_stage_callback)
 12839  155E  083A               	movf	_ep0_data_stage_callback^(0+128),w
 12840  155F  043B               	iorwf	(_ep0_data_stage_callback+1)^(0+128),w
 12841  1560  1903               	btfsc	3,2
 12842  1561  2D58               	goto	i1l3883
 12843                           
 12844                           ;usb.c: 1383: ep0_data_stage_callback(1 , ep0_data_stage_context);
 12845  1562  01F0               	clrf	get_report_callback@transfer_ok
 12846  1563  0AF0               	incf	get_report_callback@transfer_ok,f
 12847  1564  083D               	movf	_ep0_data_stage_context^(0+128),w
 12848  1565  0020               	movlb	0	; select bank0
 12849  1566  00B1               	movwf	??_handle_ep0_in
 12850  1567  0831               	movf	??_handle_ep0_in,w
 12851  1568  00F1               	movwf	get_report_callback@context
 12852  1569  0021               	movlb	1	; select bank1
 12853  156A  083B               	movf	(_ep0_data_stage_callback+1)^(0+128),w
 12854  156B  008A               	movwf	10
 12855  156C  083A               	movf	_ep0_data_stage_callback^(0+128),w
 12856  156D  000A               	callw
 12857  156E  3194               	pagesel	$
 12858  156F  2D58               	goto	i1l3883
 12859  1570                     __end_of_handle_ep0_in:	
 12860                           
 12861                           	psect	text72
 12862  1DB5                     __ptext72:	
 12863 ;; *************** function i1_reset_ep0_data_stage *****************
 12864 ;; Defined at:
 12865 ;;		line 474 in file "../../../usb/src/usb.c"
 12866 ;; Parameters:    Size  Location     Type
 12867 ;;		None
 12868 ;; Auto vars:     Size  Location     Type
 12869 ;;		None
 12870 ;; Return value:  Size  Location     Type
 12871 ;;                  1    wreg      void 
 12872 ;; Registers used:
 12873 ;;		status,2
 12874 ;; Tracked objects:
 12875 ;;		On entry : 0/1D
 12876 ;;		On exit  : 1F/1
 12877 ;;		Unchanged: 0/0
 12878 ;; Data sizes:     COMMON   BANK0   BANK1   BANK2   BANK3   BANK4   BANK5   BANK6   BANK7   BANK8   BANK9  BANK10  BANK1
      +1  BANK12
 12879 ;;      Params:         0       0       0       0       0       0       0       0       0       0       0       0       
      +0       0
 12880 ;;      Locals:         0       0       0       0       0       0       0       0       0       0       0       0       
      +0       0
 12881 ;;      Temps:          0       0       0       0       0       0       0       0       0       0       0       0       
      +0       0
 12882 ;;      Totals:         0       0       0       0       0       0       0       0       0       0       0       0       
      +0       0
 12883 ;;Total ram usage:        0 bytes
 12884 ;; Hardware stack levels used:    1
 12885 ;; This function calls:
 12886 ;;		Nothing
 12887 ;; This function is called by:
 12888 ;;		_handle_ep0_setup
 12889 ;;		_handle_ep0_out
 12890 ;;		_handle_ep0_in
 12891 ;;		i1_usb_init
 12892 ;; This function uses a non-reentrant model
 12893 ;;
 12894                           
 12895                           
 12896                           ;psect for function i1_reset_ep0_data_stage
 12897  1DB5                     i1_reset_ep0_data_stage:	
 12898                           
 12899                           ;usb.c: 476: ep0_data_stage_in_buffer = (0);
 12900                           
 12901                           ;incstack = 0
 12902                           ; Regs used in i1_reset_ep0_data_stage: [status,2]
 12903  1DB5  0021               	movlb	1	; select bank1
 12904  1DB6  01B8               	clrf	_ep0_data_stage_in_buffer^(0+128)
 12905  1DB7  01B9               	clrf	(_ep0_data_stage_in_buffer+1)^(0+128)
 12906                           
 12907                           ;usb.c: 477: ep0_data_stage_out_buffer = (0);
 12908  1DB8  0020               	movlb	0	; select bank0
 12909  1DB9  01EE               	clrf	_ep0_data_stage_out_buffer
 12910                           
 12911                           ;usb.c: 478: ep0_data_stage_buf_remaining = 0;
 12912  1DBA  0021               	movlb	1	; select bank1
 12913  1DBB  01B6               	clrf	_ep0_data_stage_buf_remaining^(0+128)
 12914  1DBC  01B7               	clrf	(_ep0_data_stage_buf_remaining+1)^(0+128)
 12915                           
 12916                           ;usb.c: 479: ep0_data_stage_callback = (0);
 12917  1DBD  01BA               	clrf	_ep0_data_stage_callback^(0+128)
 12918  1DBE  01BB               	clrf	(_ep0_data_stage_callback+1)^(0+128)
 12919  1DBF  0008               	return
 12920  1DC0                     __end_ofi1_reset_ep0_data_stage:	
 12921                           
 12922                           	psect	text73
 12923  1077                     __ptext73:	
 12924 ;; *************** function _usb_send_in_buffer_0 *****************
 12925 ;; Defined at:
 12926 ;;		line 766 in file "../../../usb/src/usb.c"
 12927 ;; Parameters:    Size  Location     Type
 12928 ;;  len             2   11[COMMON] unsigned int 
 12929 ;; Auto vars:     Size  Location     Type
 12930 ;;  pid             1    0[BANK0 ] unsigned char 
 12931 ;; Return value:  Size  Location     Type
 12932 ;;                  1    wreg      void 
 12933 ;; Registers used:
 12934 ;;		wreg, fsr1l, fsr1h, status,2, status,0, pclath, cstack
 12935 ;; Tracked objects:
 12936 ;;		On entry : 1E/0
 12937 ;;		On exit  : 1C/0
 12938 ;;		Unchanged: 0/0
 12939 ;; Data sizes:     COMMON   BANK0   BANK1   BANK2   BANK3   BANK4   BANK5   BANK6   BANK7   BANK8   BANK9  BANK10  BANK1
      +1  BANK12
 12940 ;;      Params:         2       0       0       0       0       0       0       0       0       0       0       0       
      +0       0
 12941 ;;      Locals:         0       1       0       0       0       0       0       0       0       0       0       0       
      +0       0
 12942 ;;      Temps:          1       0       0       0       0       0       0       0       0       0       0       0       
      +0       0
 12943 ;;      Totals:         3       1       0       0       0       0       0       0       0       0       0       0       
      +0       0
 12944 ;;Total ram usage:        4 bytes
 12945 ;; Hardware stack levels used:    1
 12946 ;; Hardware stack levels required when called:    2
 12947 ;; This function calls:
 12948 ;;		i1_usb_in_endpoint_halted
 12949 ;; This function is called by:
 12950 ;;		_start_control_return
 12951 ;;		_handle_ep0_in
 12952 ;; This function uses a non-reentrant model
 12953 ;;
 12954                           
 12955                           
 12956                           ;psect for function _usb_send_in_buffer_0
 12957  1077                     _usb_send_in_buffer_0:	
 12958                           
 12959                           ;usb.c: 768: if (!usb_in_endpoint_halted(0)) {
 12960                           
 12961                           ;incstack = 0
 12962                           ; Regs used in _usb_send_in_buffer_0: [wreg+fsr1l+fsr1h+status,2+status,0+pclath+cstack]
 12963  1077  3000               	movlw	0
 12964  1078  319E  2693  3190   	fcall	i1_usb_in_endpoint_halted
 12965  107B  3A00               	xorlw	0
 12966  107C  1D03               	skipz
 12967  107D  0008               	return
 12968                           
 12969                           ;usb.c: 786: uint8_t pid;;usb.c: 787: pid = (ep0_buf.flags & 0x8)? 1 : 0;
 12970  107E  0023               	movlb	3	; select bank3
 12971  107F  1DEE               	btfss	(_ep0_buf^(0+384)+4),3
 12972  1080  2883               	goto	u248_20
 12973  1081  3001               	movlw	1
 12974  1082  2884               	goto	u249_20
 12975  1083                     u248_20:	
 12976  1083  3000               	movlw	0
 12977  1084                     u249_20:	
 12978  1084  00FD               	movwf	??_usb_send_in_buffer_0
 12979  1085  087D               	movf	??_usb_send_in_buffer_0,w
 12980  1086  0020               	movlb	0	; select bank0
 12981  1087  00B0               	movwf	usb_send_in_buffer_0@pid
 12982                           
 12983                           ;usb.c: 788: bds[1].STAT.BDnSTAT = 0;
 12984  1088  01A4               	clrf	36
 12985                           
 12986                           ;usb.c: 790: if (pid)
 12987  1089  0830               	movf	usb_send_in_buffer_0@pid,w
 12988  108A  1903               	btfsc	3,2
 12989  108B  2892               	goto	i1l3025
 12990  108C  087B               	movf	usb_send_in_buffer_0@len,w
 12991  108D  00FD               	movwf	??_usb_send_in_buffer_0
 12992  108E  087D               	movf	??_usb_send_in_buffer_0,w
 12993  108F  00A5               	movwf	37
 12994  1090  30C8               	movlw	200
 12995  1091  2897               	goto	L11
 12996  1092                     i1l3025:	
 12997  1092  087B               	movf	usb_send_in_buffer_0@len,w
 12998  1093  00FD               	movwf	??_usb_send_in_buffer_0
 12999  1094  087D               	movf	??_usb_send_in_buffer_0,w
 13000  1095  00A5               	movwf	37
 13001  1096  3088               	movlw	136
 13002  1097                     L11:	
 13003  1097  00FD               	movwf	??_usb_send_in_buffer_0
 13004  1098  087D               	movf	??_usb_send_in_buffer_0,w
 13005  1099  00A4               	movwf	36
 13006                           
 13007                           ;usb.c: 797: ep0_buf.flags ^= 0x8;
 13008  109A  3008               	movlw	8
 13009  109B  00FD               	movwf	??_usb_send_in_buffer_0
 13010  109C  087D               	movf	??_usb_send_in_buffer_0,w
 13011  109D  0023               	movlb	3	; select bank3
 13012  109E  06EE               	xorwf	(_ep0_buf^(0+384)+4),f
 13013  109F  0008               	return
 13014  10A0                     __end_of_usb_send_in_buffer_0:	
 13015                           
 13016                           	psect	text74
 13017  1E93                     __ptext74:	
 13018 ;; *************** function i1_usb_in_endpoint_halted *****************
 13019 ;; Defined at:
 13020 ;;		line 1588 in file "../../../usb/src/usb.c"
 13021 ;; Parameters:    Size  Location     Type
 13022 ;;  endpoint        1    wreg     unsigned char 
 13023 ;; Auto vars:     Size  Location     Type
 13024 ;;  endpoint        1   10[COMMON] unsigned char 
 13025 ;; Return value:  Size  Location     Type
 13026 ;;                  1    wreg      unsigned char 
 13027 ;; Registers used:
 13028 ;;		wreg, fsr1l, fsr1h, status,2, status,0, pclath, cstack
 13029 ;; Tracked objects:
 13030 ;;		On entry : 1E/0
 13031 ;;		On exit  : 1E/0
 13032 ;;		Unchanged: 1E/0
 13033 ;; Data sizes:     COMMON   BANK0   BANK1   BANK2   BANK3   BANK4   BANK5   BANK6   BANK7   BANK8   BANK9  BANK10  BANK1
      +1  BANK12
 13034 ;;      Params:         0       0       0       0       0       0       0       0       0       0       0       0       
      +0       0
 13035 ;;      Locals:         1       0       0       0       0       0       0       0       0       0       0       0       
      +0       0
 13036 ;;      Temps:          4       0       0       0       0       0       0       0       0       0       0       0       
      +0       0
 13037 ;;      Totals:         5       0       0       0       0       0       0       0       0       0       0       0       
      +0       0
 13038 ;;Total ram usage:        5 bytes
 13039 ;; Hardware stack levels used:    1
 13040 ;; Hardware stack levels required when called:    1
 13041 ;; This function calls:
 13042 ;;		i1___wmul
 13043 ;; This function is called by:
 13044 ;;		_usb_send_in_buffer_0
 13045 ;; This function uses a non-reentrant model
 13046 ;;
 13047                           
 13048                           
 13049                           ;psect for function i1_usb_in_endpoint_halted
 13050  1E93                     i1_usb_in_endpoint_halted:	
 13051                           
 13052                           ;incstack = 0
 13053                           ; Regs used in i1_usb_in_endpoint_halted: [wreg+fsr1l+fsr1h+status,2+status,0+pclath+cst
      +                          ack]
 13054                           ;i1usb_in_endpoint_halted@endpoint stored from wreg
 13055  1E93  00FA               	movwf	i1usb_in_endpoint_halted@endpoint
 13056                           
 13057                           ;usb.c: 1590: return ep_buf[endpoint].flags & 0x2;
 13058  1E94  087A               	movf	i1usb_in_endpoint_halted@endpoint,w
 13059  1E95  00F6               	movwf	??i1_usb_in_endpoint_halted
 13060  1E96  01F7               	clrf	??i1_usb_in_endpoint_halted+1
 13061  1E97  0876               	movf	??i1_usb_in_endpoint_halted,w
 13062  1E98  00F0               	movwf	i1___wmul@multiplier
 13063  1E99  0877               	movf	??i1_usb_in_endpoint_halted+1,w
 13064  1E9A  00F1               	movwf	i1___wmul@multiplier+1
 13065  1E9B  3007               	movlw	7
 13066  1E9C  00F2               	movwf	i1___wmul@multiplicand
 13067  1E9D  3000               	movlw	0
 13068  1E9E  00F3               	movwf	i1___wmul@multiplicand+1
 13069  1E9F  319E  2678         	fcall	i1___wmul
 13070  1EA1  305E               	movlw	low (_ep_buf+6)
 13071  1EA2  00F8               	movwf	??i1_usb_in_endpoint_halted+2
 13072  1EA3  3002               	movlw	high (_ep_buf+6)
 13073  1EA4  00F9               	movwf	??i1_usb_in_endpoint_halted+3
 13074  1EA5  0870               	movf	?i1___wmul,w
 13075  1EA6  0778               	addwf	??i1_usb_in_endpoint_halted+2,w
 13076  1EA7  0086               	movwf	6
 13077  1EA8  0871               	movf	?i1___wmul+1,w
 13078  1EA9  3D79               	addwfc	??i1_usb_in_endpoint_halted+3,w
 13079  1EAA  0087               	movwf	7
 13080  1EAB  0801               	movf	1,w
 13081  1EAC  3902               	andlw	2
 13082  1EAD  0008               	return
 13083  1EAE                     __end_ofi1_usb_in_endpoint_halted:	
 13084                           
 13085                           	psect	text75
 13086  1E78                     __ptext75:	
 13087 ;; *************** function i1___wmul *****************
 13088 ;; Defined at:
 13089 ;;		line 15 in file "C:\Program Files (x86)\Microchip\xc8\v2.10\pic\sources\c90\common\Umul16.c"
 13090 ;; Parameters:    Size  Location     Type
 13091 ;;  multiplier      2    0[COMMON] unsigned int 
 13092 ;;  multiplicand    2    2[COMMON] unsigned int 
 13093 ;; Auto vars:     Size  Location     Type
 13094 ;;  __wmul          2    4[COMMON] unsigned int 
 13095 ;; Return value:  Size  Location     Type
 13096 ;;                  2    0[COMMON] unsigned int 
 13097 ;; Registers used:
 13098 ;;		wreg, status,2, status,0
 13099 ;; Tracked objects:
 13100 ;;		On entry : 1E/1
 13101 ;;		On exit  : 1E/0
 13102 ;;		Unchanged: 1E/0
 13103 ;; Data sizes:     COMMON   BANK0   BANK1   BANK2   BANK3   BANK4   BANK5   BANK6   BANK7   BANK8   BANK9  BANK10  BANK1
      +1  BANK12
 13104 ;;      Params:         4       0       0       0       0       0       0       0       0       0       0       0       
      +0       0
 13105 ;;      Locals:         2       0       0       0       0       0       0       0       0       0       0       0       
      +0       0
 13106 ;;      Temps:          0       0       0       0       0       0       0       0       0       0       0       0       
      +0       0
 13107 ;;      Totals:         6       0       0       0       0       0       0       0       0       0       0       0       
      +0       0
 13108 ;;Total ram usage:        6 bytes
 13109 ;; Hardware stack levels used:    1
 13110 ;; This function calls:
 13111 ;;		Nothing
 13112 ;; This function is called by:
 13113 ;;		_stall_ep_in
 13114 ;;		_handle_standard_control_request
 13115 ;;		_usb_service
 13116 ;;		_usb_halt_ep_in
 13117 ;;		_usb_halt_ep_out
 13118 ;;		i1_pic16_linear_addr
 13119 ;;		i1_init_endpoints
 13120 ;;		i1_usb_in_endpoint_halted
 13121 ;; This function uses a non-reentrant model
 13122 ;;
 13123                           
 13124                           
 13125                           ;psect for function i1___wmul
 13126  1E78                     i1___wmul:	
 13127                           
 13128                           ;incstack = 0
 13129                           ; Regs used in i1___wmul: [wreg+status,2+status,0]
 13130  1E78  01F4               	clrf	i1___wmul@product
 13131  1E79  01F5               	clrf	i1___wmul@product+1
 13132  1E7A                     i1l2999:	
 13133  1E7A  1C70               	btfss	i1___wmul@multiplier,0
 13134  1E7B  2E80               	goto	i1l850
 13135  1E7C  0872               	movf	i1___wmul@multiplicand,w
 13136  1E7D  07F4               	addwf	i1___wmul@product,f
 13137  1E7E  0873               	movf	i1___wmul@multiplicand+1,w
 13138  1E7F  3DF5               	addwfc	i1___wmul@product+1,f
 13139  1E80                     i1l850:	
 13140  1E80  3001               	movlw	1
 13141  1E81                     u244_25:	
 13142  1E81  35F2               	lslf	i1___wmul@multiplicand,f
 13143  1E82  0DF3               	rlf	i1___wmul@multiplicand+1,f
 13144  1E83  0B89               	decfsz	9,f
 13145  1E84  2E81               	goto	u244_25
 13146  1E85  3001               	movlw	1
 13147  1E86                     u245_25:	
 13148  1E86  36F1               	lsrf	i1___wmul@multiplier+1,f
 13149  1E87  0CF0               	rrf	i1___wmul@multiplier,f
 13150  1E88  0B89               	decfsz	9,f
 13151  1E89  2E86               	goto	u245_25
 13152  1E8A  0870               	movf	i1___wmul@multiplier,w
 13153  1E8B  0471               	iorwf	i1___wmul@multiplier+1,w
 13154  1E8C  1D03               	btfss	3,2
 13155  1E8D  2E7A               	goto	i1l2999
 13156  1E8E  0875               	movf	i1___wmul@product+1,w
 13157  1E8F  00F1               	movwf	?i1___wmul+1
 13158  1E90  0874               	movf	i1___wmul@product,w
 13159  1E91  00F0               	movwf	?i1___wmul
 13160  1E92  0008               	return
 13161  1E93                     __end_ofi1___wmul:	
 13162                           
 13163                           	psect	text76
 13164  1D4B                     __ptext76:	
 13165 ;; *************** function _get_report_callback *****************
 13166 ;; Defined at:
 13167 ;;		line 247 in file "../main.c"
 13168 ;; Parameters:    Size  Location     Type
 13169 ;;  transfer_ok     1    0[COMMON] unsigned char 
 13170 ;;  context         1    1[COMMON] PTR void 
 13171 ;;		 -> NULL(0), 
 13172 ;; Auto vars:     Size  Location     Type
 13173 ;;		None
 13174 ;; Return value:  Size  Location     Type
 13175 ;;                  1    wreg      char 
 13176 ;; Registers used:
 13177 ;;		wreg
 13178 ;; Tracked objects:
 13179 ;;		On entry : 1F/1
 13180 ;;		On exit  : 1F/1
 13181 ;;		Unchanged: 1F/0
 13182 ;; Data sizes:     COMMON   BANK0   BANK1   BANK2   BANK3   BANK4   BANK5   BANK6   BANK7   BANK8   BANK9  BANK10  BANK1
      +1  BANK12
 13183 ;;      Params:         2       0       0       0       0       0       0       0       0       0       0       0       
      +0       0
 13184 ;;      Locals:         0       0       0       0       0       0       0       0       0       0       0       0       
      +0       0
 13185 ;;      Temps:          0       0       0       0       0       0       0       0       0       0       0       0       
      +0       0
 13186 ;;      Totals:         2       0       0       0       0       0       0       0       0       0       0       0       
      +0       0
 13187 ;;Total ram usage:        2 bytes
 13188 ;; Hardware stack levels used:    1
 13189 ;; This function calls:
 13190 ;;		Nothing
 13191 ;; This function is called by:
 13192 ;;		_app_get_report_callback
 13193 ;;		_handle_ep0_setup
 13194 ;;		_handle_ep0_out
 13195 ;;		_handle_ep0_in
 13196 ;; This function uses a non-reentrant model
 13197 ;;
 13198                           
 13199                           
 13200                           ;psect for function _get_report_callback
 13201  1D4B                     _get_report_callback:	
 13202                           
 13203                           ;main.c: 251: return 0;
 13204                           
 13205                           ;incstack = 0
 13206                           ; Regs used in _get_report_callback: [wreg]
 13207  1D4B  3000               	movlw	0
 13208  1D4C  0008               	return
 13209  1D4D                     __end_of_get_report_callback:	
 13210                           
 13211                           	psect	text77
 13212  1D4A                     __ptext77:	
 13213 ;; *************** function _app_usb_reset_callback *****************
 13214 ;; Defined at:
 13215 ;;		line 239 in file "../main.c"
 13216 ;; Parameters:    Size  Location     Type
 13217 ;;		None
 13218 ;; Auto vars:     Size  Location     Type
 13219 ;;		None
 13220 ;; Return value:  Size  Location     Type
 13221 ;;                  1    wreg      void 
 13222 ;; Registers used:
 13223 ;;		None
 13224 ;; Tracked objects:
 13225 ;;		On entry : 1F/1D
 13226 ;;		On exit  : 1F/1D
 13227 ;;		Unchanged: 1E/0
 13228 ;; Data sizes:     COMMON   BANK0   BANK1   BANK2   BANK3   BANK4   BANK5   BANK6   BANK7   BANK8   BANK9  BANK10  BANK1
      +1  BANK12
 13229 ;;      Params:         0       0       0       0       0       0       0       0       0       0       0       0       
      +0       0
 13230 ;;      Locals:         0       0       0       0       0       0       0       0       0       0       0       0       
      +0       0
 13231 ;;      Temps:          0       0       0       0       0       0       0       0       0       0       0       0       
      +0       0
 13232 ;;      Totals:         0       0       0       0       0       0       0       0       0       0       0       0       
      +0       0
 13233 ;;Total ram usage:        0 bytes
 13234 ;; Hardware stack levels used:    1
 13235 ;; This function calls:
 13236 ;;		Nothing
 13237 ;; This function is called by:
 13238 ;;		_usb_service
 13239 ;; This function uses a non-reentrant model
 13240 ;;
 13241                           
 13242                           
 13243                           ;psect for function _app_usb_reset_callback
 13244  1D4A                     _app_usb_reset_callback:	
 13245                           
 13246                           ;incstack = 0
 13247                           ; Regs used in _app_usb_reset_callback: []
 13248  1D4A  0008               	return
 13249  1D4B                     __end_of_app_usb_reset_callback:	
 13250                           
 13251                           	psect	text78
 13252  1D49                     __ptext78:	
 13253 ;; *************** function _app_start_of_frame_callback *****************
 13254 ;; Defined at:
 13255 ;;		line 235 in file "../main.c"
 13256 ;; Parameters:    Size  Location     Type
 13257 ;;		None
 13258 ;; Auto vars:     Size  Location     Type
 13259 ;;		None
 13260 ;; Return value:  Size  Location     Type
 13261 ;;                  1    wreg      void 
 13262 ;; Registers used:
 13263 ;;		None
 13264 ;; Tracked objects:
 13265 ;;		On entry : 1F/1D
 13266 ;;		On exit  : 1F/1D
 13267 ;;		Unchanged: 1E/0
 13268 ;; Data sizes:     COMMON   BANK0   BANK1   BANK2   BANK3   BANK4   BANK5   BANK6   BANK7   BANK8   BANK9  BANK10  BANK1
      +1  BANK12
 13269 ;;      Params:         0       0       0       0       0       0       0       0       0       0       0       0       
      +0       0
 13270 ;;      Locals:         0       0       0       0       0       0       0       0       0       0       0       0       
      +0       0
 13271 ;;      Temps:          0       0       0       0       0       0       0       0       0       0       0       0       
      +0       0
 13272 ;;      Totals:         0       0       0       0       0       0       0       0       0       0       0       0       
      +0       0
 13273 ;;Total ram usage:        0 bytes
 13274 ;; Hardware stack levels used:    1
 13275 ;; This function calls:
 13276 ;;		Nothing
 13277 ;; This function is called by:
 13278 ;;		_usb_service
 13279 ;; This function uses a non-reentrant model
 13280 ;;
 13281                           
 13282                           
 13283                           ;psect for function _app_start_of_frame_callback
 13284  1D49                     _app_start_of_frame_callback:	
 13285                           
 13286                           ;incstack = 0
 13287                           ; Regs used in _app_start_of_frame_callback: []
 13288  1D49  0008               	return
 13289  1D4A                     __end_of_app_start_of_frame_callback:	
 13290                           
 13291                           	psect	text79
 13292  1D48                     __ptext79:	
 13293 ;; *************** function _app_out_transaction_callback *****************
 13294 ;; Defined at:
 13295 ;;		line 211 in file "../main.c"
 13296 ;; Parameters:    Size  Location     Type
 13297 ;;  endpoint        1    wreg     unsigned char 
 13298 ;; Auto vars:     Size  Location     Type
 13299 ;;  endpoint        1    0[COMMON] unsigned char 
 13300 ;; Return value:  Size  Location     Type
 13301 ;;                  1    wreg      void 
 13302 ;; Registers used:
 13303 ;;		wreg
 13304 ;; Tracked objects:
 13305 ;;		On entry : 1F/1
 13306 ;;		On exit  : 1F/1
 13307 ;;		Unchanged: 1F/0
 13308 ;; Data sizes:     COMMON   BANK0   BANK1   BANK2   BANK3   BANK4   BANK5   BANK6   BANK7   BANK8   BANK9  BANK10  BANK1
      +1  BANK12
 13309 ;;      Params:         0       0       0       0       0       0       0       0       0       0       0       0       
      +0       0
 13310 ;;      Locals:         0       0       0       0       0       0       0       0       0       0       0       0       
      +0       0
 13311 ;;      Temps:          0       0       0       0       0       0       0       0       0       0       0       0       
      +0       0
 13312 ;;      Totals:         0       0       0       0       0       0       0       0       0       0       0       0       
      +0       0
 13313 ;;Total ram usage:        0 bytes
 13314 ;; Hardware stack levels used:    1
 13315 ;; This function calls:
 13316 ;;		Nothing
 13317 ;; This function is called by:
 13318 ;;		_usb_service
 13319 ;; This function uses a non-reentrant model
 13320 ;;
 13321                           
 13322                           
 13323                           ;psect for function _app_out_transaction_callback
 13324  1D48                     _app_out_transaction_callback:	
 13325                           
 13326                           ;incstack = 0
 13327                           ; Regs used in _app_out_transaction_callback: [wreg]
 13328  1D48  0008               	return
 13329  1D49                     __end_of_app_out_transaction_callback:	
 13330                           
 13331                           	psect	text80
 13332  1D47                     __ptext80:	
 13333 ;; *************** function _app_in_transaction_complete_callback *****************
 13334 ;; Defined at:
 13335 ;;		line 215 in file "../main.c"
 13336 ;; Parameters:    Size  Location     Type
 13337 ;;  endpoint        1    wreg     unsigned char 
 13338 ;; Auto vars:     Size  Location     Type
 13339 ;;  endpoint        1    0[COMMON] unsigned char 
 13340 ;; Return value:  Size  Location     Type
 13341 ;;                  1    wreg      void 
 13342 ;; Registers used:
 13343 ;;		wreg
 13344 ;; Tracked objects:
 13345 ;;		On entry : 1F/1
 13346 ;;		On exit  : 1F/1
 13347 ;;		Unchanged: 1F/0
 13348 ;; Data sizes:     COMMON   BANK0   BANK1   BANK2   BANK3   BANK4   BANK5   BANK6   BANK7   BANK8   BANK9  BANK10  BANK1
      +1  BANK12
 13349 ;;      Params:         0       0       0       0       0       0       0       0       0       0       0       0       
      +0       0
 13350 ;;      Locals:         0       0       0       0       0       0       0       0       0       0       0       0       
      +0       0
 13351 ;;      Temps:          0       0       0       0       0       0       0       0       0       0       0       0       
      +0       0
 13352 ;;      Totals:         0       0       0       0       0       0       0       0       0       0       0       0       
      +0       0
 13353 ;;Total ram usage:        0 bytes
 13354 ;; Hardware stack levels used:    1
 13355 ;; This function calls:
 13356 ;;		Nothing
 13357 ;; This function is called by:
 13358 ;;		_usb_service
 13359 ;; This function uses a non-reentrant model
 13360 ;;
 13361                           
 13362                           
 13363                           ;psect for function _app_in_transaction_complete_callback
 13364  1D47                     _app_in_transaction_complete_callback:	
 13365                           
 13366                           ;incstack = 0
 13367                           ; Regs used in _app_in_transaction_complete_callback: [wreg]
 13368  1D47  0008               	return
 13369  1D48                     __end_of_app_in_transaction_complete_callback:	
 13370  007E                     btemp	set	126	;btemp
 13371  007E                     int$flags	set	126
 13372  007E                     wtemp0	set	126


Data Sizes:
    Strings     0
    Constant    181
    Data        21
    BSS         17
    Persistent  56
    Stack       0

Auto Spaces:
    Space          Size  Autos    Used
    COMMON           14     14      14
    BANK0            64     62      64
    BANK1            48     22      35
    BANK2             0      0       0
    BANK3            48     42      48
    BANK4            80     32      73
    BANK5            80      0       0
    BANK6            80      0       0
    BANK7            80      0       0
    BANK8            80      0       0
    BANK9            80      0       0
    BANK10           80      0       0
    BANK11           80      0       0
    BANK12           48      0       0

Pointer List with Targets:

    i1_init_endpoints$2120	const PTR void  size(2) Largest target is 144
		 -> NULL(NULL[0]), ep_buffers(BIGRAM[144]), 

    Absolute function$1	PTR void  size(1) Largest target is 0
		 -> NULL(NULL[0]), 

    callback$1	PTR void  size(1) Largest target is 0
		 -> NULL(NULL[0]), 

    get_report_callback@context	PTR void  size(1) Largest target is 0
		 -> NULL(NULL[0]), 

    callback$1	PTR void  size(1) Largest target is 0
		 -> NULL(NULL[0]), 

    init_endpoints$2053	const PTR void  size(2) Largest target is 144
		 -> NULL(NULL[0]), ep_buffers(BIGRAM[144]), 

    ep0_data_stage_callback$1	PTR void  size(1) Largest target is 0
		 -> NULL(NULL[0]), 

    app_unknown_get_descriptor_callback@descriptor	PTR PTR const void  size(1) Largest target is 2
		 -> handle_standard_control_request@desc_764(BANK0[1]), 

    app_unknown_get_descriptor_callback@pkt	PTR const struct setup_packet size(2) Largest target is 144
		 -> ep_buffers(BIGRAM[144]), 

    __builtin_memcpy$1	PTR const void  size(2) Largest target is 8192
		 -> report_buf(BANK4[3]), main@curr(BANK4[3]), main@volt(BANK4[3]), FIRM_VERSION(CODE[4]), 
		 -> ROM(CODE[8192]), PRODUCT_NAME(CODE[5]), product_string(CODE[24]), vendor_string(CODE[24]), 
		 -> str00(CODE[4]), custom_report_descriptor(CODE[28]), configuration_1(CODE[41]), process_hid_setup_request@res_1039(BANK0[1]), 
		 -> process_hid_setup_request@res_1035(BANK0[1]), handle_standard_control_request@ret_776(BANK0[1]), handle_standard_control_request@ret_773(BANK0[2]), handle_standard_control_request@ret(BANK0[2]), 
		 -> this_device_descriptor(CODE[18]), g_configuration(BANK0[1]), NULL(NULL[0]), ep_buffers(BIGRAM[144]), 

    __builtin_memcpy$0	PTR void  size(2) Largest target is 144
		 -> NULL(NULL[0]), ep_buffers(BIGRAM[144]), 

    strlen@s	PTR const unsigned char  size(2) Largest target is 5
		 -> FIRM_VERSION(CODE[4]), PRODUCT_NAME(CODE[5]), 

    strlen@cp	PTR const unsigned char  size(2) Largest target is 5
		 -> FIRM_VERSION(CODE[4]), PRODUCT_NAME(CODE[5]), 

    memset@p1	PTR void  size(2) Largest target is 16
		 -> UEP0(SFR29[1]), bds(BANK0[16]), 

    memset@p	PTR unsigned char  size(2) Largest target is 16
		 -> UEP0(SFR29[1]), bds(BANK0[16]), 

    app_get_report_callback@context	PTR PTR void  size(1) Largest target is 2
		 -> process_hid_setup_request@context(BANK0[1]), 

    app_get_report_callback@callback	PTR PTR FTN(unsigned char ,PTR void ,)char  size(1) Largest target is 2
		 -> process_hid_setup_request@callback(BANK0[2]), 

    app_get_report_callback@report	PTR PTR const void  size(1) Largest target is 1
		 -> process_hid_setup_request@desc_1019(BANK0[1]), 

    app_unknown_setup_request_callback@setup	PTR const struct setup_packet size(2) Largest target is 144
		 -> ep_buffers(BIGRAM[144]), 

    main@RxDataBuffer	PTR const unsigned char  size(2) Largest target is 144
		 -> NULL(NULL[0]), ep_buffers(BIGRAM[144]), 

    main@TxDataBuffer	PTR unsigned char  size(2) Largest target is 144
		 -> NULL(NULL[0]), ep_buffers(BIGRAM[144]), 

    usb_application_get_hid_report_descriptor@ptr	PTR PTR const void  size(1) Largest target is 2
		 -> process_hid_setup_request@desc(BANK0[2]), 

    usb_application_get_hid_descriptor@ptr	PTR PTR const void  size(1) Largest target is 2
		 -> process_hid_setup_request@desc(BANK0[2]), 

    usb_application_get_hid_descriptor@p	PTR const void  size(2) Largest target is 41
		 -> configuration_1.hid(CODE[9]), configuration_1(CODE[41]), 

    usb_application_get_string@ptr	PTR PTR const void  size(1) Largest target is 2
		 -> handle_standard_control_request@desc_761(BANK0[2]), 

    process_hid_setup_request@context	PTR void  size(1) Largest target is 0
		 -> NULL(NULL[0]), 

    process_hid_setup_request@callback	PTR FTN(unsigned char ,PTR void ,)char  size(2) Largest target is 1
		 -> get_report_callback(), 

    process_hid_setup_request@desc_1019	PTR const void  size(1) Largest target is 3
		 -> report_buf(BANK4[3]), 

    process_hid_setup_request@desc	PTR const void  size(2) Largest target is 41
		 -> custom_report_descriptor(CODE[28]), configuration_1(CODE[41]), 

    process_hid_setup_request@setup	PTR const struct setup_packet size(2) Largest target is 144
		 -> ep_buffers(BIGRAM[144]), 

    usb_send_data_stage@buffer	PTR unsigned char  size(2) Largest target is 41
		 -> report_buf(BANK4[3]), custom_report_descriptor(CODE[28]), configuration_1(CODE[41]), process_hid_setup_request@res_1039(BANK0[1]), 
		 -> process_hid_setup_request@res_1035(BANK0[1]), 

    usb_send_data_stage@context	PTR void  size(1) Largest target is 0
		 -> NULL(NULL[0]), 

    usb_send_data_stage@callback	PTR FTN(unsigned char ,PTR void ,)char  size(2) Largest target is 1
		 -> get_report_callback(), Absolute function(), 

    usb_get_out_buffer@buf	PTR PTR const unsigned char  size(1) Largest target is 2
		 -> main@RxDataBuffer(BANK4[2]), 

    usb_send_in_buffer@bd	PTR struct buffer_descriptor size(1) Largest target is 16
		 -> bds(BANK0[16]), 

    sp__usb_get_in_buffer	PTR unsigned char  size(2) Largest target is 144
		 -> NULL(NULL[0]), ep_buffers(BIGRAM[144]), 

    usb_service@ep	PTR volatile struct . size(2) Largest target is 1
		 -> UEP0(SFR29[1]), 

    ep0_data_stage_context	PTR void  size(1) Largest target is 0
		 -> NULL(NULL[0]), 

    handle_ep0_setup@setup	PTR struct setup_packet size(2) Largest target is 144
		 -> ep_buffers(BIGRAM[144]), 

    handle_standard_control_request@desc_761	PTR const void  size(2) Largest target is 24
		 -> product_string(CODE[24]), vendor_string(CODE[24]), str00(CODE[4]), 

    usb_application_config_descs	PTR const struct configuration_descriptor[1] size(2) Largest target is 41
		 -> configuration_1(CODE[41]), 

    handle_standard_control_request@desc	PTR const struct configuration_descriptor size(2) Largest target is 41
		 -> configuration_1(CODE[41]), 

    handle_standard_control_request@setup	PTR struct setup_packet size(2) Largest target is 144
		 -> ep_buffers(BIGRAM[144]), 

    sp____builtin_memcpy	PTR void  size(2) Largest target is 4096
		 -> RAM(DATA[4096]), 

    start_control_return@ptr	PTR const void  size(2) Largest target is 41
		 -> report_buf(BANK4[3]), product_string(CODE[24]), vendor_string(CODE[24]), str00(CODE[4]), 
		 -> custom_report_descriptor(CODE[28]), configuration_1(CODE[41]), process_hid_setup_request@res_1039(BANK0[1]), process_hid_setup_request@res_1035(BANK0[1]), 
		 -> handle_standard_control_request@ret_776(BANK0[1]), handle_standard_control_request@ret_773(BANK0[2]), handle_standard_control_request@ret(BANK0[2]), this_device_descriptor(CODE[18]), 
		 -> g_configuration(BANK0[1]), 

    usb_init@ep	PTR volatile struct . size(2) Largest target is 1
		 -> UEP0(SFR29[1]), 

    sp__memset	PTR void  size(2) Largest target is 16
		 -> UEP0(SFR29[1]), bds(BANK0[16]), 

    ep0_data_stage_callback	PTR FTN(unsigned char ,PTR void ,)char  size(2) Largest target is 1
		 -> get_report_callback(), Absolute function(), 

    ep0_data_stage_out_buffer	PTR unsigned char  size(1) Largest target is 0
		 -> NULL(NULL[0]), 

    ep0_data_stage_in_buffer	PTR unsigned char  size(2) Largest target is 41
		 -> report_buf(BANK4[3]), product_string(CODE[24]), vendor_string(CODE[24]), str00(CODE[4]), 
		 -> custom_report_descriptor(CODE[28]), configuration_1(CODE[41]), process_hid_setup_request@res_1039(BANK0[1]), process_hid_setup_request@res_1035(BANK0[1]), 
		 -> handle_standard_control_request@ret_776(BANK0[1]), handle_standard_control_request@ret_773(BANK0[2]), handle_standard_control_request@ret(BANK0[2]), this_device_descriptor(CODE[18]), 
		 -> g_configuration(BANK0[1]), NULL(NULL[0]), 

    pic16_linear_addr@ptr	PTR void  size(2) Largest target is 144
		 -> NULL(NULL[0]), ep_buffers(BIGRAM[144]), 

    S246ep_buf$in	const PTR unsigned char  size(2) Largest target is 144
		 -> NULL(NULL[0]), ep_buffers(BIGRAM[144]), 

    ep_buf.in	const PTR unsigned char  size(2) Largest target is 144
		 -> NULL(NULL[0]), ep_buffers(BIGRAM[144]), 

    S246ep_buf$out	const PTR unsigned char  size(2) Largest target is 144
		 -> NULL(NULL[0]), ep_buffers(BIGRAM[144]), 

    ep_buf.out	const PTR unsigned char  size(2) Largest target is 144
		 -> NULL(NULL[0]), ep_buffers(BIGRAM[144]), 

    S240ep0_buf$in	const PTR unsigned char  size(2) Largest target is 144
		 -> ep_buffers(BIGRAM[144]), 

    ep0_buf.in	const PTR unsigned char  size(2) Largest target is 144
		 -> ep_buffers(BIGRAM[144]), 

    S240ep0_buf$out	const PTR unsigned char  size(2) Largest target is 144
		 -> ep_buffers(BIGRAM[144]), 

    ep0_buf.out	const PTR unsigned char  size(2) Largest target is 144
		 -> ep_buffers(BIGRAM[144]), 


Critical Paths under _main in COMMON

    None.

Critical Paths under _isr in COMMON

    _usb_service->i1_usb_init
    _handle_standard_control_request->_usb_halt_ep_in
    i1_init_endpoints->i1_pic16_linear_addr
    i1_pic16_linear_addr->i1___wmul
    _usb_halt_ep_out->i1___wmul
    _usb_halt_ep_in->_stall_ep_in
    _stall_ep_in->i1___wmul
    _start_control_return->_usb_send_in_buffer_0
    _handle_ep0_out->_get_report_callback
    _handle_ep0_in->_usb_send_in_buffer_0
    _usb_send_in_buffer_0->i1_usb_in_endpoint_halted
    i1_usb_in_endpoint_halted->i1___wmul

Critical Paths under _main in BANK0

    None.

Critical Paths under _isr in BANK0

    _usb_service->_handle_ep0_setup
    i1_usb_init->i1_init_endpoints
    _handle_ep0_setup->_app_unknown_setup_request_callback
    _handle_standard_control_request->i1_init_endpoints
    i1_init_endpoints->i1_pic16_linear_addr
    _app_unknown_setup_request_callback->_process_hid_setup_request
    _process_hid_setup_request->_usb_send_data_stage
    _usb_send_data_stage->_start_control_return
    _start_control_return->_usb_send_in_buffer_0
    _handle_ep0_in->_usb_send_in_buffer_0

Critical Paths under _main in BANK1

    _main->_usb_send_in_buffer
    _usb_send_in_buffer->_usb_in_endpoint_halted
    _usb_in_endpoint_halted->___wmul
    _usb_init->_memset
    _init_endpoints->_memset
    _init_endpoints->_pic16_linear_addr
    _pic16_linear_addr->___wmul
    _usb_get_out_buffer->___wmul
    _usb_get_in_buffer->___wmul
    _usb_arm_out_endpoint->___wmul
    _get_voltage->___awtoft
    _get_current->___awtoft
    _get_shunt_voltage->_i2c_reg_read
    _i2c_reg_read->_i2c_read_byte
    ___ftmul->___awtoft
    ___ftadd->___awtoft
    ___awtoft->___ftpack
    _dmm_init->_set_autorange_threshould
    _set_autorange_threshould->_i2c_reg_write
    _i2c_reg_write->_i2c_send_byte

Critical Paths under _isr in BANK1

    _isr->_usb_service
    _usb_service->_handle_ep0_setup

Critical Paths under _main in BANK2

    None.

Critical Paths under _isr in BANK2

    None.

Critical Paths under _main in BANK3

    _main->_get_current
    _main->_get_voltage
    _usb_send_in_buffer->_usb_in_endpoint_halted
    _usb_init->_init_endpoints
    _init_endpoints->_pic16_linear_addr
    _get_voltage->___ftadd
    _get_current->___ftadd
    _get_shunt_voltage->_i2c_reg_read
    ___ftmul->___awtoft
    ___ftadd->___ftmul
    ___awtoft->_get_shunt_voltage

Critical Paths under _isr in BANK3

    None.

Critical Paths under _main in BANK4

    _main->_get_current
    _main->_get_voltage
    _get_voltage->___ftadd
    _get_current->___ftadd

Critical Paths under _isr in BANK4

    None.

Critical Paths under _main in BANK5

    None.

Critical Paths under _isr in BANK5

    None.

Critical Paths under _main in BANK6

    None.

Critical Paths under _isr in BANK6

    None.

Critical Paths under _main in BANK7

    None.

Critical Paths under _isr in BANK7

    None.

Critical Paths under _main in BANK8

    None.

Critical Paths under _isr in BANK8

    None.

Critical Paths under _main in BANK9

    None.

Critical Paths under _isr in BANK9

    None.

Critical Paths under _main in BANK10

    None.

Critical Paths under _isr in BANK10

    None.

Critical Paths under _main in BANK11

    None.

Critical Paths under _isr in BANK11

    None.

Critical Paths under _main in BANK12

    None.

Critical Paths under _isr in BANK12

    None.

Call Graph Tables:

 ---------------------------------------------------------------------------------
 (Depth) Function   	        Calls       Base Space   Used Autos Params    Refs
 ---------------------------------------------------------------------------------
 (0) _main                                                24    24      0   80431
                                              8 BANK4     24    24      0
                           _dmm_init
                        _get_current
                        _get_voltage
                      _hardware_init
                       _i2c_reg_read
                      _i2c_reg_write
                             _strlen
               _usb_arm_out_endpoint
              _usb_get_configuration
                  _usb_get_in_buffer
                 _usb_get_out_buffer
               _usb_in_endpoint_busy
             _usb_in_endpoint_halted
                           _usb_init
          _usb_out_endpoint_has_data
                 _usb_send_in_buffer
 ---------------------------------------------------------------------------------
 (1) _usb_send_in_buffer                                  10     8      2   10949
                                             20 BANK1      2     0      2
                                              4 BANK3      8     8      0
                             ___wmul
             _usb_in_endpoint_halted
 ---------------------------------------------------------------------------------
 (2) _usb_in_endpoint_halted                               5     5      0    5249
                                             19 BANK1      1     1      0
                                              0 BANK3      4     4      0
                             ___wmul
 ---------------------------------------------------------------------------------
 (1) _usb_out_endpoint_has_data                            2     2      0      22
                                             13 BANK1      2     2      0
 ---------------------------------------------------------------------------------
 (1) _usb_init                                             5     5      0   13174
                                             25 BANK3      5     5      0
                     _init_endpoints
                             _memset
               _reset_ep0_data_stage
 ---------------------------------------------------------------------------------
 (2) _reset_ep0_data_stage                                 0     0      0       0
 ---------------------------------------------------------------------------------
 (2) _init_endpoints                                       9     9      0   12287
                                             16 BANK3      9     9      0
                             ___wmul
                             _memset
                  _pic16_linear_addr
 ---------------------------------------------------------------------------------
 (3) _pic16_linear_addr                                   18    16      2    5894
                                             19 BANK1      2     0      2
                                              0 BANK3     16    16      0
                             ___wmul
 ---------------------------------------------------------------------------------
 (2) _memset                                               8     2      6     630
                                             13 BANK1      8     2      6
 ---------------------------------------------------------------------------------
 (1) _usb_in_endpoint_busy                                 2     2      0      22
                                             13 BANK1      2     2      0
 ---------------------------------------------------------------------------------
 (1) _usb_get_out_buffer                                   6     5      1    5391
                                             19 BANK1      2     1      1
                                              0 BANK3      4     4      0
                             ___wmul
 ---------------------------------------------------------------------------------
 (1) _usb_get_in_buffer                                    5     5      0    5249
                                             19 BANK1      1     1      0
                                              0 BANK3      4     4      0
                             ___wmul
 ---------------------------------------------------------------------------------
 (1) _usb_get_configuration                                0     0      0       0
 ---------------------------------------------------------------------------------
 (1) _usb_arm_out_endpoint                                 8     8      0    5500
                                             19 BANK1      2     2      0
                                              0 BANK3      6     6      0
                             ___wmul
 ---------------------------------------------------------------------------------
 (3) ___wmul                                               6     2      4    5218
                                             13 BANK1      6     2      4
 ---------------------------------------------------------------------------------
 (1) _strlen                                               5     3      2     268
                                             13 BANK1      5     3      2
 ---------------------------------------------------------------------------------
 (1) _hardware_init                                        0     0      0       0
 ---------------------------------------------------------------------------------
 (1) _get_voltage                                          6     3      3   15822
                                             41 BANK3      1     1      0
                                              3 BANK4      5     2      3
                           ___awtoft
                            ___ftadd
                            ___ftmul
                  _get_shunt_voltage
 ---------------------------------------------------------------------------------
 (1) _get_current                                          6     3      3   15822
                                             41 BANK3      1     1      0
                                              3 BANK4      5     2      3
                           ___awtoft
                            ___ftadd
                            ___ftmul
                  _get_shunt_voltage
 ---------------------------------------------------------------------------------
 (2) _get_shunt_voltage                                    7     5      2     229
                                              3 BANK3      7     5      2
                       _i2c_reg_read
 ---------------------------------------------------------------------------------
 (1) _i2c_reg_read                                         8     6      2     164
                                             16 BANK1      5     3      2
                                              0 BANK3      3     3      0
                      _i2c_read_byte
                   _i2c_repeat_start
                      _i2c_send_byte
                          _i2c_start
                           _i2c_stop
 ---------------------------------------------------------------------------------
 (2) _i2c_repeat_start                                     0     0      0       0
                           _i2c_wait
 ---------------------------------------------------------------------------------
 (2) _i2c_read_byte                                        3     3      0      65
                                             13 BANK1      3     3      0
                           _i2c_wait
 ---------------------------------------------------------------------------------
 (2) ___ftmul                                             16    10      6    5125
                                             15 BANK3     16    10      6
                           ___awtoft (ARG)
                           ___ftpack
                  _get_shunt_voltage (ARG)
 ---------------------------------------------------------------------------------
 (2) ___ftadd                                             13     7      6    6024
                                             31 BANK3     10     4      6
                                              0 BANK4      3     3      0
                           ___awtoft (ARG)
                            ___ftmul (ARG)
                           ___ftpack
                  _get_shunt_voltage (ARG)
 ---------------------------------------------------------------------------------
 (2) ___awtoft                                             6     3      3    4348
                                             21 BANK1      1     1      0
                                             10 BANK3      5     2      3
                           ___ftpack
                  _get_shunt_voltage (ARG)
 ---------------------------------------------------------------------------------
 (3) ___ftpack                                             8     3      5    3799
                                             13 BANK1      8     3      5
 ---------------------------------------------------------------------------------
 (1) _dmm_init                                             0     0      0     540
                         _i2c_enable
           _set_autorange_threshould
 ---------------------------------------------------------------------------------
 (2) _set_autorange_threshould                             2     2      0     540
                                             17 BANK1      2     2      0
                      _i2c_reg_write
 ---------------------------------------------------------------------------------
 (1) _i2c_reg_write                                        3     1      2     540
                                             14 BANK1      3     1      2
                      _i2c_send_byte
                          _i2c_start
                           _i2c_stop
 ---------------------------------------------------------------------------------
 (2) _i2c_stop                                             0     0      0       0
                           _i2c_wait
 ---------------------------------------------------------------------------------
 (2) _i2c_start                                            0     0      0       0
                           _i2c_wait
 ---------------------------------------------------------------------------------
 (2) _i2c_send_byte                                        1     1      0      31
                                             13 BANK1      1     1      0
                           _i2c_wait
 ---------------------------------------------------------------------------------
 (3) _i2c_wait                                             0     0      0       0
 ---------------------------------------------------------------------------------
 (2) _i2c_enable                                           0     0      0       0
 ---------------------------------------------------------------------------------
 Estimated maximum stack depth 3
 ---------------------------------------------------------------------------------
 (Depth) Function   	        Calls       Base Space   Used Autos Params    Refs
 ---------------------------------------------------------------------------------
 (6) _isr                                                  0     0      0   33138
                        _usb_service
 ---------------------------------------------------------------------------------
 (7) _usb_service                                         10    10      0   33138
                                              3 BANK1     10    10      0
_app_in_transaction_complete_callbac
       _app_out_transaction_callback
        _app_start_of_frame_callback
             _app_usb_reset_callback
                      _handle_ep0_in
                     _handle_ep0_out
                   _handle_ep0_setup
                      _reset_bd0_out
                          _stall_ep0
                        _stall_ep_in
                       _stall_ep_out
                           i1___wmul
                         i1_usb_init
 ---------------------------------------------------------------------------------
 (8) i1_usb_init                                           5     5      0    3507
                                             12 COMMON     2     2      0
                                             21 BANK0      3     3      0
                   i1_init_endpoints
                           i1_memset
             i1_reset_ep0_data_stage
 ---------------------------------------------------------------------------------
 (8) _reset_bd0_out                                        1     1      0       0
                                              0 COMMON     1     1      0
 ---------------------------------------------------------------------------------
 (8) _handle_ep0_setup                                     4     4      0   24126
                                             61 BANK0      1     1      0
                                              0 BANK1      3     3      0
                   Absolute function *
 _app_unknown_setup_request_callback
                    _clear_ep0_stall
                _get_report_callback *
    _handle_standard_control_request
                          _stall_ep0
             i1_reset_ep0_data_stage
 ---------------------------------------------------------------------------------
 (9) _handle_standard_control_request                     34    34      0   14489
                                             21 BANK0     34    34      0
         _app_endpoint_halt_callback
     _app_get_device_status_callback
         _app_get_interface_callback
     _app_set_configuration_callback
         _app_set_interface_callback
_app_unknown_get_descriptor_callback
        _send_zero_length_packet_ep0
                          _stall_ep0
               _start_control_return
         _usb_application_get_string
                     _usb_halt_ep_in
                    _usb_halt_ep_out
                           i1___wmul
                   i1_init_endpoints
 ---------------------------------------------------------------------------------
 (9) i1_init_endpoints                                     9     9      0    3076
                                             12 BANK0      9     9      0
                           i1___wmul
                           i1_memset
                i1_pic16_linear_addr
 ---------------------------------------------------------------------------------
 (10) i1_pic16_linear_addr                                18    16      2    1364
                                              6 COMMON     6     4      2
                                              0 BANK0     12    12      0
                           i1___wmul
 ---------------------------------------------------------------------------------
 (9) i1_memset                                             8     2      6     252
                                              0 COMMON     8     2      6
 ---------------------------------------------------------------------------------
 (10) _usb_halt_ep_out                                     5     5      0    1212
                                              6 COMMON     5     5      0
                       _stall_ep_out
                           i1___wmul
 ---------------------------------------------------------------------------------
 (8) _stall_ep_out                                         3     3      0      44
                                              0 COMMON     3     3      0
 ---------------------------------------------------------------------------------
 (10) _usb_halt_ep_in                                      5     5      0    2314
                                             13 COMMON     1     1      0
                                              0 BANK0      4     4      0
                        _stall_ep_in
                           i1___wmul
 ---------------------------------------------------------------------------------
 (8) _stall_ep_in                                          7     7      0    1146
                                              6 COMMON     7     7      0
                           i1___wmul
 ---------------------------------------------------------------------------------
 (10) _usb_application_get_string                          4     1      3     243
                                              0 COMMON     4     1      3
 ---------------------------------------------------------------------------------
 (10) _app_unknown_get_descriptor_callback                 3     0      3     178
                                              0 COMMON     3     0      3
 ---------------------------------------------------------------------------------
 (10) _app_set_interface_callback                          2     1      1      89
                                              0 COMMON     1     0      1
 ---------------------------------------------------------------------------------
 (10) _app_set_configuration_callback                      1     1      0       0
 ---------------------------------------------------------------------------------
 (10) _app_get_interface_callback                          1     1      0       0
 ---------------------------------------------------------------------------------
 (10) _app_get_device_status_callback                      2     0      2       0
                                              0 COMMON     2     0      2
 ---------------------------------------------------------------------------------
 (10) _app_endpoint_halt_callback                          2     1      1      89
                                              0 COMMON     1     0      1
 ---------------------------------------------------------------------------------
 (9) _clear_ep0_stall                                      1     1      0       0
                                              0 COMMON     1     1      0
 ---------------------------------------------------------------------------------
 (9) _app_unknown_setup_request_callback                   2     0      2    8884
                                             59 BANK0      2     0      2
          _process_hid_setup_request
 ---------------------------------------------------------------------------------
 (10) _process_hid_setup_request                          35    33      2    8773
                                             24 BANK0     35    33      2
              _app_get_idle_callback
          _app_get_protocol_callback
            _app_get_report_callback
              _app_set_idle_callback
          _app_set_protocol_callback
            _app_set_report_callback
 _usb_application_get_hid_descriptor
_usb_application_get_hid_report_desc
                _usb_send_data_stage
 ---------------------------------------------------------------------------------
 (11) _usb_send_data_stage                                 8     1      7    5865
                                             16 BANK0      8     1      7
               _start_control_return
 ---------------------------------------------------------------------------------
 (10) _start_control_return                               15     9      6    4331
                                              1 BANK0     15     9      6
               _usb_send_in_buffer_0
 ---------------------------------------------------------------------------------
 (11) _usb_application_get_hid_report_descriptor           4     1      3     111
                                              0 COMMON     3     0      3
 ---------------------------------------------------------------------------------
 (11) _usb_application_get_hid_descriptor                  6     3      3     134
                                              0 COMMON     5     2      3
 ---------------------------------------------------------------------------------
 (11) _app_set_report_callback                             3     1      2     178
                                              0 COMMON     2     0      2
 ---------------------------------------------------------------------------------
 (11) _app_set_protocol_callback                           2     1      1      89
                                              0 COMMON     1     0      1
 ---------------------------------------------------------------------------------
 (11) _app_set_idle_callback                               3     1      2     178
                                              0 COMMON     2     0      2
 ---------------------------------------------------------------------------------
 (11) _app_get_report_callback                             7     2      5     511
                                              0 COMMON     6     1      5
 ---------------------------------------------------------------------------------
 (11) _app_get_protocol_callback                           1     1      0       0
 ---------------------------------------------------------------------------------
 (11) _app_get_idle_callback                               2     1      1      89
                                              0 COMMON     1     0      1
 ---------------------------------------------------------------------------------
 (8) _handle_ep0_out                                       7     7      0     866
                                              2 COMMON     7     7      0
                   Absolute function *
                _get_report_callback *
        _send_zero_length_packet_ep0
                          _stall_ep0
             i1_reset_ep0_data_stage
 ---------------------------------------------------------------------------------
 (8) _stall_ep0                                            1     1      0       0
                                              0 COMMON     1     1      0
 ---------------------------------------------------------------------------------
 (10) _send_zero_length_packet_ep0                         1     1      0       0
                                              0 COMMON     1     1      0
 ---------------------------------------------------------------------------------
 (8) _handle_ep0_in                                        5     5      0    2211
                                              1 BANK0      5     5      0
                   Absolute function *
                _get_report_callback *
               _usb_send_in_buffer_0
             i1_reset_ep0_data_stage
 ---------------------------------------------------------------------------------
 (9) i1_reset_ep0_data_stage                               0     0      0       0
 ---------------------------------------------------------------------------------
 (11) _usb_send_in_buffer_0                                4     2      2    1436
                                             11 COMMON     3     1      2
                                              0 BANK0      1     1      0
           i1_usb_in_endpoint_halted
 ---------------------------------------------------------------------------------
 (12) i1_usb_in_endpoint_halted                            5     5      0    1102
                                              6 COMMON     5     5      0
                           i1___wmul
 ---------------------------------------------------------------------------------
 (11) i1___wmul                                            6     2      4    1080
                                              0 COMMON     6     2      4
 ---------------------------------------------------------------------------------
 (9) _get_report_callback                                  2     0      2     640
                                              0 COMMON     2     0      2
 ---------------------------------------------------------------------------------
 (9) Absolute function(Fake)                               2     0      2       0
 ---------------------------------------------------------------------------------
 (8) _app_usb_reset_callback                               0     0      0       0
 ---------------------------------------------------------------------------------
 (8) _app_start_of_frame_callback                          0     0      0       0
 ---------------------------------------------------------------------------------
 (8) _app_out_transaction_callback                         1     1      0       0
 ---------------------------------------------------------------------------------
 (8) _app_in_transaction_complete_callback                 1     1      0       0
 ---------------------------------------------------------------------------------
 Estimated maximum stack depth 12
 ---------------------------------------------------------------------------------

 Call Graph Graphs:

 _main (ROOT)
   _dmm_init
     _i2c_enable
     _set_autorange_threshould
       _i2c_reg_write
         _i2c_send_byte
           _i2c_wait
         _i2c_start
           _i2c_wait
         _i2c_stop
           _i2c_wait
   _get_current
     ___awtoft
       ___ftpack
       _get_shunt_voltage (ARG)
         _i2c_reg_read
           _i2c_read_byte
             _i2c_wait
           _i2c_repeat_start
             _i2c_wait
           _i2c_send_byte
             _i2c_wait
           _i2c_start
             _i2c_wait
           _i2c_stop
             _i2c_wait
     ___ftadd
       ___awtoft (ARG)
         ___ftpack
         _get_shunt_voltage (ARG)
           _i2c_reg_read
             _i2c_read_byte
               _i2c_wait
             _i2c_repeat_start
               _i2c_wait
             _i2c_send_byte
               _i2c_wait
             _i2c_start
               _i2c_wait
             _i2c_stop
               _i2c_wait
       ___ftmul (ARG)
         ___awtoft (ARG)
           ___ftpack
           _get_shunt_voltage (ARG)
             _i2c_reg_read
               _i2c_read_byte
                 _i2c_wait
               _i2c_repeat_start
                 _i2c_wait
               _i2c_send_byte
                 _i2c_wait
               _i2c_start
                 _i2c_wait
               _i2c_stop
                 _i2c_wait
         ___ftpack (ARG)
         _get_shunt_voltage (ARG)
           _i2c_reg_read
             _i2c_read_byte
               _i2c_wait
             _i2c_repeat_start
               _i2c_wait
             _i2c_send_byte
               _i2c_wait
             _i2c_start
               _i2c_wait
             _i2c_stop
               _i2c_wait
       ___ftpack (ARG)
       _get_shunt_voltage (ARG)
         _i2c_reg_read
           _i2c_read_byte
             _i2c_wait
           _i2c_repeat_start
             _i2c_wait
           _i2c_send_byte
             _i2c_wait
           _i2c_start
             _i2c_wait
           _i2c_stop
             _i2c_wait
     ___ftmul
       ___awtoft (ARG)
         ___ftpack
         _get_shunt_voltage (ARG)
           _i2c_reg_read
             _i2c_read_byte
               _i2c_wait
             _i2c_repeat_start
               _i2c_wait
             _i2c_send_byte
               _i2c_wait
             _i2c_start
               _i2c_wait
             _i2c_stop
               _i2c_wait
       ___ftpack (ARG)
       _get_shunt_voltage (ARG)
         _i2c_reg_read
           _i2c_read_byte
             _i2c_wait
           _i2c_repeat_start
             _i2c_wait
           _i2c_send_byte
             _i2c_wait
           _i2c_start
             _i2c_wait
           _i2c_stop
             _i2c_wait
     _get_shunt_voltage
       _i2c_reg_read
         _i2c_read_byte
           _i2c_wait
         _i2c_repeat_start
           _i2c_wait
         _i2c_send_byte
           _i2c_wait
         _i2c_start
           _i2c_wait
         _i2c_stop
           _i2c_wait
   _get_voltage
     ___awtoft
       ___ftpack
       _get_shunt_voltage (ARG)
         _i2c_reg_read
           _i2c_read_byte
             _i2c_wait
           _i2c_repeat_start
             _i2c_wait
           _i2c_send_byte
             _i2c_wait
           _i2c_start
             _i2c_wait
           _i2c_stop
             _i2c_wait
     ___ftadd
       ___awtoft (ARG)
         ___ftpack
         _get_shunt_voltage (ARG)
           _i2c_reg_read
             _i2c_read_byte
               _i2c_wait
             _i2c_repeat_start
               _i2c_wait
             _i2c_send_byte
               _i2c_wait
             _i2c_start
               _i2c_wait
             _i2c_stop
               _i2c_wait
       ___ftmul (ARG)
         ___awtoft (ARG)
           ___ftpack
           _get_shunt_voltage (ARG)
             _i2c_reg_read
               _i2c_read_byte
                 _i2c_wait
               _i2c_repeat_start
                 _i2c_wait
               _i2c_send_byte
                 _i2c_wait
               _i2c_start
                 _i2c_wait
               _i2c_stop
                 _i2c_wait
         ___ftpack (ARG)
         _get_shunt_voltage (ARG)
           _i2c_reg_read
             _i2c_read_byte
               _i2c_wait
             _i2c_repeat_start
               _i2c_wait
             _i2c_send_byte
               _i2c_wait
             _i2c_start
               _i2c_wait
             _i2c_stop
               _i2c_wait
       ___ftpack (ARG)
       _get_shunt_voltage (ARG)
         _i2c_reg_read
           _i2c_read_byte
             _i2c_wait
           _i2c_repeat_start
             _i2c_wait
           _i2c_send_byte
             _i2c_wait
           _i2c_start
             _i2c_wait
           _i2c_stop
             _i2c_wait
     ___ftmul
       ___awtoft (ARG)
         ___ftpack
         _get_shunt_voltage (ARG)
           _i2c_reg_read
             _i2c_read_byte
               _i2c_wait
             _i2c_repeat_start
               _i2c_wait
             _i2c_send_byte
               _i2c_wait
             _i2c_start
               _i2c_wait
             _i2c_stop
               _i2c_wait
       ___ftpack (ARG)
       _get_shunt_voltage (ARG)
         _i2c_reg_read
           _i2c_read_byte
             _i2c_wait
           _i2c_repeat_start
             _i2c_wait
           _i2c_send_byte
             _i2c_wait
           _i2c_start
             _i2c_wait
           _i2c_stop
             _i2c_wait
     _get_shunt_voltage
       _i2c_reg_read
         _i2c_read_byte
           _i2c_wait
         _i2c_repeat_start
           _i2c_wait
         _i2c_send_byte
           _i2c_wait
         _i2c_start
           _i2c_wait
         _i2c_stop
           _i2c_wait
   _hardware_init
   _i2c_reg_read
     _i2c_read_byte
       _i2c_wait
     _i2c_repeat_start
       _i2c_wait
     _i2c_send_byte
       _i2c_wait
     _i2c_start
       _i2c_wait
     _i2c_stop
       _i2c_wait
   _i2c_reg_write
     _i2c_send_byte
       _i2c_wait
     _i2c_start
       _i2c_wait
     _i2c_stop
       _i2c_wait
   _strlen
   _usb_arm_out_endpoint
     ___wmul
   _usb_get_configuration
   _usb_get_in_buffer
     ___wmul
   _usb_get_out_buffer
     ___wmul
   _usb_in_endpoint_busy
   _usb_in_endpoint_halted
     ___wmul
   _usb_init
     _init_endpoints
       ___wmul
       _memset
       _pic16_linear_addr
         ___wmul
     _memset
     _reset_ep0_data_stage
   _usb_out_endpoint_has_data
   _usb_send_in_buffer
     ___wmul
     _usb_in_endpoint_halted
       ___wmul

 _isr (ROOT)
   _usb_service
     _app_in_transaction_complete_callback
     _app_out_transaction_callback
     _app_start_of_frame_callback
     _app_usb_reset_callback
     _handle_ep0_in
       Absolute function(Fake) *
       _get_report_callback *
       _usb_send_in_buffer_0 *
         i1_usb_in_endpoint_halted
           i1___wmul
       i1_reset_ep0_data_stage *
     _handle_ep0_out
       Absolute function(Fake) *
       _get_report_callback *
       _send_zero_length_packet_ep0 *
       _stall_ep0 *
       i1_reset_ep0_data_stage *
     _handle_ep0_setup
       Absolute function(Fake) *
       _app_unknown_setup_request_callback *
         _process_hid_setup_request
           _app_get_idle_callback
           _app_get_protocol_callback
           _app_get_report_callback
           _app_set_idle_callback
           _app_set_protocol_callback
           _app_set_report_callback
           _usb_application_get_hid_descriptor
           _usb_application_get_hid_report_descriptor
           _usb_send_data_stage
             _start_control_return
               _usb_send_in_buffer_0
                 i1_usb_in_endpoint_halted
                   i1___wmul
       _clear_ep0_stall *
       _get_report_callback *
       _handle_standard_control_request *
         _app_endpoint_halt_callback
         _app_get_device_status_callback
         _app_get_interface_callback
         _app_set_configuration_callback
         _app_set_interface_callback
         _app_unknown_get_descriptor_callback
         _send_zero_length_packet_ep0
         _stall_ep0
         _start_control_return
           _usb_send_in_buffer_0
             i1_usb_in_endpoint_halted
               i1___wmul
         _usb_application_get_string
         _usb_halt_ep_in
           _stall_ep_in
             i1___wmul
           i1___wmul
         _usb_halt_ep_out
           _stall_ep_out
           i1___wmul
         i1___wmul
         i1_init_endpoints
           i1___wmul
           i1_memset
           i1_pic16_linear_addr
             i1___wmul
       _stall_ep0 *
       i1_reset_ep0_data_stage *
     _reset_bd0_out
     _stall_ep0
     _stall_ep_in
       i1___wmul
     _stall_ep_out
     i1___wmul
     i1_usb_init
       i1_init_endpoints
         i1___wmul
         i1_memset
         i1_pic16_linear_addr
           i1___wmul
       i1_memset
       i1_reset_ep0_data_stage

 Address spaces:
Name               Size   Autos  Total    Cost      Usage
BIGRAM             3F0      0       0       0        0.0%
NULL                 0      0       0       0        0.0%
CODE                 0      0       0       0        0.0%
BITCOMMON            E      0       0       1        0.0%
BITSFR0              0      0       0       1        0.0%
SFR0                 0      0       0       1        0.0%
COMMON               E      E       E       2      100.0%
BITSFR1              0      0       0       2        0.0%
SFR1                 0      0       0       2        0.0%
BITSFR2              0      0       0       3        0.0%
SFR2                 0      0       0       3        0.0%
STACK                0      0       0       3        0.0%
BITBANK0            40      0       0       4        0.0%
BITSFR3              0      0       0       4        0.0%
SFR3                 0      0       0       4        0.0%
BANK0               40     3E      40       5      100.0%
BITSFR4              0      0       0       5        0.0%
SFR4                 0      0       0       5        0.0%
BITBANK1            50      0       0       6        0.0%
BITSFR5              0      0       0       6        0.0%
SFR5                 0      0       0       6        0.0%
BANK1               30     16      23       7       72.9%
BITSFR6              0      0       0       7        0.0%
SFR6                 0      0       0       7        0.0%
BITBANK2            50      0       0       8        0.0%
BITSFR7              0      0       0       8        0.0%
SFR7                 0      0       0       8        0.0%
BITSFR8              0      0       0       9        0.0%
SFR8                 0      0       0       9        0.0%
BANK2                0      0       0       9        0.0%
BITBANK3            50      0       0      10        0.0%
BITSFR9              0      0       0      10        0.0%
SFR9                 0      0       0      10        0.0%
BANK3               30     2A      30      11      100.0%
BITSFR10             0      0       0      11        0.0%
SFR10                0      0       0      11        0.0%
BITBANK4            50      0       0      12        0.0%
BITSFR11             0      0       0      12        0.0%
SFR11                0      0       0      12        0.0%
BANK4               50     20      49      13       91.3%
BITSFR12             0      0       0      13        0.0%
SFR12                0      0       0      13        0.0%
BITBANK5            50      0       0      14        0.0%
BITSFR13             0      0       0      14        0.0%
SFR13                0      0       0      14        0.0%
BANK5               50      0       0      15        0.0%
BITSFR14             0      0       0      15        0.0%
SFR14                0      0       0      15        0.0%
BITBANK6            50      0       0      16        0.0%
BITSFR15             0      0       0      16        0.0%
SFR15                0      0       0      16        0.0%
BANK6               50      0       0      17        0.0%
BITSFR16             0      0       0      17        0.0%
SFR16                0      0       0      17        0.0%
BITBANK7            50      0       0      18        0.0%
BITSFR17             0      0       0      18        0.0%
SFR17                0      0       0      18        0.0%
BANK7               50      0       0      19        0.0%
BITSFR18             0      0       0      19        0.0%
SFR18                0      0       0      19        0.0%
BITSFR19             0      0       0      20        0.0%
SFR19                0      0       0      20        0.0%
ABS                  0      0      EA      20        0.0%
BITBANK8            50      0       0      21        0.0%
BITSFR20             0      0       0      21        0.0%
SFR20                0      0       0      21        0.0%
BANK8               50      0       0      22        0.0%
BITSFR21             0      0       0      22        0.0%
SFR21                0      0       0      22        0.0%
BITBANK9            50      0       0      23        0.0%
BITSFR22             0      0       0      23        0.0%
SFR22                0      0       0      23        0.0%
BANK9               50      0       0      24        0.0%
BITSFR23             0      0       0      24        0.0%
SFR23                0      0       0      24        0.0%
BITBANK10           50      0       0      25        0.0%
BITSFR24             0      0       0      25        0.0%
SFR24                0      0       0      25        0.0%
BANK10              50      0       0      26        0.0%
BITSFR25             0      0       0      26        0.0%
SFR25                0      0       0      26        0.0%
BITBANK11           50      0       0      27        0.0%
BITSFR26             0      0       0      27        0.0%
SFR26                0      0       0      27        0.0%
BANK11              50      0       0      28        0.0%
BITSFR27             0      0       0      28        0.0%
SFR27                0      0       0      28        0.0%
BITBANK12           30      0       0      29        0.0%
BITSFR28             0      0       0      29        0.0%
SFR28                0      0       0      29        0.0%
BANK12              30      0       0      30        0.0%
BITSFR29             0      0       0      30        0.0%
SFR29                0      0       0      30        0.0%
BITSFR30             0      0       0      31        0.0%
SFR30                0      0       0      31        0.0%
DATA                 0      0      EA      31        0.0%
BITSFR31             0      0       0      32        0.0%
SFR31                0      0       0      32        0.0%


Microchip Technology PIC Macro Assembler V2.10 build 88905656 
Symbol Table                                                                                   Tue Jan 07 10:19:27 2020

                                       _stall_ep_in 1131                             usb_arm_out_endpoint@pid 00B3  
                     __end_ofattribute@FIRM_VERSION 18AD                                        _stall_ep_out 1F01  
                               ??_pic16_linear_addr 01C0                          ??i1_usb_in_endpoint_halted 0076  
                                       __CFG_CP$OFF 0000                            get_shunt_voltage@regAddr 01C7  
                                                l43 1F34                                                  l44 1F36  
                app_set_report_callback@report_type 0070                  app_get_report_callback@report_type 0070  
                              _usb_in_endpoint_busy 1E0E                                        ?_get_voltage 0223  
                               ___wmul@multiplicand 00AF                                    i1___wmul@product 0074  
                            ??_start_control_return 0037                                        ___ftadd@exp1 0222  
                                      ___ftadd@exp2 0221                                         _usb_service 0944  
                                      ___ftadd@sign 0220  usb_application_get_hid_report_descriptor@interface 0070  
                                               l850 1ED1                                                 _UIE 0E92  
                                               _UIR 0E90                                                 _bds 0020  
                    __size_of_usb_get_configuration 0003                        ?_app_start_of_frame_callback 0070  
                                               _isr 0204                       __end_of_usb_get_configuration 1D63  
                                      __CFG_BORV$LO 0000                                                 wreg 0009  
                             _NVM_LOW_CURRENT_SLOPE 1F80                                      _usb_halt_ep_in 1029  
                    __end_ofi1_reset_ep0_data_stage 1DC0              __end_of_app_set_configuration_callback 0800  
           __size_of_app_set_configuration_callback 0001                      _app_set_configuration_callback 07FF  
                                      __CFG_LVP$OFF 0000                                                l1070 13B7  
                                              l1062 139C                                                l1083 0AA1  
                                              l1084 0AA6                                                l1069 13AF  
                                              l1093 0B09                                                l5201 0623  
                                              l5211 066F                                                l4341 1E4D  
                                              l5037 1332                                                l5221 06B6  
                                              l5143 17BF                                                l4343 1E59  
                                              l5215 068B                                                l5207 064E  
                                              l5251 0749                                                l5171 0598  
                                              l3469 07EB                                                l5253 076F  
                                              l5245 073A                                                l5237 070F  
                                              l5229 06E4                                                l5159 1717  
                                              l5079 1422                                                l5247 0742  
                                              l5097 08DB                                                l5257 0782  
                                              l5265 07A7                                                l5273 07BB  
                                              l5267 07B4                                                l5259 078C  
                                              l5275 07C3                                                l5179 05B7  
                                              l4733 1ECB                                                l4805 0CBB  
                                              l5277 07D9                                                l5197 0611  
                                              l4903 0ACF                                                l4751 1264  
                                              l4831 0D2E                                                l5279 07E2  
                                              l4921 0B1C                                                l4905 0ADB  
                         __end_of_pic16_linear_addr 12AA                                                l5473 0754  
                                              l4915 0AF9                                                l4907 0AE0  
                                              l5475 0762                                                l4693 1D9B  
                                              l4773 1379                                                l4925 0B30  
                                              l4917 0B05                                                l4909 0AE4  
                                              l5477 0767                                                l4775 1383  
                                              l4935 0B4E                                                l4951 1634  
                                              l5479 07AC                                                l4785 13AD  
                                              l4777 1388                                                l4769 1372  
                                              l4865 10DC                                                l4945 161E  
                                              l4787 13A1                                                l4875 0A7B  
                                              ?_isr 0070                                                l4885 0A96  
                                              l4981 1673                                                l4973 165F  
                                              l4879 0A83                                                l4897 0ABA  
                                              l4985 167B                                                l4969 1657  
                                              _LATC 010E                                         main@regAddr 023A  
                                              u5015 13A8                                                u5105 0DA2  
                              _ep0_data_stage_direc 00BC                                                u5115 0DDE  
                                              u5125 0E11                                                u5055 13BE  
                                              u5135 0E1E                                                u5315 0AE5  
                                              u5085 0D60                                                u4605 1E24  
                            _usb_in_endpoint_halted 1004                                                u5255 0ABB  
                                              u5095 0D93                                                u5345 0AFA  
                                              u5425 1660                                                u5530 140C  
                                              u5435 1666                                                u5540 140D  
                                              u5285 0AD0                                                u5605 08D6  
                                              u5525 13DF                                                u5615 0903  
                                              u5560 0895                                                u5465 167C  
                                              u4905 1ED7                                                u5625 0914  
                                              u5570 0896                                                u4930 1285  
                                              u5475 1682                                                u5635 176E  
                                              u4595 1E13                                                u4940 1286  
                                              u5645 177C                                                u5655 16C6  
                                              u5665 16D4                                                u5595 08C5  
                                              u4975 137E                                                u4895 1ED2  
                                              u4995 1397                                                _UEP0 0E98  
                                              _UEIE 0E97                      __end_of_NVM_HIGH_CURRENT_SLOPE 1F89  
                                              _WPUA 020C                                         main@pcktLen 0234  
                                       main@pcktVer 0233                                        __CFG_WRT$OFF 0000  
                                              _addr 00C0                                       _i2c_read_byte 1F1E  
                                              _main 058D                                        ___ftpack@arg 00AD  
                                      ___ftpack@exp 00B0                                                fsr0h 0005  
                                              fsr1h 0007                                                indf0 0000  
                                              fsr0l 0004                                                indf1 0001  
                                              fsr1l 0006                                                btemp 007E  
           process_hid_setup_request@report_id_1032 0056             process_hid_setup_request@report_id_1034 0058  
           process_hid_setup_request@report_id_1037 005B                                       __CFG_BOREN$ON 0000  
                            _NVM_LOW_CURRENT_OFFSET 1F83                                                start 020A  
                     __size_of_usb_arm_out_endpoint 00D6                                       __CFG_IESO$OFF 0000  
                                     ?_i2c_reg_read 00B0                                       _i2c_reg_write 1EAE  
                                 ?_i2c_repeat_start 0070                                       __CFG_MCLRE$ON 0000  
                                      ___ftmul@cntr 01DD                                     _usb_halt_ep_out 1F5A  
                                      ___ftmul@sign 01DE                                          i1_usb_init 12AA  
                                     _i2c_send_byte 1DA3                                   handle_ep0_out@res 0076  
                    __p_NVM_LOW_CURRENT_OFFSET_text 1F83                                  ??_i2c_repeat_start 00AD  
                      __size_of_get_report_callback 0002                                       __CFG_LPBOR$ON 0000  
                             ?_usb_in_endpoint_busy 0070                                               ??_isr 007E  
                                 i1init_endpoints@i 0044                                               ?_main 0070  
                                   __end_of___ftadd 0B76                     __end_of_NVM_HIGH_CURRENT_OFFSET 1F8C  
                                     __CFG_WDTE$OFF 0000                                     __end_of___ftmul 16B0  
                                             i1l303 0588                                               i1l305 0464  
                                             i1l250 1466                                               i1l254 1481  
                                             i1l335 124B                                               i1l348 15A7  
                                             i1l380 0A43                                               i1l366 1505  
                                             i1l383 09A8                                               i1l377 097B  
                                             i1l388 0A41                                               i1l850 1E80  
                        ?_usb_out_endpoint_has_data 0070                                               _UADDR 0E96  
                                   ??_hardware_init 00AD                              __end_of_usb_halt_ep_in 104F  
                                             u573m0 0649                                               u574m0 0686  
                                             u575m0 06B1                                               u576m0 070A  
                                             _PORTC 000E                                               u577m0 0735  
                                             u578m0 07D5                                               _TRISC 008E  
                    app_set_idle_callback@idle_rate 0071                                          i1memset@p1 0070  
                                    __CFG_FCMEN$OFF 0000                       ??_app_start_of_frame_callback 0070  
                                     ___awtoft@sign 00B5                      _NVM_LOW_VOLTAGE_OFFSET_absaddr 1F8F  
                                             _str00 18B1                                  _usb_send_in_buffer 13CE  
                                     ___ftpack@sign 00B1                                               pclath 000A  
                                  __end_ofi1___wmul 1E93                     _NVM_HIGH_VOLTAGE_OFFSET_absaddr 1F95  
                                    ?_i2c_read_byte 0070                       __p_NVM_LOW_CURRENT_SLOPE_text 1F80  
                      __size_ofi1_pic16_linear_addr 004D                          usb_send_data_stage@context 0046  
                                             status 0003                                 i1___wmul@multiplier 0070  
                                             wtemp0 007E        usb_application_get_hid_report_descriptor@ptr 0070  
               __size_of_app_endpoint_halt_callback 0001                                    __end_ofi1_memset 1E78  
                 start_control_return@bytes_to_send 003F                                      ??_i2c_reg_read 00B2  
                               ?_usb_send_in_buffer 00B4                          usb_get_out_buffer@endpoint 00B4  
                    app_set_idle_callback@interface 0070                                      ?_i2c_reg_write 00AE  
                                        _i2c_enable 1D77                               handle_ep0_out@pkt_len 0077  
                          __end_ofi1_init_endpoints 0CB6                                      ?_i2c_send_byte 0070  
                                   __initialization 020C                      _NVM_LOW_CURRENT_OFFSET_absaddr 1F83  
              process_hid_setup_request@report_type 0053                                        __end_of_main 07E7  
                   _NVM_HIGH_CURRENT_OFFSET_absaddr 1F89                                    __end_of_i2c_wait 1DA3  
                         usb_get_in_buffer@endpoint 00B3                                    __end_of_i2c_stop 1D72  
                    app_set_idle_callback@report_id 0070                         __end_of_NVM_PRODUCT_SERIAL0 1FFC  
                       __end_of_NVM_PRODUCT_SERIAL1 2000                                              ??_main 0228  
                     process_hid_setup_request@desc 0068                               handle_ep0_setup@setup 00A1  
                               _usb_send_data_stage 1EE4                                ??_usb_send_in_buffer 01C4  
                  __end_of_set_autorange_threshould 1DF0                                     ?_usb_halt_ep_in 0070  
                               __CFG_USBLSCLK$48MHz 0000                                        _addr_pending 01EF  
                                  __end_of___awtoft 10FF                                              _ANSELC 018E  
                                  __end_of___ftpack 13CE                          __size_of_pic16_linear_addr 005C  
                                            i1l3025 1092                                              i1l3033 1462  
                                            i1l3043 14AB                                              i1l3123 11B6  
                                            i1l3037 147A                                              i1l3135 1E64  
                                            i1l3049 14C5                                              i1l3307 0F00  
                                            i1l3315 0F20                                              i1l3411 0B7C  
                                            i1l4211 09A5                                              i1l4203 099A  
                                            i1l3309 0F04                                              i1l3501 02CC  
                                            i1l4213 09AC                                              i1l3343 0F80  
                                            i1l3263 0E6D                                              i1l3191 1121  
                                            i1l3511 02F3                                              i1l4231 0A0C  
                                            i1l3329 0F57                                              i1l3273 0E81  
                                            i1l4081 12D1                                              i1l4241 0A49  
                                            i1l3267 0E7D                                              i1l3187 110F  
                                            i1l4235 0A37                                              i1l4219 09BD  
                                            i1l3357 0FB7                                              i1l3277 0E9C  
                                            i1l3269 0E7F                                              i1l3197 1126  
                                            i1l3437 0BD8                                              i1l3525 0330  
                                            i1l4229 0A01                                              i1l3375 0FDE  
                                            i1l3287 0F18                                              i1l3279 0EA0  
                                            i1l3199 111A                                              i1l3615 04A1  
                                            i1l3551 03A0                                              i1l3543 0373  
                                            i1l3527 0334                                              i1l3519 0319  
                                            i1l3289 0EA9                                              i1l3617 04A6  
                                            i1l4185 0956                                              i1l3811 15A0  
                                            i1l3803 1588                                              i1l3627 04FC  
                                            i1l3635 056A                                              i1l3563 03DE  
                                            i1l3539 0355                                              i1l3491 0299  
                                            i1l4179 094F                                              i1l3805 158B  
                                            i1l3645 058A                                              i1l3823 15D2  
                                            i1l3815 15BD                                              i1l3639 0584  
                                            i1l3575 0406                                              i1l3495 02A0  
                                            i1l3833 15E9                                              i1l3585 0427  
                                            i1l3497 02A4                                              i1l3843 1602  
                                            i1l3595 0453                                              i1l3853 14EC  
                                            i1l3845 1604                                              i1l3781 1225  
                                            i1l3773 120D                                              i1l3863 151D  
                                            i1l3839 15FC                                              i1l3883 1558  
                                            i1l3875 1542                                              i1l3859 14FE  
                                            i1l3779 1222                                              i1l3885 155B  
                                            i1l3877 154D                                              i1l3789 1238  
                                            i1l2999 1E7A                            _start_control_return$730 0039  
                          _start_control_return$731 003B                            _start_control_return$732 003D  
                                            u303_25 0C00                                              u304_25 0C2A  
                                            u305_25 0C39                                              u330_20 03EC  
                                            u306_25 0C6B                                              u331_20 03ED  
                                            u307_25 0C95                                              u244_25 1E81  
                                            u252_25 1473                                              u260_25 114F  
                                            u308_25 0CA2                                              u253_20 148F  
                                            u245_25 1E86                                              u253_25 148B  
                                            u261_25 115E                                              u254_20 1490  
                      ??_app_set_interface_callback 0071                                              u262_25 1F05  
                                            u263_25 1F13                                              u248_20 1083  
                                            u344_25 04C7                                              u249_20 1084  
                                            u265_20 11D8                                              u257_25 14BF  
                                            u345_25 04D4                                              u266_20 11D9  
                                            u282_25 0E90                                              u346_25 051A  
                                            u347_25 0529                                              u348_20 0576  
                                            u380_25 1599                                              u436_25 0977  
                                            u349_20 0577                                              u286_25 0EF4  
                       __size_of_usb_get_out_buffer 002F                            __size_of_clear_ep0_stall 0007  
                            _ep0_data_stage_context 00BD                             __end_of_usb_halt_ep_out 1F7F  
                      _ep0_data_stage_buf_remaining 00B6                           _ep0_data_stage_out_buffer 006E  
                                __size_of_i2c_start 0005                                ?_usb_send_data_stage 0040  
                                  _handle_ep0_setup 11F3                                __end_of_FIRM_VERSION 18B1  
                                    __CFG_PWRTE$OFF 0000                __size_of_app_start_of_frame_callback 0001  
                     _NVM_LOW_CURRENT_SLOPE_absaddr 1F80                                    __end_of_dmm_init 086E  
                                       ?i1_usb_init 0070                    ??_app_get_device_status_callback 0072  
                   ?_app_get_device_status_callback 0070                              ??_usb_in_endpoint_busy 00AD  
                       _NVM_PRODUCT_SERIAL0_absaddr 1FF8                                              ___wmul 1EC9  
                                         ??___ftadd 01E5                                      __CFG_STVREN$ON 0000  
                              __size_of_get_current 00A8                                           ??___ftmul 01D5  
               handle_standard_control_request@desc 0054                         _NVM_PRODUCT_SERIAL1_absaddr 1FFC  
                                            _ep_buf 0258                         ??_app_get_protocol_callback 0070  
 __end_of_usb_application_get_hid_report_descriptor 1DD7  __size_of_usb_application_get_hid_report_descriptor 000C  
       ??_usb_application_get_hid_report_descriptor 0073          ?_usb_application_get_hid_report_descriptor 0070  
         _usb_application_get_hid_report_descriptor 1DCB                                              _memset 07E7  
                                      usb_service@i 00AA                 __size_of_app_get_interface_callback 0002  
                       ??_app_set_protocol_callback 0071                                              main@id 0235  
                                            _strlen 1E49                                __size_of_get_voltage 00A8  
                             __end_of_reset_bd0_out 1D9B                               ___ftmul@f3_as_product 01DA  
              app_out_transaction_callback@endpoint 0070                 __size_of_app_set_interface_callback 0002  
                          ?_app_get_report_callback 0070                                    __end_of_usb_init 136A  
                          ?_app_set_report_callback 0070                             ?_app_usb_reset_callback 0070  
                                   ??_i2c_read_byte 00AD                             __end_of__initialization 0245  
                             ??_usb_send_data_stage 0047                                     ??_i2c_reg_write 00B0  
                                    get_current@val 0226                              i1pic16_linear_addr@low 0079  
                            i1pic16_linear_addr@ptr 0076                                          ___ftadd@f1 01DF  
                                        ___ftadd@f2 01E2                      __end_of_this_device_descriptor 189F  
                                   ??_i2c_send_byte 00AD                                         ?_i2c_enable 0070  
                               _init_endpoints$2053 01D6                        __end_of_usb_send_in_buffer_0 10A0  
                                        ___awtoft@c 01CA                                          ___ftmul@f1 01CF  
                                        ___ftmul@f2 01D2                                        ?_stall_ep_in 0070  
                                    __pcstackCOMMON 0070                  __end_of_app_endpoint_halt_callback 0204  
                        _app_endpoint_halt_callback 0203                                        __pidataBANK1 1D5B  
                                      __pidataBANK3 1D72                                        __pidataBANK4 1DF0  
                    __end_of_NVM_LOW_VOLTAGE_OFFSET 1F92                               _app_get_idle_callback 1D4D  
                             _app_set_idle_callback 1D51                                       __end_of_str00 18B5  
                    _process_hid_setup_request$1030 0051                      _process_hid_setup_request$1018 004F  
                                       i1usb_init@i 0045                                        ?_usb_service 0070  
                  app_get_report_callback@interface 0070                                           ?i1___wmul 0070  
                               handle_ep0_setup@res 00A0                                   __end_of_i2c_start 1D6D  
      app_in_transaction_complete_callback@endpoint 0070                                       stall_ep_in@ep 007C  
                        ?_process_hid_setup_request 0048                                      _OPTION_REGbits 0095  
                              __end_of_i2c_reg_read 11A6                                           ?i1_memset 0070  
                                  _highVoltageSlope 0243                      __end_of_app_usb_reset_callback 1D4B  
                           ?_usb_in_endpoint_halted 0070                               __end_of_handle_ep0_in 1570  
                               _get_report_callback 1D4B                                 __size_ofi1_usb_init 005F  
                         _app_get_protocol_callback 1D4F                    app_get_report_callback@report_id 0071  
                                   _g_configuration 006F                                          __pbssBANK0 006E  
                                        __pbssBANK1 00B6                                          __pbssBANK3 01EF  
                                        __pbssBANK4 0266                           _app_set_protocol_callback 1D53  
                                         ?_i2c_wait 0070                     app_get_report_callback@callback 0073  
                                         ?_i2c_stop 0070                                    ?_usb_halt_ep_out 0070  
                     __size_of_reset_ep0_data_stage 000B                                pic16_linear_addr@low 01CD  
                              pic16_linear_addr@ptr 00B3                   __size_of_set_autorange_threshould 000D  
                         ?_set_autorange_threshould 0070                    ??_app_set_configuration_callback 0070  
                   ?_app_set_configuration_callback 0070                                          __pmaintext 058D  
                                 i2c_reg_write@dat0 00AE                                   i2c_reg_write@dat1 00AF  
                                 ??_clear_ep0_stall 0070                                ?_get_report_callback 0070  
                                   __CFG_PLLMULT$3x 0000                                             ?___wmul 00AD  
                                        __pintentry 0204                                   _usb_get_in_buffer 104F  
                             attribute@FIRM_VERSION 18A9                                             ?_memset 00AD  
                                         ?___awtoft 01CA                                           ?___ftpack 00AD  
                           __size_of_handle_ep0_out 0098                             _ep0_data_stage_callback 00BA  
                                ?_usb_get_in_buffer 00A6                                 i1_pic16_linear_addr 11A6  
                                        ??i1___wmul 0074                                             ?_strlen 00AD  
                                 _handle_ep0_in$813 0033                        __end_of_usb_arm_out_endpoint 0944  
                     __size_of_start_control_return 008C                                          _ep_buffers 2080  
                           _NVM_HIGH_VOLTAGE_OFFSET 1F95                         ??_usb_out_endpoint_has_data 00AD  
                         __size_of_i2c_repeat_start 0004                      __end_of_usb_in_endpoint_halted 1029  
                                        ??i1_memset 0076                  __end_of_app_get_interface_callback 1D59  
                        _app_get_interface_callback 1D57                                             u256_2m0 14A7  
                               __size_of_i2c_enable 0006                                             u381_2m0 15B9  
                                           u391_2m0 1519                                 ??_usb_get_in_buffer 01C0  
                                __size_of_stall_ep0 000A                                             _SSP1ADD 0212  
                             _usb_get_configuration 1D60                                             _SSP1BUF 0211  
                app_set_protocol_callback@interface 0070                  app_get_protocol_callback@interface 0070  
                          _custom_report_descriptor 1829                                           ?_dmm_init 0070  
                 __size_ofi1_usb_in_endpoint_halted 001B                           ?i1_usb_in_endpoint_halted 0070  
                    __end_of_NVM_LOW_CURRENT_OFFSET 1F86                                             _UIEbits 0E92  
                __end_of_app_set_interface_callback 1D5B                          _app_set_interface_callback 1D59  
                    get_report_callback@transfer_ok 0070                                             _UIRbits 0E90  
                              ?i1_pic16_linear_addr 0076                                          ??_i2c_wait 00AD  
                                        ??_i2c_stop 00AD                        ?_send_zero_length_packet_ep0 0070  
                app_set_protocol_callback@report_id 0070                                    _interface_string 1845  
              attribute@NVM_PRODUCT_SERIAL0_absaddr 1FF8                       __end_ofattribute@PRODUCT_NAME 18A4  
                         __end_of_usb_get_in_buffer 1077                               ??_get_report_callback 0072  
                                 ?i1_init_endpoints 0070                attribute@NVM_PRODUCT_SERIAL1_absaddr 1FFC  
                            ?_app_get_idle_callback 0070                  app_endpoint_halt_callback@endpoint 0070  
                            ?_app_set_idle_callback 0070                      _NVM_HIGH_CURRENT_SLOPE_absaddr 1F86  
                           __size_of_init_endpoints 017C                                             _ep0_buf 01EA  
                                           ___ftadd 0A4E                                     __size_of___wmul 001B  
                                           ___ftmul 1608       app_unknown_get_descriptor_callback@descriptor 0072  
                                         ?_usb_init 0070                                  ??i1_init_endpoints 003C  
                                  ??_usb_halt_ep_in 0030                                     _lowVoltageSlope 0249  
               usb_application_get_hid_descriptor@p 0073                                          ??___awtoft 01CD  
                                        ??___ftpack 00B2                                     __size_of_memset 0018  
              handle_standard_control_request@flags 005D                                             __ptext1 13CE  
                                           __ptext2 1004                                             __ptext3 1E1F  
                                           __ptext4 1309                                             __ptext5 1DC0  
                                           __ptext6 0CB6                                             __ptext7 124E  
                                           __ptext8 07E7                                             __ptext9 1E0E  
              handle_standard_control_request@setup 0065                            __end_of_handle_ep0_setup 124E  
              handle_standard_control_request@stall 0053                                     __size_of_strlen 0017  
               start_control_return@bytes_asked_for 0035                                        __size_of_isr 0006  
                                  usb_halt_ep_in@ep 007D                                        _FIRM_VERSION 18AD  
                                     usb_service@ep 00A8                               __end_of_hardware_init 0809  
                              _usb_send_in_buffer_0 1077                    app_set_report_callback@interface 0070  
                              usb_send_in_buffer@bd 01CB                                          ??_dmm_init 00B3  
                                           main@dat 0238                                             main@len 023B  
                              end_of_initialization 0245                               __end_of_vendor_string 188D  
                             ??i1_pic16_linear_addr 0030                                             init_ram 1DD7  
                                           memset@c 00AF                                             memset@n 00B1  
                                           memset@p 00B3                                             initloop 1DD8  
                           _NVM_HIGH_CURRENT_OFFSET 1F89                           _usb_out_endpoint_has_data 1E1F  
                  app_set_report_callback@report_id 0071                       ??_send_zero_length_packet_ep0 0070  
                                      ??i1_usb_init 007C                                   __end_of_stall_ep0 1DB5  
                                        _report_buf 0266                                          ??_usb_init 01D9  
                              __size_of_stall_ep_in 0038                               i1___wmul@multiplicand 0072  
                             __size_of_i2c_reg_read 003D                             usb_send_in_buffer_0@len 007B  
                           usb_send_in_buffer_0@pid 0030                                             strlen@s 00AD  
                      ??_app_endpoint_halt_callback 0071                                           _PORTCbits 000E  
                          ??i1_reset_ep0_data_stage 0070         app_set_configuration_callback@configuration 0070  
      __end_of_app_in_transaction_complete_callback 1D48       __size_of_app_in_transaction_complete_callback 0001  
            ??_app_in_transaction_complete_callback 0070               ?_app_in_transaction_complete_callback 0070  
              _app_in_transaction_complete_callback 1D47                 __end_of_app_start_of_frame_callback 1D4A  
                       _app_start_of_frame_callback 1D49                                     init_endpoints@i 01D8  
                                    get_voltage@val 0226                          handle_ep0_in@bytes_to_send 0035  
                       __size_of_usb_send_in_buffer 0088                                    __CFG_FOSC$INTOSC 0000  
                              __size_of_usb_service 010A                        ??_usb_application_get_string 0073  
                             ?_usb_send_in_buffer_0 007B              __end_of_app_get_device_status_callback 1D60  
           __size_of_app_get_device_status_callback 0003                      _app_get_device_status_callback 1D5D  
                            ?_usb_get_configuration 0070                             i1pic16_linear_addr@addr 007A  
                           i1pic16_linear_addr@high 0078                          __end_of_usb_get_out_buffer 10CF  
                                __end_ofi1_usb_init 1309              app_unknown_get_descriptor_callback@pkt 0070  
                                         _USTATbits 0E8F                             get_shunt_voltage@vshunt 01C8  
              __end_of_app_out_transaction_callback 1D49               __size_of_app_out_transaction_callback 0001  
                      _app_out_transaction_callback 1D48                                        ??_i2c_enable 00AD  
                                        main@opcode 0237                                _usb_arm_out_endpoint 086E  
                                     ??_get_current 01E9                                        _i2c_reg_read 1169  
                __size_of_app_get_protocol_callback 0002                    __size_of_app_get_report_callback 0017  
                  __size_of_app_set_report_callback 0002                   process_hid_setup_request@callback 005E  
                                  main@RxDataBuffer 023C                                  __CFG_PLLEN$ENABLED 0000  
                                       ___ftmul@exp 01D9                          __size_of_usb_get_in_buffer 0028  
                __size_of_app_set_protocol_callback 0002                         ?_app_endpoint_halt_callback 0070  
                                     ?_stall_ep_out 0070                   process_hid_setup_request@len_1020 0064  
               __size_of_usb_application_get_string 0032                                       ??_get_voltage 01E9  
        __end_of_app_unknown_setup_request_callback 1D84         __size_of_app_unknown_setup_request_callback 0007  
               ?_app_unknown_setup_request_callback 006B                ??_app_unknown_setup_request_callback 007E  
                _app_unknown_setup_request_callback 1D7D                       app_get_report_callback@report 0072  
                     __size_of_usb_in_endpoint_busy 0011                                      __end_of___wmul 1EE4  
                                    _handle_ep0_out 1570                          get_report_callback@context 0071  
                                         i1memset@c 0072                                           i1memset@n 0074  
                                         i1memset@p 0076                                     i2c_reg_read@dat 01C1  
         process_hid_setup_request@report_type_1031 0055                         handle_ep0_out@bytes_to_copy 0078  
                     __p_NVM_LOW_VOLTAGE_SLOPE_text 1F8C                      __p_NVM_HIGH_CURRENT_SLOPE_text 1F86  
                                    __end_of_memset 07FF                                   i2c_send_byte@data 00AD  
                 process_hid_setup_request@res_1040 005D                   process_hid_setup_request@res_1035 0059  
                 process_hid_setup_request@res_1038 005C                   process_hid_setup_request@res_1039 0061  
              __size_of_send_zero_length_packet_ep0 0008                   process_hid_setup_request@duration 005A  
                                  _i2c_repeat_start 1000                                      __end_of_strlen 1E60  
                                      i1usb_init@ep 0046                         ??_process_hid_setup_request 004A  
                               start_initialization 020C                                   __size_ofi1___wmul 001B  
                                __end_of_i2c_enable 1D7D                                           _i2c_start 1D68  
                                       __end_of_isr 020A                                   _get_shunt_voltage 1F3C  
                       __end_of_usb_send_data_stage 1F01                                   __size_ofi1_memset 0018  
           usb_application_get_string@string_number 0073                                  ?_get_shunt_voltage 01C3  
                      ??_app_get_interface_callback 0070                                     _clear_ep0_stall 1D84  
                             __end_of_i2c_read_byte 1F3C                                     _returning_short 00BE  
                                 _highVoltageOffset 0240                                __end_of_PRODUCT_NAME 18A9  
                     ?_app_out_transaction_callback 0070                               ?_usb_arm_out_endpoint 0070  
                             __end_of_i2c_reg_write 1EC9                                      stall_ep_out@ep 0072  
                                 __size_of_i2c_wait 0008                                   __size_of_i2c_stop 0005  
                               ??_get_shunt_voltage 01C5                              __size_of_reset_bd0_out 0008  
                             __end_of_i2c_send_byte 1DAB                                    main@TxDataBuffer 023E  
                                    ??_stall_ep_out 0070                                      _init_endpoints 0CB6  
                 __end_of_app_get_protocol_callback 1D51                              __end_of_handle_ep0_out 1608  
                                          ??___wmul 00B1                   __end_of_app_set_protocol_callback 1D55  
                                       __pdataBANK1 00C1                                         __pdataBANK3 01EA  
                                       __pdataBANK4 0258             app_unknown_setup_request_callback@setup 006B  
                                          ??_memset 00B3                                 __end_of_get_current 1758  
                  __end_ofi1_usb_in_endpoint_halted 1EAE                        __end_of_reset_ep0_data_stage 1DCB  
             app_set_interface_callback@alt_setting 0070                                            ??_strlen 00AF  
                   __size_ofi1_reset_ep0_data_stage 000B                              ??_usb_send_in_buffer_0 007D  
       usb_application_get_hid_descriptor@interface 0070                                   __size_of___awtoft 0030  
                                 __size_of___ftpack 0064                           __end_of_get_shunt_voltage 1F5A  
                               __end_of_get_voltage 1800                                           ___latbits 0002  
                          __end_of_interface_string 185D                                       __pcstackBANK0 0030  
                                     __pcstackBANK1 00A0                                       __pcstackBANK3 01C0  
                                     __pcstackBANK4 0220                         ?_app_get_interface_callback 0070  
              __pattribute@NVM_PRODUCT_SERIAL0_text 18B9                __pattribute@NVM_PRODUCT_SERIAL1_text 18B5  
                                        ?_i2c_start 0070                                   _highCurrentOffset 024C  
                     __end_of_NVM_LOW_VOLTAGE_SLOPE 1F8F                          usb_send_in_buffer@endpoint 01CA  
                       ?_app_set_interface_callback 0070                               pic16_linear_addr@addr 01CE  
                             pic16_linear_addr@high 01CC                                   __size_of_dmm_init 0065  
                      __end_of_start_control_return 14E2                  process_hid_setup_request@desc_1019 0062  
                                         __pnvBANK4 0240                           _process_hid_setup_request 0E32  
           __end_of_handle_standard_control_request 058D            __size_of_handle_standard_control_request 0344  
                 ??_handle_standard_control_request 0045                    ?_handle_standard_control_request 0070  
                   _handle_standard_control_request 0249                             ??_app_get_idle_callback 0071  
                           ??_app_set_idle_callback 0072                              __end_of_init_endpoints 0E32  
                    app_get_report_callback@context 0074              handle_standard_control_request@len_763 0058  
                    usb_in_endpoint_halted@endpoint 00B3                                     ?_handle_ep0_out 0070  
                          __size_of_usb_halt_ep_out 0025                                            ?___ftadd 01DF  
                            __size_of_handle_ep0_in 008E                                            ?___ftmul 01CF  
                 usb_out_endpoint_has_data@endpoint 00AE                       usb_application_get_string@ptr 0070  
                __size_of_usb_out_endpoint_has_data 0013              handle_standard_control_request@res_775 0051  
            handle_standard_control_request@ret_773 004D              handle_standard_control_request@ret_776 005E  
                            _NVM_HIGH_VOLTAGE_SLOPE 1F92                       _NVM_LOW_VOLTAGE_SLOPE_absaddr 1F8C  
                                 __size_of_usb_init 0061                                i2c_reg_write@regAddr 00B0  
                     __end_of_NVM_LOW_CURRENT_SLOPE 1F83                  __end_of_usb_application_get_string 1131  
                        _usb_application_get_string 10FF                                   ?_handle_ep0_setup 0070  
                                     _reset_bd0_out 1D93                             __end_of_clear_ep0_stall 1D8B  
                         __size_ofi1_init_endpoints 0140                                  ??_handle_ep0_setup 006D  
                process_hid_setup_request@interface 006A                            _set_autorange_threshould 1DE3  
                            ??_usb_arm_out_endpoint 01C0                              i1_reset_ep0_data_stage 1DB5  
                                    ___wmul@product 00B1                         __end_of_get_report_callback 1D4D  
                             i1_init_endpoints$2120 0042                             _app_get_report_callback 1E32  
                                          _PIE2bits 0092                             _app_set_report_callback 1D55  
                                   ?_init_endpoints 0070                        _usb_application_config_descs 00C1  
                            _NVM_HIGH_CURRENT_SLOPE 1F86                                         _get_current 16B0  
                                          _PIR2bits 0012     handle_standard_control_request@descriptor_index 0063  
                               _NVM_PRODUCT_SERIAL0 1FF8                                 _NVM_PRODUCT_SERIAL1 1FFC  
                                          _UCFGbits 0E91                      app_get_idle_callback@interface 0070  
                process_hid_setup_request@report_id 0054                      ??_app_out_transaction_callback 0070  
                                _handle_ep0_out$808 0074                                            _SSP1CON1 0215  
                                          _SSP1CON2 0216                            _ep0_data_stage_in_buffer 00B8  
                                          _SSP1STAT 0214                                            _UCONbits 0E8E  
                             attribute@PRODUCT_NAME 189F                                         _get_voltage 1758  
                                         _stall_ep0 1DAB                            ??_app_usb_reset_callback 0070  
                 __end_of_usb_out_endpoint_has_data 1E32                             start_control_return@len 0033  
                           ??_usb_get_configuration 00AD                                   ___wmul@multiplier 00AD  
                           start_control_return@ptr 0031                                            i1___wmul 1E78  
                                    ?_reset_bd0_out 0070                      app_get_idle_callback@report_id 0070  
                        __size_of_get_shunt_voltage 001E                                            i1_memset 1E60  
                      usb_arm_out_endpoint@endpoint 00B4                            i1_usb_in_endpoint_halted 1E93  
                         usb_send_data_stage@buffer 0040                         __end_ofi1_pic16_linear_addr 11F3  
                                       ??_i2c_start 00AD                                __end_of_stall_ep_out 1F1E  
                            usb_send_data_stage@len 0042                                       _handle_ep0_in 14E2  
                  process_hid_setup_request@context 0063                                          _ACTCONbits 039B  
                      process_hid_setup_request@len 0066                        process_hid_setup_request@res 0057  
                                          _i2c_wait 1D9B                __end_ofattribute@NVM_PRODUCT_SERIAL0 18BD  
                      attribute@NVM_PRODUCT_SERIAL0 18B9                __end_ofattribute@NVM_PRODUCT_SERIAL1 18B9  
                      attribute@NVM_PRODUCT_SERIAL1 18B5                                            _i2c_stop 1D6D  
                               i2c_reg_read@regAddr 01C0                                _reset_ep0_data_stage 1DC0  
                                        usb_init@ep 01DC                            __end_of_i2c_repeat_start 1004  
               _handle_standard_control_request$774 004F                                       ??_stall_ep_in 0076  
                                _usb_get_out_buffer 10A0                        usb_in_endpoint_busy@endpoint 00AE  
                            __size_of_hardware_init 0009                         usb_send_data_stage@callback 0044  
                       __p_NVM_PRODUCT_SERIAL0_text 1FF8                         __p_NVM_PRODUCT_SERIAL1_text 1FFC  
        __end_of_usb_application_get_hid_descriptor 1E0E         __size_of_usb_application_get_hid_descriptor 0010  
              ??_usb_application_get_hid_descriptor 0073                 ?_usb_application_get_hid_descriptor 0070  
                _usb_application_get_hid_descriptor 1DFE                  handle_standard_control_request@len 0056  
                handle_standard_control_request@req 005B                  handle_standard_control_request@res 0052  
                handle_standard_control_request@ret 004B                                     _configuration_1 1800  
                                  __size_of___ftadd 0128                            ??_usb_in_endpoint_halted 01C0  
                                  __size_of___ftmul 00A8                    __end_of_custom_report_descriptor 1845  
                        __end_of_usb_send_in_buffer 1456                                            ___awtoft 10CF  
                                          ___ftpack 136A                                          ?_stall_ep0 0070  
                               ?_usb_get_out_buffer 00B3                                       ??_usb_service 00A3  
                   __p_NVM_HIGH_VOLTAGE_OFFSET_text 1F95                                    _highCurrentSlope 024F  
                                  _lowVoltageOffset 0246                                   ??_usb_halt_ep_out 0076  
                              _start_control_return 1456                                        _PRODUCT_NAME 18A4  
                                  ?_clear_ep0_stall 0070               handle_standard_control_request@ep_dir 005F  
                                    ?_handle_ep0_in 0070                             __size_of_usb_halt_ep_in 0026  
             handle_standard_control_request@ep_num 005C                                            __ptext10 10A0  
                                          __ptext11 104F                                            __ptext20 1169  
                                          __ptext12 1D60                                            __ptext21 1000  
                                          __ptext13 086E                                            __ptext30 1D6D  
                                          __ptext22 1F1E                                            __ptext14 1EC9  
                                          __ptext31 1D68                                            __ptext23 1608  
                                          __ptext15 1E49                                            __ptext40 0249  
                                          __ptext32 1DA3                                            __ptext24 0A4E  
                                          __ptext16 0800                                            __ptext41 0B76  
                                          __ptext33 1D9B                                            __ptext25 10CF  
                                          __ptext17 1758                                            __ptext50 1D59  
                                          __ptext42 11A6                                            __ptext34 1D77  
                                          __ptext26 136A                                            __ptext18 16B0  
                                          __ptext51 07FF                                            __ptext43 1E60  
                                          __ptext27 0809                                            __ptext19 1F3C  
                                          __ptext60 1DCB                                            __ptext52 1D57  
                                          __ptext44 1F5A                                            __ptext36 0944  
                                          __ptext28 1DE3                                            __ptext61 1DFE  
                                          __ptext53 1D5D                                            __ptext45 1F01  
                                          __ptext37 12AA                                            __ptext29 1EAE  
                                          __ptext70 1D8B                                            __ptext62 1D55  
                                          __ptext54 0203                                            __ptext46 1029  
                                          __ptext38 1D93                                            __ptext71 14E2  
                                          __ptext63 1D53                                            __ptext55 1D84  
                                          __ptext47 1131                                            __ptext39 11F3  
                                          __ptext80 1D47                                            __ptext72 1DB5  
                                          __ptext64 1D51                                            __ptext56 1D7D  
                                          __ptext48 10FF                                            __ptext73 1077  
                                          __ptext65 1E32                                            __ptext57 0E32  
                                          __ptext49 1D63                                            __ptext74 1E93  
                                          __ptext66 1D4F                                            __ptext58 1EE4  
                                          __ptext75 1E78                                            __ptext67 1D4D  
                                          __ptext59 1456                                            __ptext76 1D4B  
                                          __ptext68 1570                                            __ptext77 1D4A  
                                          __ptext69 1DAB                                            __ptext78 1D49  
                                          __ptext79 1D48                                        _SSP1CON2bits 0216  
                                          _dmm_init 0809                        __end_of_usb_in_endpoint_busy 1E1F  
             usb_application_get_hid_descriptor@ptr 0070                           ??_app_get_report_callback 0075  
                              ??_usb_get_out_buffer 01C0                           ??_app_set_report_callback 0072  
               __end_of_send_zero_length_packet_ep0 1D93                         _send_zero_length_packet_ep0 1D8B  
                                     __size_of_main 025A                               ?_reset_ep0_data_stage 0070  
                                    usb_service@pid 00AC                                    _control_need_zlp 00BF  
                                 usb_halt_ep_out@ep 007A         __end_of_app_unknown_get_descriptor_callback 1D68  
      __size_of_app_unknown_get_descriptor_callback 0005               ??_app_unknown_get_descriptor_callback 0073  
              ?_app_unknown_get_descriptor_callback 0070                 _app_unknown_get_descriptor_callback 1D63  
                             usb_send_in_buffer@len 00B4                               usb_send_in_buffer@pid 01C9  
                                  _lowCurrentOffset 0252                                            int$flags 007E  
                                          _usb_init 1309                                        _SSP1STATbits 0214  
                __size_of_process_hid_setup_request 01CE                                            main@curr 0230  
                                   ??_reset_bd0_out 0070                                            main@volt 022D  
                               __end_of_stall_ep_in 1169                     __size_of_app_usb_reset_callback 0001  
                             ?_start_control_return 0031                      _NVM_HIGH_VOLTAGE_SLOPE_absaddr 1F92  
                                        _INTCONbits 000B                                           usb_init@i 01DB  
                                  i1_init_endpoints 0B76                                      __pstringtext10 18AD  
                                    __pstringtext11 18B1                      process_hid_setup_request@setup 0048  
                               __end_of_usb_service 0A4E                                       _hardware_init 0800  
                                          memset@p1 00AD           handle_standard_control_request@descriptor 0062  
                  app_endpoint_halt_callback@halted 0070                                            intlevel1 0000  
                                     _vendor_string 1875           handle_standard_control_request@ep_num_778 0064  
           handle_standard_control_request@desc_761 0060             handle_standard_control_request@desc_764 005A  
                      __size_of_usb_send_data_stage 001D                                   __CFG_CLKOUTEN$OFF 0000  
                                  ??_handle_ep0_out 0072                             __end_of_configuration_1 1829  
                                        _OSCCONbits 0099                      __size_of_app_get_idle_callback 0002  
                    __size_of_app_set_idle_callback 0002                       __end_of_app_get_idle_callback 1D4F  
                     __end_of_app_set_idle_callback 1D53                                     _lowCurrentSlope 0255  
                            _this_device_descriptor 188D                                __CFG_CPUDIV$NOCLKDIV 0000  
                                    _product_string 185D                          ?_app_get_protocol_callback 0070  
               process_hid_setup_request@descriptor 0060                      __p_NVM_LOW_VOLTAGE_OFFSET_text 1F8F  
                   __end_of_app_get_report_callback 1E49                     __p_NVM_HIGH_CURRENT_OFFSET_text 1F89  
                   __end_of_app_set_report_callback 1D57                     __size_of_usb_in_endpoint_halted 0025  
                             usb_get_out_buffer@buf 00B3                          ?_app_set_protocol_callback 0070  
                                       ??_stall_ep0 0070                                       __pstringtext1 1845  
                                     __pstringtext2 189F                                       __pstringtext3 18A9  
                                     __pstringtext4 1800                                       __pstringtext5 1829  
                                     __pstringtext6 185D                                       __pstringtext7 1875  
                                     __pstringtext8 188D                                       __pstringtext9 18A4  
                            __size_of_i2c_read_byte 001E                   __end_of_process_hid_setup_request 1000  
                             __size_of_stall_ep_out 001D                         ?_usb_application_get_string 0070  
                            _NVM_LOW_VOLTAGE_OFFSET 1F8F                                     ??_handle_ep0_in 0031  
                                          strlen@cp 00B0                          ??_set_autorange_threshould 00B1  
                            __size_of_i2c_reg_write 001B                       __size_of_usb_send_in_buffer_0 0029  
                                    ?_hardware_init 0070                    i1usb_in_endpoint_halted@endpoint 007A  
                            __size_of_i2c_send_byte 0008                             ?i1_reset_ep0_data_stage 0070  
                                 i2c_read_byte@data 00AF                                    ??_init_endpoints 01D0  
                            ??_reset_ep0_data_stage 00AD                               _NVM_LOW_VOLTAGE_SLOPE 1F8C  
                            _app_usb_reset_callback 1D4A                                   _pic16_linear_addr 124E  
                         __size_of_handle_ep0_setup 005B                                    i2c_read_byte@ack 00AE  
                    __p_NVM_HIGH_VOLTAGE_SLOPE_text 1F92                     __end_of_NVM_HIGH_VOLTAGE_OFFSET 1F98  
                                ?_pic16_linear_addr 00B3                      __end_of_NVM_HIGH_VOLTAGE_SLOPE 1F95  
                                      ?_get_current 0223                              __end_of_product_string 1875  
               app_get_interface_callback@interface 0070                 app_set_interface_callback@interface 0070  
